(dp0
S'35236'
p1
I32
sS'35237'
p2
I168
sS'35234'
p3
I390
sS'35235'
p4
I34
sS'35232'
p5
I361
sS'35233'
p6
I628
sS'35230'
p7
I242
sS'35231'
p8
I850
sS'16079'
p9
I117
sS'35238'
p10
I2
sS'35239'
p11
I276
sS'11540'
p12
I17
sS'11546'
p13
I82
sS'11547'
p14
I38
sS'11548'
p15
I302
sS'11549'
p16
I24
sS'19393'
p17
I160
sS'06590'
p18
I43
sS'06592'
p19
I59
sS'06595'
p20
I20
sS'06594'
p21
I52
sS'06597'
p22
I25
sS'06596'
p23
I43
sS'06599'
p24
I40
sS'06598'
p25
I25
sS'25062'
p26
I383
sS'25063'
p27
I505
sS'25060'
p28
I467
sS'16070'
p29
I116
sS'25066'
p30
I432
sS'25067'
p31
I412
sS'25064'
p32
I560
sS'25065'
p33
I389
sS'25068'
p34
I415
sS'16253'
p35
I94
sS'16252'
p36
I66
sS'16251'
p37
I88
sS'16250'
p38
I79
sS'16257'
p39
I88
sS'16256'
p40
I88
sS'16255'
p41
I94
sS'16254'
p42
I88
sS'16259'
p43
I88
sS'16258'
p44
I88
sS'18188'
p45
I503
sS'06334'
p46
I73
sS'06337'
p47
I65
sS'06336'
p48
I103
sS'06331'
p49
I42
sS'06330'
p50
I34
sS'06333'
p51
I73
sS'06332'
p52
I42
sS'12014'
p53
I559
sS'12016'
p54
I574
sS'12011'
p55
I367
sS'06338'
p56
I81
sS'12013'
p57
I332
sS'12012'
p58
I553
sS'17258'
p59
I201
sS'17259'
p60
I234
sS'07038'
p61
I307
sS'17250'
p62
I244
sS'17251'
p63
I339
sS'17252'
p64
I267
sS'17253'
p65
I270
sS'17254'
p66
I232
sS'17255'
p67
I270
sS'17256'
p68
I223
sS'17257'
p69
I258
sS'21611'
p70
I270
sS'21610'
p71
I246
sS'05734'
p72
I202
sS'05735'
p73
I235
sS'05736'
p74
I141
sS'05737'
p75
I197
sS'05730'
p76
I127
sS'05732'
p77
I155
sS'05733'
p78
I164
sS'05738'
p79
I109
sS'05739'
p80
I139
sS'01024'
p81
I327
sS'01025'
p82
I373
sS'01026'
p83
I300
sS'01027'
p84
I318
sS'01020'
p85
I389
sS'01021'
p86
I466
sS'01022'
p87
I356
sS'01023'
p88
I413
sS'05220'
p89
I147
sS'01028'
p90
I254
sS'05227'
p91
I114
sS'14625'
p92
I46
sS'14626'
p93
I46
sS'14627'
p94
I47
sS'14620'
p95
I49
sS'14621'
p96
I49
sS'14622'
p97
I49
sS'14623'
p98
I45
sS'14628'
p99
I2
sS'14629'
p100
I58
sS'13055'
p101
I280
sS'08500'
p102
I354
sS'08501'
p103
I404
sS'08050'
p104
I380
sS'08504'
p105
I310
sS'08505'
p106
I367
sS'08054'
p107
I421
sS'08507'
p108
I379
sS'08508'
p109
I378
sS'08509'
p110
I381
sS'08058'
p111
I374
sS'08059'
p112
I406
sS'23059'
p113
I176
sS'23058'
p114
I182
sS'23509'
p115
I159
sS'23508'
p116
I228
sS'23055'
p117
I129
sS'23054'
p118
I177
sS'23057'
p119
I141
sS'23056'
p120
I168
sS'23503'
p121
I249
sS'23050'
p122
I191
sS'23053'
p123
I144
sS'23052'
p124
I166
sS'22958'
p125
I126
sS'22957'
p126
I128
sS'22956'
p127
I139
sS'07967'
p128
I392
sS'07966'
p129
I267
sS'03197'
p130
I51
sS'03194'
p131
I390
sS'03195'
p132
I80
sS'03192'
p133
I75
sS'03193'
p134
I391
sS'03190'
p135
I393
sS'03191'
p136
I74
sS'07964'
p137
I302
sS'03198'
p138
I52
sS'03199'
p139
I58
sS'23125'
p140
I305
sS'23656'
p141
I141
sS'07969'
p142
I333
sS'07968'
p143
I337
sS'28380'
p144
I270
sS'28381'
p145
I267
sS'10884'
p146
I111
sS'10885'
p147
I91
sS'10886'
p148
I95
sS'10887'
p149
I107
sS'10880'
p150
I110
sS'10881'
p151
I132
sS'10882'
p152
I116
sS'10883'
p153
I113
sS'23122'
p154
I128
sS'10888'
p155
I103
sS'10889'
p156
I113
sS'06101'
p157
I446
sS'11289'
p158
I35
sS'11288'
p159
I28
sS'19706'
p160
I387
sS'16067'
p161
I344
sS'16060'
p162
I343
sS'19701'
p163
I477
sS'19702'
p164
I381
sS'19703'
p165
I345
sS'11281'
p166
I29
sS'11280'
p167
I30
sS'11283'
p168
I44
sS'11282'
p169
I40
sS'11285'
p170
I19
sS'11284'
p171
I349
sS'11287'
p172
I29
sS'11286'
p173
I132
sS'28256'
p174
I492
sS'11019'
p175
I18
sS'11757'
p176
I35
sS'11756'
p177
I20
sS'11755'
p178
I14
sS'11754'
p179
I12
sS'11753'
p180
I24
sS'11752'
p181
I29
sS'11751'
p182
I23
sS'11750'
p183
I24
sS'11759'
p184
I25
sS'11758'
p185
I23
sS'16392'
p186
I579
sS'16390'
p187
I587
sS'16396'
p188
I578
sS'16397'
p189
I589
sS'16394'
p190
I589
sS'16398'
p191
I598
sS'16399'
p192
I608
sS'14536'
p193
I152
sS'14537'
p194
I0
sS'14530'
p195
I84
sS'14531'
p196
I149
sS'14163'
p197
I101
sS'14532'
p198
I275
sS'11990'
p199
I109
sS'13285'
p200
I216
sS'13284'
p201
I149
sS'14161'
p202
I47
sS'11992'
p203
I35
sS'04615'
p204
I884
sS'11995'
p205
I34
sS'14166'
p206
I0
sS'21282'
p207
I244
sS'21283'
p208
I260
sS'21280'
p209
I273
sS'21281'
p210
I283
sS'21286'
p211
I295
sS'21287'
p212
I265
sS'21284'
p213
I275
sS'05038'
p214
I233
sS'05037'
p215
I253
sS'05036'
p216
I285
sS'05035'
p217
I298
sS'05034'
p218
I237
sS'05033'
p219
I201
sS'05032'
p220
I222
sS'05031'
p221
I246
sS'05030'
p222
I277
sS'04618'
p223
I713
sS'09228'
p224
I206
sS'09229'
p225
I57
sS'04610'
p226
I717
sS'04611'
p227
I713
sS'04612'
p228
I537
sS'20084'
p229
I362
sS'04614'
p230
I526
sS'09223'
p231
I50
sS'09220'
p232
I61
sS'04617'
p233
I717
sS'32013'
p234
I136
sS'32012'
p235
I328
sS'32011'
p236
I343
sS'42158'
p237
I140
sS'32010'
p238
I356
sS'12220'
p239
I534
sS'42151'
p240
I465
sS'32017'
p241
I355
sS'42153'
p242
I86
sS'42155'
p243
I313
sS'42157'
p244
I107
sS'32016'
p245
I388
sS'09048'
p246
I64
sS'32015'
p247
I235
sS'09042'
p248
I43
sS'09043'
p249
I38
sS'09040'
p250
I89
sS'09041'
p251
I346
sS'09046'
p252
I92
sS'09044'
p253
I333
sS'32019'
p254
I145
sS'05693'
p255
I212
sS'05692'
p256
I214
sS'05691'
p257
I197
sS'05690'
p258
I215
sS'05697'
p259
I127
sS'05696'
p260
I101
sS'05695'
p261
I158
sS'05694'
p262
I115
sS'05699'
p263
I451
sS'05698'
p264
I381
sS'18938'
p265
I385
sS'18939'
p266
I409
sS'21428'
p267
I216
sS'21429'
p268
I464
sS'03690'
p269
I86
sS'03693'
p270
I115
sS'03694'
p271
I85
sS'03696'
p272
I115
sS'11844'
p273
I88
sS'11842'
p274
I150
sS'01278'
p275
I85
sS'01271'
p276
I304
sS'01270'
p277
I410
sS'11840'
p278
I218
sS'01275'
p279
I71
sS'01276'
p280
I106
sS'08314'
p281
I348
sS'08316'
p282
I361
sS'06339'
p283
I56
sS'08319'
p284
I350
sS'08318'
p285
I371
sS'18313'
p286
I298
sS'18642'
p287
I413
sS'11119'
p288
I16
sS'11118'
p289
I15
sS'14341'
p290
I50
sS'28359'
p291
I541
sS'28358'
p292
I515
sS'28357'
p293
I487
sS'11110'
p294
I23
sS'11113'
p295
I29
sS'11112'
p296
I31
sS'11115'
p297
I24
sS'11114'
p298
I27
sS'11117'
p299
I12
sS'14476'
p300
I35
sS'18319'
p301
I316
sS'13841'
p302
I333
sS'13840'
p303
I355
sS'13843'
p304
I378
sS'13842'
p305
I370
sS'13845'
p306
I324
sS'13844'
p307
I295
sS'13847'
p308
I367
sS'13846'
p309
I333
sS'13849'
p310
I393
sS'13848'
p311
I404
sS'19035'
p312
I583
sS'11762'
p313
I17
sS'19033'
p314
I428
sS'05182'
p315
I177
sS'35211'
p316
I159
sS'11568'
p317
I32
sS'11569'
p318
I20
sS'23264'
p319
I138
sS'23265'
p320
I125
sS'23262'
p321
I122
sS'23263'
p322
I133
sS'23260'
p323
I165
sS'23261'
p324
I128
sS'11563'
p325
I40
sS'11564'
p326
I28
sS'11565'
p327
I22
sS'23268'
p328
I226
sS'11567'
p329
I23
sS'23654'
p330
I186
sS'22247'
p331
I82
sS'25048'
p332
I403
sS'23653'
p333
I122
sS'25040'
p334
I473
sS'25041'
p335
I446
sS'25043'
p336
I415
sS'25045'
p337
I350
sS'25046'
p338
I451
sS'16239'
p339
I33
sS'16238'
p340
I29
sS'16231'
p341
I44
sS'16230'
p342
I28
sS'19913'
p343
I465
sS'19912'
p344
I310
sS'16235'
p345
I41
sS'19914'
p346
I538
sS'16237'
p347
I58
sS'16236'
p348
I41
sS'06312'
p349
I89
sS'06311'
p350
I40
sS'12038'
p351
I592
sS'06317'
p352
I25
sS'06316'
p353
I51
sS'06315'
p354
I37
sS'06314'
p355
I41
sS'12033'
p356
I333
sS'12032'
p357
I382
sS'06319'
p358
I119
sS'06318'
p359
I76
sS'12037'
p360
I582
sS'12036'
p361
I584
sS'12034'
p362
I567
sS'05675'
p363
I462
sS'02047'
p364
I0
sS'02046'
p365
I60
sS'02045'
p366
I43
sS'90480'
p367
I269
sS'43144'
p368
I28
sS'43146'
p369
I49
sS'43143'
p370
I30
sS'43142'
p371
I28
sS'02043'
p372
I312
sS'02042'
p373
I276
sS'05200'
p374
I172
sS'02041'
p375
I295
sS'11488'
p376
I39
sS'01042'
p377
I366
sS'01043'
p378
I375
sS'01040'
p379
I393
sS'01041'
p380
I340
sS'01046'
p381
I330
sS'01047'
p382
I323
sS'01044'
p383
I334
sS'01045'
p384
I331
sS'01048'
p385
I290
sS'01049'
p386
I123
sS'05002'
p387
I291
sS'05003'
p388
I272
sS'11483'
p389
I56
sS'05000'
p390
I144
sS'11482'
p391
I40
sS'05001'
p392
I213
sS'02049'
p393
I101
sS'05006'
p394
I215
sS'02048'
p395
I21
sS'05007'
p396
I289
sS'14640'
p397
I49
sS'14641'
p398
I1
sS'14646'
p399
I27
sS'14647'
p400
I29
sS'14644'
p401
I8
sS'14645'
p402
I64
sS'18544'
p403
I400
sS'14648'
p404
I54
sS'14649'
p405
I0
sS'18541'
p406
I480
sS'18540'
p407
I468
sS'13070'
p408
I194
sS'18092'
p409
I415
sS'18090'
p410
I252
sS'18097'
p411
I391
sS'18096'
p412
I389
sS'18095'
p413
I264
sS'48052'
p414
I370
sS'10185'
p415
I167
sS'10184'
p416
I144
sS'10187'
p417
I216
sS'10186'
p418
I196
sS'10181'
p419
I172
sS'10180'
p420
I256
sS'10183'
p421
I165
sS'10182'
p422
I162
sS'10189'
p423
I229
sS'10188'
p424
I238
sS'08078'
p425
I384
sS'08071'
p426
I380
sS'08073'
p427
I380
sS'08074'
p428
I357
sS'08077'
p429
I320
sS'23079'
p430
I143
sS'23078'
p431
I160
sS'23073'
p432
I137
sS'23072'
p433
I152
sS'23071'
p434
I228
sS'23070'
p435
I221
sS'23077'
p436
I209
sS'23076'
p437
I199
sS'23075'
p438
I215
sS'23074'
p439
I146
sS'15119'
p440
I198
sS'04601'
p441
I499
sS'15115'
p442
I119
sS'15114'
p443
I148
sS'15117'
p444
I144
sS'04600'
p445
I362
sS'15111'
p446
I172
sS'15110'
p447
I144
sS'15113'
p448
I147
sS'15112'
p449
I96
sS'05228'
p450
I147
sS'09444'
p451
I52
sS'12588'
p452
I609
sS'12586'
p453
I581
sS'12585'
p454
I574
sS'01029'
p455
I295
sS'06124'
p456
I367
sS'06125'
p457
I51
sS'06126'
p458
I367
sS'06127'
p459
I344
sS'06120'
p460
I381
sS'06121'
p461
I50
sS'06122'
p462
I328
sS'06123'
p463
I322
sS'06128'
p464
I377
sS'09006'
p465
I56
sS'13985'
p466
I182
sS'13980'
p467
I250
sS'13981'
p468
I224
sS'13982'
p469
I240
sS'13983'
p470
I158
sS'23381'
p471
I155
sS'23380'
p472
I150
sS'23383'
p473
I149
sS'23382'
p474
I158
sS'23385'
p475
I149
sS'23384'
p476
I135
sS'23387'
p477
I191
sS'23386'
p478
I143
sS'23389'
p479
I275
sS'23388'
p480
I199
sS'43449'
p481
I105
sS'43441'
p482
I276
sS'43331'
p483
I326
sS'16002'
p484
I128
sS'16003'
p485
I237
sS'16001'
p486
I329
sS'16006'
p487
I94
sS'16007'
p488
I121
sS'16004'
p489
I260
sS'16005'
p490
I155
sS'16008'
p491
I142
sS'16009'
p492
I106
sS'17359'
p493
I270
sS'17358'
p494
I118
sS'17355'
p495
I640
sS'17354'
p496
I596
sS'17357'
p497
I154
sS'17356'
p498
I703
sS'17351'
p499
I122
sS'17350'
p500
I145
sS'17353'
p501
I255
sS'17352'
p502
I144
sS'13519'
p503
I139
sS'11845'
p504
I18
sS'03154'
p505
I64
sS'09524'
p506
I17
sS'42316'
p507
I26
sS'14423'
p508
I29
sS'42173'
p509
I307
sS'42171'
p510
I227
sS'07905'
p511
I109
sS'42179'
p512
I233
sS'42178'
p513
I322
sS'12204'
p514
I201
sS'12205'
p515
I89
sS'12206'
p516
I594
sS'12200'
p517
I647
sS'12201'
p518
I631
sS'12202'
p519
I154
sS'12203'
p520
I56
sS'18952'
p521
I474
sS'18953'
p522
I374
sS'18950'
p523
I444
sS'18951'
p524
I297
sS'18956'
p525
I467
sS'18957'
p526
I418
sS'18954'
p527
I390
sS'18955'
p528
I367
sS'21404'
p529
I221
sS'21405'
p530
I250
sS'18958'
p531
I445
sS'18959'
p532
I379
sS'21400'
p533
I261
sS'21401'
p534
I271
sS'21402'
p535
I183
sS'21403'
p536
I228
sS'09205'
p537
I63
sS'09206'
p538
I45
sS'04367'
p539
I132
sS'09200'
p540
I47
sS'09201'
p541
I49
sS'09202'
p542
I49
sS'09203'
p543
I46
sS'09209'
p544
I49
sS'14189'
p545
I46
sS'01256'
p546
I59
sS'01255'
p547
I138
sS'01254'
p548
I330
sS'01253'
p549
I371
sS'01252'
p550
I312
sS'01251'
p551
I358
sS'01250'
p552
I88
sS'14181'
p553
I279
sS'14180'
p554
I2
sS'14183'
p555
I60
sS'14182'
p556
I90
sS'14185'
p557
I1
sS'01259'
p558
I176
sS'01258'
p559
I357
sS'09060'
p560
I31
sS'09061'
p561
I62
sS'09062'
p562
I75
sS'09063'
p563
I50
sS'09064'
p564
I36
sS'09065'
p565
I75
sS'09066'
p566
I91
sS'09067'
p567
I114
sS'09068'
p568
I46
sS'16379'
p569
I117
sS'11137'
p570
I24
sS'11136'
p571
I23
sS'11135'
p572
I25
sS'11134'
p573
I160
sS'18372'
p574
I0
sS'18373'
p575
I258
sS'11131'
p576
I37
sS'11130'
p577
I36
sS'18378'
p578
I488
sS'11138'
p579
I19
sS'16377'
p580
I116
sS'16370'
p581
I114
sS'16372'
p582
I115
sS'19441'
p583
I365
sS'31008'
p584
I21
sS'35058'
p585
I67
sS'13868'
p586
I192
sS'13867'
p587
I218
sS'13866'
p588
I184
sS'13865'
p589
I235
sS'13864'
p590
I195
sS'13863'
p591
I146
sS'13862'
p592
I194
sS'13861'
p593
I411
sS'13860'
p594
I354
sS'08542'
p595
I352
sS'08543'
p596
I366
sS'23248'
p597
I203
sS'23249'
p598
I184
sS'23244'
p599
I134
sS'23245'
p600
I138
sS'23246'
p601
I128
sS'23247'
p602
I195
sS'23240'
p603
I132
sS'23241'
p604
I181
sS'23242'
p605
I189
sS'23243'
p606
I170
sS'27008'
p607
I53
sS'27009'
p608
I53
sS'27007'
p609
I49
sS'27002'
p610
I32
sS'27000'
p611
I27
sS'27001'
p612
I39
sS'16216'
p613
I47
sS'16215'
p614
I44
sS'16214'
p615
I47
sS'16213'
p616
I84
sS'16212'
p617
I98
sS'16211'
p618
I118
sS'16210'
p619
I54
sS'19249'
p620
I521
sS'19248'
p621
I563
sS'16219'
p622
I30
sS'12059'
p623
I509
sS'12058'
p624
I387
sS'06379'
p625
I103
sS'06373'
p626
I71
sS'06375'
p627
I65
sS'06374'
p628
I79
sS'06377'
p629
I71
sS'16275'
p630
I115
sS'16274'
p631
I74
sS'01068'
p632
I136
sS'01069'
p633
I529
sS'17164'
p634
I120
sS'17165'
p635
I158
sS'17162'
p636
I127
sS'17163'
p637
I167
sS'17160'
p638
I99
sS'17161'
p639
I131
sS'01060'
p640
I63
sS'01061'
p641
I126
sS'05093'
p642
I262
sS'17168'
p643
I109
sS'01067'
p644
I136
sS'05092'
p645
I277
sS'05095'
p646
I232
sS'05094'
p647
I232
sS'05097'
p648
I218
sS'03814'
p649
I502
sS'05096'
p650
I121
sS'08057'
p651
I375
sS'08506'
p652
I357
sS'11836'
p653
I132
sS'11837'
p654
I63
sS'11834'
p655
I105
sS'11835'
p656
I100
sS'11832'
p657
I78
sS'11833'
p658
I86
sS'11830'
p659
I198
sS'11831'
p660
I87
sS'13098'
p661
I205
sS'13096'
p662
I265
sS'13097'
p663
I161
sS'13095'
p664
I274
sS'44203'
p665
I287
sS'06393'
p666
I82
sS'04133'
p667
I631
sS'04135'
p668
I449
sS'06391'
p669
I66
sS'23507'
p670
I204
sS'23506'
p671
I225
sS'23051'
p672
I129
sS'23502'
p673
I259
sS'05147'
p674
I305
sS'15139'
p675
I87
sS'15138'
p676
I95
sS'23501'
p677
I247
sS'05146'
p678
I371
sS'15133'
p679
I116
sS'15132'
p680
I90
sS'15131'
p681
I108
sS'15130'
p682
I134
sS'15137'
p683
I97
sS'15136'
p684
I84
sS'15135'
p685
I146
sS'15134'
p686
I96
sS'42200'
p687
I371
sS'28091'
p688
I478
sS'28092'
p689
I500
sS'28093'
p690
I499
sS'28094'
p691
I530
sS'28095'
p692
I537
sS'28096'
p693
I521
sS'28097'
p694
I528
sS'28098'
p695
I514
sS'04542'
p696
I900
sS'06142'
p697
I237
sS'06143'
p698
I48
sS'09315'
p699
I66
sS'06146'
p700
I71
sS'06147'
p701
I61
sS'06145'
p702
I56
sS'09312'
p703
I25
sS'06149'
p704
I100
sS'04545'
p705
I884
sS'04546'
p706
I884
sS'11168'
p707
I96
sS'14409'
p708
I217
sS'11165'
p709
I23
sS'14411'
p710
I0
sS'14406'
p711
I42
sS'11167'
p712
I86
sS'13650'
p713
I220
sS'43311'
p714
I62
sS'43312'
p715
I37
sS'11249'
p716
I101
sS'11248'
p717
I106
sS'11245'
p718
I32
sS'11244'
p719
I43
sS'11247'
p720
I31
sS'11246'
p721
I61
sS'11241'
p722
I27
sS'11240'
p723
I31
sS'11243'
p724
I29
sS'11242'
p725
I29
sS'16028'
p726
I127
sS'16029'
p727
I84
sS'19038'
p728
I400
sS'19039'
p729
I431
sS'16020'
p730
I136
sS'16021'
p731
I83
sS'16022'
p732
I343
sS'16023'
p733
I129
sS'16024'
p734
I339
sS'16025'
p735
I118
sS'16026'
p736
I114
sS'19031'
p737
I506
sS'17379'
p738
I225
sS'17378'
p739
I272
sS'17373'
p740
I105
sS'17372'
p741
I161
sS'17371'
p742
I193
sS'17370'
p743
I192
sS'17377'
p744
I68
sS'17376'
p745
I125
sS'17375'
p746
I72
sS'17374'
p747
I144
sS'11799'
p748
I26
sS'11798'
p749
I56
sS'11793'
p750
I29
sS'11792'
p751
I28
sS'11791'
p752
I30
sS'11790'
p753
I28
sS'11797'
p754
I28
sS'11796'
p755
I66
sS'11795'
p756
I31
sS'11794'
p757
I32
sS'07965'
p758
I217
sS'18400'
p759
I391
sS'18401'
p760
I531
sS'11935'
p761
I101
sS'11934'
p762
I113
sS'42196'
p763
I443
sS'42190'
p764
I407
sS'42193'
p765
I84
sS'42192'
p766
I115
sS'17081'
p767
I253
sS'17080'
p768
I240
sS'17083'
p769
I193
sS'17082'
p770
I160
sS'17085'
p771
I357
sS'17084'
p772
I272
sS'17087'
p773
I285
sS'17086'
p774
I154
sS'17089'
p775
I231
sS'17088'
p776
I144
sS'11930'
p777
I113
sS'14237'
p778
I6
sS'14236'
p779
I360
sS'14235'
p780
I4
sS'14234'
p781
I45
sS'14233'
p782
I49
sS'22997'
p783
I90
sS'18979'
p784
I396
sS'21468'
p785
I398
sS'22994'
p786
I103
sS'22993'
p787
I103
sS'22992'
p788
I109
sS'22991'
p789
I110
sS'22990'
p790
I103
sS'21462'
p791
I257
sS'18971'
p792
I266
sS'18972'
p793
I408
sS'21461'
p794
I220
sS'21466'
p795
I178
sS'21467'
p796
I215
sS'22999'
p797
I136
sS'22998'
p798
I358
sS'09262'
p799
I60
sS'09263'
p800
I70
sS'09260'
p801
I127
sS'09261'
p802
I140
sS'03901'
p803
I125
sS'03900'
p804
I65
sS'09264'
p805
I274
sS'09265'
p806
I127
sS'09268'
p807
I60
sS'09269'
p808
I52
sS'08683'
p809
I387
sS'08682'
p810
I390
sS'08681'
p811
I407
sS'08680'
p812
I368
sS'08687'
p813
I361
sS'08686'
p814
I361
sS'08685'
p815
I376
sS'08684'
p816
I371
sS'08689'
p817
I386
sS'08688'
p818
I366
sS'03303'
p819
I74
sS'08130'
p820
I368
sS'03301'
p821
I31
sS'08132'
p822
I360
sS'14239'
p823
I68
sS'14238'
p824
I63
sS'17322'
p825
I243
sS'17323'
p826
I311
sS'09088'
p827
I73
sS'09089'
p828
I74
sS'09086'
p829
I101
sS'09087'
p830
I282
sS'09084'
p831
I56
sS'09085'
p832
I283
sS'09082'
p833
I178
sS'09083'
p834
I63
sS'09081'
p835
I159
sS'17452'
p836
I459
sS'17101'
p837
I216
sS'08351'
p838
I407
sS'08353'
p839
I382
sS'08352'
p840
I372
sS'08355'
p841
I382
sS'08354'
p842
I379
sS'14303'
p843
I52
sS'17451'
p844
I554
sS'18358'
p845
I362
sS'14305'
p846
I37
sS'18354'
p847
I274
sS'18355'
p848
I360
sS'18356'
p849
I372
sS'18357'
p850
I333
sS'18350'
p851
I279
sS'18351'
p852
I263
sS'18352'
p853
I196
sS'18353'
p854
I293
sS'20330'
p855
I72
sS'17455'
p856
I204
sS'31029'
p857
I166
sS'31028'
p858
I81
sS'31023'
p859
I182
sS'31022'
p860
I242
sS'31021'
p861
I84
sS'31020'
p862
I31
sS'31027'
p863
I162
sS'31026'
p864
I119
sS'31025'
p865
I161
sS'31024'
p866
I209
sS'28285'
p867
I299
sS'28284'
p868
I416
sS'28287'
p869
I286
sS'28286'
p870
I326
sS'28281'
p871
I449
sS'28280'
p872
I507
sS'28283'
p873
I418
sS'28282'
p874
I416
sS'28289'
p875
I489
sS'28288'
p876
I318
sS'23228'
p877
I285
sS'23229'
p878
I248
sS'27021'
p879
I40
sS'27022'
p880
I20
sS'27023'
p881
I39
sS'23222'
p882
I300
sS'23223'
p883
I281
sS'23220'
p884
I240
sS'23221'
p885
I292
sS'23226'
p886
I222
sS'23227'
p887
I271
sS'23224'
p888
I232
sS'23225'
p889
I238
sS'08221'
p890
I369
sS'08220'
p891
I388
sS'35074'
p892
I42
sS'35075'
p893
I111
sS'35070'
p894
I56
sS'35071'
p895
I142
sS'35072'
p896
I116
sS'35073'
p897
I72
sS'35078'
p898
I1
sS'35079'
p899
I251
sS'13598'
p900
I210
sS'19263'
p901
I87
sS'19260'
p902
I169
sS'11579'
p903
I36
sS'19265'
p904
I173
sS'19269'
p905
I373
sS'19268'
p906
I540
sS'06357'
p907
I63
sS'06355'
p908
I65
sS'06354'
p909
I36
sS'06353'
p910
I97
sS'06351'
p911
I87
sS'12078'
p912
I659
sS'12077'
p913
I576
sS'06429'
p914
I52
sS'06428'
p915
I30
sS'06359'
p916
I55
sS'06358'
p917
I79
sS'07024'
p918
I223
sS'07025'
p919
I223
sS'11476'
p920
I16
sS'11477'
p921
I17
sS'11474'
p922
I25
sS'11475'
p923
I18
sS'11473'
p924
I20
sS'11471'
p925
I13
sS'43100'
p926
I464
sS'11478'
p927
I15
sS'11479'
p928
I17
sS'17148'
p929
I179
sS'17149'
p930
I146
sS'17418'
p931
I157
sS'17419'
p932
I195
sS'17144'
p933
I114
sS'17145'
p934
I150
sS'17146'
p935
I161
sS'17147'
p936
I259
sS'17140'
p937
I109
sS'17141'
p938
I188
sS'17142'
p939
I197
sS'17143'
p940
I172
sS'04058'
p941
I884
sS'20109'
p942
I384
sS'20106'
p943
I128
sS'20105'
p944
I367
sS'21499'
p945
I224
sS'21498'
p946
I287
sS'04114'
p947
I240
sS'21361'
p948
I376
sS'21360'
p949
I304
sS'21363'
p950
I285
sS'07924'
p951
I186
sS'21497'
p952
I287
sS'21496'
p953
I323
sS'11814'
p954
I78
sS'11815'
p955
I98
sS'11816'
p956
I38
sS'11817'
p957
I48
sS'11810'
p958
I50
sS'11811'
p959
I84
sS'11812'
p960
I53
sS'11813'
p961
I69
sS'11818'
p962
I45
sS'11819'
p963
I40
sS'15151'
p964
I119
sS'15150'
p965
I242
sS'15153'
p966
I101
sS'15152'
p967
I100
sS'15155'
p968
I105
sS'15154'
p969
I112
sS'15157'
p970
I86
sS'15156'
p971
I189
sS'15159'
p972
I148
sS'15158'
p973
I202
sS'12167'
p974
I245
sS'23136'
p975
I285
sS'23039'
p976
I140
sS'28079'
p977
I499
sS'23037'
p978
I143
sS'23036'
p979
I142
sS'23035'
p980
I181
sS'23034'
p981
I145
sS'23033'
p982
I160
sS'23032'
p983
I124
sS'23031'
p984
I174
sS'23030'
p985
I133
sS'06168'
p986
I11
sS'06169'
p987
I12
sS'07977'
p988
I141
sS'07970'
p989
I325
sS'06164'
p990
I29
sS'06165'
p991
I105
sS'06166'
p992
I147
sS'06167'
p993
I186
sS'23130'
p994
I227
sS'23131'
p995
I204
sS'12169'
p996
I586
sS'11054'
p997
I15
sS'14174'
p998
I21
sS'43373'
p999
I66
sS'14177'
p1000
I85
sS'43378'
p1001
I541
sS'43379'
p1002
I165
sS'19014'
p1003
I371
sS'16064'
p1004
I77
sS'11269'
p1005
I56
sS'11268'
p1006
I296
sS'19010'
p1007
I404
sS'16065'
p1008
I83
sS'11263'
p1009
I26
sS'11261'
p1010
I28
sS'11260'
p1011
I22
sS'11267'
p1012
I39
sS'11266'
p1013
I22
sS'11265'
p1014
I22
sS'11264'
p1015
I25
sS'16061'
p1016
I117
sS'16062'
p1017
I336
sS'16063'
p1018
I116
sS'16068'
p1019
I117
sS'16069'
p1020
I352
sS'11061'
p1021
I28
sS'11060'
p1022
I39
sS'11063'
p1023
I39
sS'43597'
p1024
I280
sS'11062'
p1025
I40
sS'14545'
p1026
I1
sS'43598'
p1027
I688
sS'14544'
p1028
I1
sS'17311'
p1029
I219
sS'17310'
p1030
I203
sS'17313'
p1031
I192
sS'17312'
p1032
I146
sS'17315'
p1033
I305
sS'17314'
p1034
I237
sS'17317'
p1035
I234
sS'17316'
p1036
I147
sS'17319'
p1037
I296
sS'17318'
p1038
I256
sS'08032'
p1039
I384
sS'16402'
p1040
I121
sS'16403'
p1041
I89
sS'16409'
p1042
I172
sS'16248'
p1043
I58
sS'16249'
p1044
I62
sS'21440'
p1045
I309
sS'16244'
p1046
I33
sS'21442'
p1047
I157
sS'05180'
p1048
I162
sS'05187'
p1049
I108
sS'21445'
p1050
I188
sS'05185'
p1051
I114
sS'05184'
p1052
I206
sS'05188'
p1053
I173
sS'05631'
p1054
I141
sS'05630'
p1055
I103
sS'21338'
p1056
I177
sS'05632'
p1057
I152
sS'16247'
p1058
I53
sS'22979'
p1059
I115
sS'22978'
p1060
I240
sS'22975'
p1061
I261
sS'16240'
p1062
I49
sS'22977'
p1063
I135
sS'22976'
p1064
I111
sS'22971'
p1065
I157
sS'22970'
p1066
I149
sS'22973'
p1067
I250
sS'16241'
p1068
I45
sS'09248'
p1069
I103
sS'32002'
p1070
I359
sS'03925'
p1071
I65
sS'09240'
p1072
I54
sS'09241'
p1073
I74
sS'09242'
p1074
I96
sS'16243'
p1075
I41
sS'09244'
p1076
I325
sS'09245'
p1077
I133
sS'09530'
p1078
I48
sS'09531'
p1079
I50
sS'44018'
p1080
I279
sS'08113'
p1081
I53
sS'08116'
p1082
I365
sS'14149'
p1083
I20
sS'14148'
p1084
I42
sS'14145'
p1085
I40
sS'14144'
p1086
I41
sS'14147'
p1087
I41
sS'14146'
p1088
I1
sS'14140'
p1089
I82
sS'14143'
p1090
I0
sS'14142'
p1091
I43
sS'01298'
p1092
I139
sS'06320'
p1093
I25
sS'01293'
p1094
I97
sS'01292'
p1095
I67
sS'01291'
p1096
I107
sS'01290'
p1097
I62
sS'01297'
p1098
I95
sS'01295'
p1099
I78
sS'01294'
p1100
I106
sS'11182'
p1101
I131
sS'11180'
p1102
I98
sS'14368'
p1103
I345
sS'18338'
p1104
I299
sS'11181'
p1105
I94
sS'18332'
p1106
I518
sS'18333'
p1107
I501
sS'06329'
p1108
I42
sS'18336'
p1109
I527
sS'18337'
p1110
I551
sS'14367'
p1111
I1
sS'14366'
p1112
I315
sS'20310'
p1113
I138
sS'04588'
p1114
I884
sS'04589'
p1115
I902
sS'20315'
p1116
I364
sS'20314'
p1117
I365
sS'04584'
p1118
I884
sS'04585'
p1119
I727
sS'04586'
p1120
I884
sS'04587'
p1121
I884
sS'04581'
p1122
I884
sS'04582'
p1123
I884
sS'04583'
p1124
I884
sS'08376'
p1125
I376
sS'08370'
p1126
I381
sS'23200'
p1127
I277
sS'23201'
p1128
I244
sS'23202'
p1129
I253
sS'27042'
p1130
I79
sS'27043'
p1131
I70
sS'27046'
p1132
I245
sS'27047'
p1133
I38
sS'27044'
p1134
I41
sS'27045'
p1135
I42
sS'27048'
p1136
I95
sS'27049'
p1137
I211
sS'35012'
p1138
I271
sS'35013'
p1139
I117
sS'35010'
p1140
I291
sS'35011'
p1141
I111
sS'35016'
p1142
I82
sS'35017'
p1143
I44
sS'35014'
p1144
I900
sS'35015'
p1145
I52
sS'09111'
p1146
I32
sS'19209'
p1147
I105
sS'19208'
p1148
I111
sS'19201'
p1149
I130
sS'19203'
p1150
I114
sS'19202'
p1151
I377
sS'19205'
p1152
I112
sS'19204'
p1153
I107
sS'19207'
p1154
I113
sS'19206'
p1155
I379
sS'06403'
p1156
I51
sS'06402'
p1157
I46
sS'06401'
p1158
I35
sS'06400'
p1159
I41
sS'06406'
p1160
I75
sS'06405'
p1161
I41
sS'06404'
p1162
I63
sS'06409'
p1163
I34
sS'06408'
p1164
I49
sS'22401'
p1165
I90
sS'22402'
p1166
I113
sS'43299'
p1167
I151
sS'43297'
p1168
I615
sS'09114'
p1169
I30
sS'02050'
p1170
I288
sS'43125'
p1171
I47
sS'23357'
p1172
I121
sS'02052'
p1173
I56
sS'43128'
p1174
I224
sS'02053'
p1175
I18
sS'11458'
p1176
I23
sS'11459'
p1177
I19
sS'11454'
p1178
I125
sS'02054'
p1179
I23
sS'11457'
p1180
I23
sS'11450'
p1181
I147
sS'11451'
p1182
I141
sS'11452'
p1183
I122
sS'11453'
p1184
I81
sS'17434'
p1185
I505
sS'17435'
p1186
I107
sS'17436'
p1187
I182
sS'17437'
p1188
I198
sS'17430'
p1189
I159
sS'17431'
p1190
I503
sS'17432'
p1191
I540
sS'17433'
p1192
I444
sS'17438'
p1193
I199
sS'17439'
p1194
I190
sS'13324'
p1195
I158
sS'13325'
p1196
I135
sS'17128'
p1197
I148
sS'17129'
p1198
I225
sS'13320'
p1199
I151
sS'13321'
p1200
I112
sS'13322'
p1201
I165
sS'13323'
p1202
I99
sS'17122'
p1203
I132
sS'17123'
p1204
I236
sS'17120'
p1205
I199
sS'17121'
p1206
I170
sS'17126'
p1207
I201
sS'17127'
p1208
I164
sS'17124'
p1209
I183
sS'17125'
p1210
I105
sS'11496'
p1211
I115
sS'11497'
p1212
I77
sS'20124'
p1213
I352
sS'20125'
p1214
I149
sS'09185'
p1215
I33
sS'09184'
p1216
I36
sS'09183'
p1217
I28
sS'05039'
p1218
I114
sS'09181'
p1219
I34
sS'17456'
p1220
I196
sS'21285'
p1221
I240
sS'20129'
p1222
I361
sS'21288'
p1223
I273
sS'21289'
p1224
I243
sS'05216'
p1225
I173
sS'05215'
p1226
I113
sS'08588'
p1227
I410
sS'08589'
p1228
I368
sS'20089'
p1229
I101
sS'08580'
p1230
I379
sS'08582'
p1231
I366
sS'20088'
p1232
I357
sS'08584'
p1233
I381
sS'08586'
p1234
I383
sS'08587'
p1235
I375
sS'11872'
p1236
I93
sS'20087'
p1237
I198
sS'11870'
p1238
I27
sS'11871'
p1239
I111
sS'11876'
p1240
I76
sS'11877'
p1241
I100
sS'11874'
p1242
I35
sS'11875'
p1243
I92
sS'18527'
p1244
I400
sS'11878'
p1245
I142
sS'11879'
p1246
I24
sS'18522'
p1247
I497
sS'04613'
p1248
I533
sS'15179'
p1249
I117
sS'15178'
p1250
I275
sS'15177'
p1251
I137
sS'20083'
p1252
I361
sS'15175'
p1253
I92
sS'15174'
p1254
I99
sS'15173'
p1255
I216
sS'15172'
p1256
I69
sS'15171'
p1257
I81
sS'20082'
p1258
I354
sS'20081'
p1259
I364
sS'20080'
p1260
I340
sS'21427'
p1261
I175
sS'19404'
p1262
I418
sS'01174'
p1263
I50
sS'01175'
p1264
I42
sS'01172'
p1265
I48
sS'01173'
p1266
I382
sS'01171'
p1267
I147
sS'01178'
p1268
I181
sS'01179'
p1269
I136
sS'03118'
p1270
I60
sS'03119'
p1271
I57
sS'03116'
p1272
I41
sS'03117'
p1273
I37
sS'03114'
p1274
I50
sS'03115'
p1275
I51
sS'03112'
p1276
I52
sS'28054'
p1277
I530
sS'28055'
p1278
I518
sS'28056'
p1279
I498
sS'28057'
p1280
I500
sS'28050'
p1281
I494
sS'28051'
p1282
I499
sS'28052'
p1283
I508
sS'28053'
p1284
I537
sS'28058'
p1285
I517
sS'28059'
p1286
I519
sS'13928'
p1287
I343
sS'13929'
p1288
I201
sS'13926'
p1289
I274
sS'13927'
p1290
I308
sS'13924'
p1291
I262
sS'13925'
p1292
I316
sS'13922'
p1293
I331
sS'13923'
p1294
I249
sS'13920'
p1295
I246
sS'13921'
p1296
I273
sS'08014'
p1297
I389
sS'35197'
p1298
I48
sS'35196'
p1299
I47
sS'35195'
p1300
I25
sS'11201'
p1301
I29
sS'11200'
p1302
I47
sS'11203'
p1303
I32
sS'11202'
p1304
I22
sS'11205'
p1305
I15
sS'11204'
p1306
I23
sS'11207'
p1307
I45
sS'11206'
p1308
I12
sS'11209'
p1309
I25
sS'11208'
p1310
I33
sS'43352'
p1311
I72
sS'43355'
p1312
I231
sS'35192'
p1313
I68
sS'19070'
p1314
I391
sS'19071'
p1315
I540
sS'19076'
p1316
I387
sS'19077'
p1317
I472
sS'19074'
p1318
I382
sS'19075'
p1319
I462
sS'19078'
p1320
I642
sS'19079'
p1321
I522
sS'23415'
p1322
I105
sS'23414'
p1323
I179
sS'23417'
p1324
I114
sS'23416'
p1325
I167
sS'23411'
p1326
I142
sS'23410'
p1327
I194
sS'23413'
p1328
I154
sS'23412'
p1329
I226
sS'23419'
p1330
I560
sS'23418'
p1331
I128
sS'21425'
p1332
I149
sS'23636'
p1333
I129
sS'16163'
p1334
I55
sS'10916'
p1335
I125
sS'10917'
p1336
I126
sS'10914'
p1337
I200
sS'10915'
p1338
I166
sS'10912'
p1339
I172
sS'10913'
p1340
I161
sS'10910'
p1341
I164
sS'17338'
p1342
I172
sS'17337'
p1343
I122
sS'17336'
p1344
I174
sS'17335'
p1345
I177
sS'17334'
p1346
I119
sS'17333'
p1347
I193
sS'17332'
p1348
I171
sS'17331'
p1349
I238
sS'17330'
p1350
I223
sS'16166'
p1351
I63
sS'16428'
p1352
I470
sS'16429'
p1353
I270
sS'16424'
p1354
I57
sS'16425'
p1355
I90
sS'16426'
p1356
I144
sS'16427'
p1357
I76
sS'16420'
p1358
I328
sS'16422'
p1359
I321
sS'11489'
p1360
I40
sS'21319'
p1361
I271
sS'21314'
p1362
I142
sS'21315'
p1363
I170
sS'21316'
p1364
I167
sS'21310'
p1365
I165
sS'21311'
p1366
I468
sS'21313'
p1367
I190
sS'09514'
p1368
I46
sS'09515'
p1369
I56
sS'22959'
p1370
I379
sS'09517'
p1371
I48
sS'09510'
p1372
I50
sS'09511'
p1373
I71
sS'09512'
p1374
I62
sS'09513'
p1375
I50
sS'22953'
p1376
I222
sS'22952'
p1377
I93
sS'22951'
p1378
I71
sS'22950'
p1379
I190
sS'09518'
p1380
I52
sS'09519'
p1381
I48
sS'22955'
p1382
I214
sS'22954'
p1383
I197
sS'03949'
p1384
I66
sS'03948'
p1385
I520
sS'03941'
p1386
I508
sS'03940'
p1387
I126
sS'03943'
p1388
I509
sS'03942'
p1389
I68
sS'03945'
p1390
I520
sS'03944'
p1391
I69
sS'03947'
p1392
I128
sS'03946'
p1393
I68
sS'21426'
p1394
I175
sS'18935'
p1395
I298
sS'21424'
p1396
I384
sS'11998'
p1397
I22
sS'14169'
p1398
I75
sS'14168'
p1399
I372
sS'12643'
p1400
I710
sS'11991'
p1401
I98
sS'14162'
p1402
I22
sS'11993'
p1403
I31
sS'14160'
p1404
I84
sS'14167'
p1405
I0
sS'11994'
p1406
I30
sS'14165'
p1407
I18
sS'11996'
p1408
I34
sS'21420'
p1409
I144
sS'18933'
p1410
I309
sS'11191'
p1411
I90
sS'11190'
p1412
I21
sS'18312'
p1413
I260
sS'11192'
p1414
I97
sS'11195'
p1415
I139
sS'11197'
p1416
I44
sS'11196'
p1417
I132
sS'11199'
p1418
I47
sS'11198'
p1419
I34
sS'08173'
p1420
I53
sS'08172'
p1421
I369
sS'08177'
p1422
I363
sS'04706'
p1423
I169
sS'04707'
p1424
I878
sS'04704'
p1425
I399
sS'04705'
p1426
I131
sS'04702'
p1427
I884
sS'04703'
p1428
I464
sS'04700'
p1429
I884
sS'04701'
p1430
I884
sS'04708'
p1431
I361
sS'04709'
p1432
I158
sS'08390'
p1433
I299
sS'08393'
p1434
I311
sS'27068'
p1435
I119
sS'27060'
p1436
I50
sS'27061'
p1437
I46
sS'27062'
p1438
I52
sS'27063'
p1439
I30
sS'27064'
p1440
I292
sS'27065'
p1441
I119
sS'27066'
p1442
I503
sS'27067'
p1443
I29
sS'11224'
p1444
I46
sS'35038'
p1445
I44
sS'35039'
p1446
I63
sS'35030'
p1447
I55
sS'35034'
p1448
I97
sS'19199'
p1449
I115
sS'19198'
p1450
I369
sS'19191'
p1451
I107
sS'19190'
p1452
I111
sS'19193'
p1453
I108
sS'19440'
p1454
I420
sS'19195'
p1455
I121
sS'19194'
p1456
I376
sS'19445'
p1457
I253
sS'19444'
p1458
I318
sS'06468'
p1459
I28
sS'06399'
p1460
I57
sS'06398'
p1461
I95
sS'06461'
p1462
I56
sS'06392'
p1463
I86
sS'06463'
p1464
I47
sS'06462'
p1465
I49
sS'06465'
p1466
I28
sS'06396'
p1467
I53
sS'06395'
p1468
I47
sS'06466'
p1469
I30
sS'04693'
p1470
I537
sS'04694'
p1471
I533
sS'19227'
p1472
I433
sS'19226'
p1473
I397
sS'19225'
p1474
I84
sS'11439'
p1475
I19
sS'19223'
p1476
I89
sS'19222'
p1477
I383
sS'19221'
p1478
I96
sS'19220'
p1479
I363
sS'11432'
p1480
I271
sS'11430'
p1481
I18
sS'11431'
p1482
I17
sS'11436'
p1483
I30
sS'11437'
p1484
I82
sS'19228'
p1485
I415
sS'17100'
p1486
I203
sS'17453'
p1487
I219
sS'17450'
p1488
I487
sS'17103'
p1489
I150
sS'17104'
p1490
I177
sS'17105'
p1491
I284
sS'17106'
p1492
I217
sS'17107'
p1493
I114
sS'17108'
p1494
I226
sS'17109'
p1495
I175
sS'17458'
p1496
I175
sS'17459'
p1497
I187
sS'13342'
p1498
I309
sS'13343'
p1499
I212
sS'13340'
p1500
I284
sS'13341'
p1501
I85
sS'13346'
p1502
I198
sS'13347'
p1503
I251
sS'13344'
p1504
I406
sS'13345'
p1505
I449
sS'13348'
p1506
I250
sS'13349'
p1507
I134
sS'05080'
p1508
I120
sS'05087'
p1509
I247
sS'20142'
p1510
I367
sS'20143'
p1511
I101
sS'20140'
p1512
I338
sS'20141'
p1513
I127
sS'09165'
p1514
I277
sS'09164'
p1515
I66
sS'09167'
p1516
I55
sS'09161'
p1517
I21
sS'09160'
p1518
I25
sS'09163'
p1519
I317
sS'02051'
p1520
I237
sS'12166'
p1521
I595
sS'12160'
p1522
I506
sS'12163'
p1523
I446
sS'05282'
p1524
I462
sS'05284'
p1525
I169
sS'05285'
p1526
I138
sS'05286'
p1527
I67
sS'06472'
p1528
I33
sS'10109'
p1529
I857
sS'10105'
p1530
I655
sS'10104'
p1531
I148
sS'10107'
p1532
I151
sS'10106'
p1533
I100
sS'10101'
p1534
I166
sS'10100'
p1535
I234
sS'10103'
p1536
I118
sS'10102'
p1537
I212
sS'05158'
p1538
I134
sS'06471'
p1539
I31
sS'12094'
p1540
I363
sS'06476'
p1541
I3
sS'11858'
p1542
I19
sS'11859'
p1543
I25
sS'23511'
p1544
I203
sS'11850'
p1545
I17
sS'11851'
p1546
I30
sS'11852'
p1547
I68
sS'11853'
p1548
I141
sS'11854'
p1549
I23
sS'11855'
p1550
I19
sS'11856'
p1551
I34
sS'11857'
p1552
I20
sS'23045'
p1553
I150
sS'23514'
p1554
I172
sS'23515'
p1555
I173
sS'23040'
p1556
I176
sS'23041'
p1557
I182
sS'05154'
p1558
I133
sS'05155'
p1559
I133
sS'01159'
p1560
I264
sS'01154'
p1561
I362
sS'01155'
p1562
I358
sS'01156'
p1563
I452
sS'01157'
p1564
I364
sS'01151'
p1565
I34
sS'01152'
p1566
I56
sS'01153'
p1567
I134
sS'03134'
p1568
I71
sS'03135'
p1569
I74
sS'03136'
p1570
I69
sS'03137'
p1571
I70
sS'03130'
p1572
I65
sS'03131'
p1573
I65
sS'03132'
p1574
I42
sS'03133'
p1575
I44
sS'03139'
p1576
I100
sS'14047'
p1577
I448
sS'05335'
p1578
I215
sS'28032'
p1579
I489
sS'28033'
p1580
I558
sS'28030'
p1581
I478
sS'28031'
p1582
I478
sS'28036'
p1583
I498
sS'28037'
p1584
I469
sS'28034'
p1585
I491
sS'28035'
p1586
I502
sS'28038'
p1587
I453
sS'28039'
p1588
I451
sS'19704'
p1589
I345
sS'13904'
p1590
I165
sS'13905'
p1591
I218
sS'13906'
p1592
I284
sS'13907'
p1593
I228
sS'13900'
p1594
I201
sS'13901'
p1595
I173
sS'13902'
p1596
I225
sS'35190'
p1597
I345
sS'13908'
p1598
I294
sS'13909'
p1599
I228
sS'35199'
p1600
I91
sS'35198'
p1601
I42
sS'18105'
p1602
I331
sS'18104'
p1603
I418
sS'18107'
p1604
I436
sS'18106'
p1605
I311
sS'18101'
p1606
I371
sS'18103'
p1607
I339
sS'18102'
p1608
I356
sS'19705'
p1609
I386
sS'18108'
p1610
I318
sS'08138'
p1611
I387
sS'28356'
p1612
I474
sS'28355'
p1613
I456
sS'28354'
p1614
I257
sS'14475'
p1615
I39
sS'28352'
p1616
I423
sS'07254'
p1617
I226
sS'28351'
p1618
I406
sS'11228'
p1619
I25
sS'11226'
p1620
I73
sS'11225'
p1621
I50
sS'11116'
p1622
I13
sS'11223'
p1623
I60
sS'11222'
p1624
I64
sS'11221'
p1625
I56
sS'11220'
p1626
I20
sS'19058'
p1627
I501
sS'19059'
p1628
I462
sS'19050'
p1629
I362
sS'19051'
p1630
I387
sS'19052'
p1631
I380
sS'19053'
p1632
I392
sS'19056'
p1633
I472
sS'19057'
p1634
I519
sS'23433'
p1635
I217
sS'23432'
p1636
I188
sS'23431'
p1637
I146
sS'23430'
p1638
I197
sS'23437'
p1639
I318
sS'23436'
p1640
I685
sS'23435'
p1641
I731
sS'23434'
p1642
I150
sS'23439'
p1643
I200
sS'23438'
p1644
I303
sS'19709'
p1645
I369
sS'06076'
p1646
I170
sS'06075'
p1647
I213
sS'06072'
p1648
I66
sS'06070'
p1649
I66
sS'06071'
p1650
I63
sS'10938'
p1651
I130
sS'10939'
p1652
I173
sS'10934'
p1653
I125
sS'10935'
p1654
I191
sS'10936'
p1655
I177
sS'10937'
p1656
I181
sS'10931'
p1657
I132
sS'10932'
p1658
I125
sS'10933'
p1659
I139
sS'21158'
p1660
I219
sS'21159'
p1661
I183
sS'21156'
p1662
I151
sS'21157'
p1663
I219
sS'21154'
p1664
I157
sS'21155'
p1665
I147
sS'21152'
p1666
I146
sS'21153'
p1667
I146
sS'21150'
p1668
I155
sS'21151'
p1669
I155
sS'05671'
p1670
I149
sS'42284'
p1671
I421
sS'05673'
p1672
I443
sS'05672'
p1673
I176
sS'42281'
p1674
I332
sS'05674'
p1675
I440
sS'05677'
p1676
I229
sS'05676'
p1677
I187
sS'05679'
p1678
I146
sS'05678'
p1679
I106
sS'21488'
p1680
I294
sS'22931'
p1681
I67
sS'22930'
p1682
I80
sS'21378'
p1683
I61
sS'21379'
p1684
I20
sS'22937'
p1685
I69
sS'22939'
p1686
I106
sS'22938'
p1687
I67
sS'21376'
p1688
I81
sS'21377'
p1689
I122
sS'18218'
p1690
I391
sS'03967'
p1691
I501
sS'03966'
p1692
I132
sS'03965'
p1693
I92
sS'19708'
p1694
I366
sS'03963'
p1695
I63
sS'03961'
p1696
I66
sS'03960'
p1697
I66
sS'03968'
p1698
I64
sS'13488'
p1699
I145
sS'13481'
p1700
I198
sS'13483'
p1701
I206
sS'13482'
p1702
I144
sS'13485'
p1703
I198
sS'13484'
p1704
I177
sS'13487'
p1705
I156
sS'13486'
p1706
I151
sS'14101'
p1707
I85
sS'18481'
p1708
I397
sS'14103'
p1709
I85
sS'14102'
p1710
I88
sS'14105'
p1711
I83
sS'14107'
p1712
I80
sS'14106'
p1713
I82
sS'14109'
p1714
I74
sS'14108'
p1715
I86
sS'13156'
p1716
I191
sS'13150'
p1717
I295
sS'13158'
p1718
I172
sS'36053'
p1719
I156
sS'36052'
p1720
I368
sS'36051'
p1721
I394
sS'36050'
p1722
I273
sS'36057'
p1723
I206
sS'36056'
p1724
I216
sS'36055'
p1725
I154
sS'36054'
p1726
I159
sS'36059'
p1727
I204
sS'36058'
p1728
I211
sS'20421'
p1729
I158
sS'20420'
p1730
I371
sS'20422'
p1731
I370
sS'18966'
p1732
I398
sS'08629'
p1733
I395
sS'08628'
p1734
I373
sS'08159'
p1735
I368
sS'44055'
p1736
I319
sS'08625'
p1737
I402
sS'08156'
p1738
I402
sS'08627'
p1739
I418
sS'18963'
p1740
I350
sS'18962'
p1741
I464
sS'03093'
p1742
I29
sS'03092'
p1743
I24
sS'03091'
p1744
I27
sS'03090'
p1745
I61
sS'03096'
p1746
I62
sS'03099'
p1747
I26
sS'03098'
p1748
I34
sS'11124'
p1749
I41
sS'23266'
p1750
I246
sS'23267'
p1751
I259
sS'11126'
p1752
I23
sS'06447'
p1753
I44
sS'06446'
p1754
I44
sS'06444'
p1755
I35
sS'06443'
p1756
I39
sS'06442'
p1757
I30
sS'06441'
p1758
I49
sS'06440'
p1759
I34
sS'22119'
p1760
I126
sS'22118'
p1761
I176
sS'19421'
p1762
I496
sS'19420'
p1763
I483
sS'19423'
p1764
I274
sS'19422'
p1765
I471
sS'19424'
p1766
I445
sS'23269'
p1767
I180
sS'11410'
p1768
I123
sS'11411'
p1769
I133
sS'11412'
p1770
I152
sS'11413'
p1771
I357
sS'11414'
p1772
I143
sS'11416'
p1773
I15
sS'11417'
p1774
I15
sS'11418'
p1775
I19
sS'11419'
p1776
I21
sS'14224'
p1777
I460
sS'21484'
p1778
I280
sS'05670'
p1779
I249
sS'21486'
p1780
I206
sS'13368'
p1781
I218
sS'13369'
p1782
I213
sS'21487'
p1783
I189
sS'21480'
p1784
I255
sS'13362'
p1785
I233
sS'13363'
p1786
I203
sS'13364'
p1787
I203
sS'13365'
p1788
I206
sS'13366'
p1789
I188
sS'13367'
p1790
I291
sS'21482'
p1791
I282
sS'21483'
p1792
I321
sS'42074'
p1793
I221
sS'09149'
p1794
I71
sS'09148'
p1795
I61
sS'09143'
p1796
I36
sS'42289'
p1797
I884
sS'09140'
p1798
I69
sS'09147'
p1799
I281
sS'09146'
p1800
I79
sS'09145'
p1801
I60
sS'09144'
p1802
I95
sS'12143'
p1803
I710
sS'12142'
p1804
I691
sS'12141'
p1805
I632
sS'12140'
p1806
I622
sS'12147'
p1807
I673
sS'12145'
p1808
I719
sS'12144'
p1809
I715
sS'12149'
p1810
I629
sS'10128'
p1811
I388
sS'10123'
p1812
I417
sS'10122'
p1813
I271
sS'10121'
p1814
I225
sS'10120'
p1815
I222
sS'14347'
p1816
I148
sS'03964'
p1817
I344
sS'21358'
p1818
I333
sS'01138'
p1819
I185
sS'01139'
p1820
I185
sS'01132'
p1821
I149
sS'01133'
p1822
I592
sS'01130'
p1823
I154
sS'01131'
p1824
I143
sS'01136'
p1825
I376
sS'01137'
p1826
I669
sS'01134'
p1827
I615
sS'01135'
p1828
I351
sS'03152'
p1829
I58
sS'03153'
p1830
I58
sS'03150'
p1831
I37
sS'03151'
p1832
I39
sS'03156'
p1833
I68
sS'03157'
p1834
I65
sS'08450'
p1835
I355
sS'08451'
p1836
I371
sS'21359'
p1837
I274
sS'19334'
p1838
I380
sS'03158'
p1839
I41
sS'03159'
p1840
I44
sS'08459'
p1841
I351
sS'18295'
p1842
I340
sS'18294'
p1843
I222
sS'18297'
p1844
I349
sS'18291'
p1845
I355
sS'18290'
p1846
I194
sS'18293'
p1847
I227
sS'18292'
p1848
I218
sS'18299'
p1849
I344
sS'28018'
p1850
I257
sS'28019'
p1851
I268
sS'12177'
p1852
I684
sS'28010'
p1853
I278
sS'28011'
p1854
I325
sS'28012'
p1855
I227
sS'28013'
p1856
I259
sS'28014'
p1857
I305
sS'28015'
p1858
I278
sS'28016'
p1859
I281
sS'28017'
p1860
I381
sS'07901'
p1861
I267
sS'07900'
p1862
I101
sS'13963'
p1863
I157
sS'13961'
p1864
I161
sS'35179'
p1865
I156
sS'35178'
p1866
I148
sS'13965'
p1867
I217
sS'35175'
p1868
I270
sS'35174'
p1869
I97
sS'35177'
p1870
I98
sS'35176'
p1871
I146
sS'35171'
p1872
I378
sS'35170'
p1873
I186
sS'35173'
p1874
I97
sS'35172'
p1875
I143
sS'18121'
p1876
I389
sS'18120'
p1877
I353
sS'18127'
p1878
I399
sS'18126'
p1879
I346
sS'07091'
p1880
I161
sS'07090'
p1881
I260
sS'18128'
p1882
I374
sS'14100'
p1883
I83
sS'18482'
p1884
I384
sS'23183'
p1885
I252
sS'23182'
p1886
I306
sS'23181'
p1887
I239
sS'23180'
p1888
I299
sS'23187'
p1889
I304
sS'23638'
p1890
I195
sS'23185'
p1891
I221
sS'23184'
p1892
I287
sS'23635'
p1893
I119
sS'23634'
p1894
I189
sS'23637'
p1895
I128
sS'23188'
p1896
I309
sS'23631'
p1897
I125
sS'23630'
p1898
I201
sS'23633'
p1899
I205
sS'23632'
p1900
I124
sS'15065'
p1901
I92
sS'15064'
p1902
I93
sS'15067'
p1903
I111
sS'15066'
p1904
I56
sS'15061'
p1905
I117
sS'15060'
p1906
I91
sS'15063'
p1907
I113
sS'15062'
p1908
I88
sS'18487'
p1909
I392
sS'15069'
p1910
I211
sS'15068'
p1911
I164
sS'18488'
p1912
I398
sS'18489'
p1913
I390
sS'23459'
p1914
I161
sS'16019'
p1915
I335
sS'11293'
p1916
I34
sS'23451'
p1917
I163
sS'23450'
p1918
I250
sS'23453'
p1919
I181
sS'23452'
p1920
I252
sS'23455'
p1921
I225
sS'23454'
p1922
I286
sS'23457'
p1923
I129
sS'23456'
p1924
I168
sS'14552'
p1925
I42
sS'14553'
p1926
I6
sS'14550'
p1927
I250
sS'16606'
p1928
I200
sS'16607'
p1929
I255
sS'16600'
p1930
I116
sS'16601'
p1931
I118
sS'16602'
p1932
I158
sS'16603'
p1933
I257
sS'16608'
p1934
I197
sS'16609'
p1935
I195
sS'14557'
p1936
I400
sS'14555'
p1937
I0
sS'06058'
p1938
I48
sS'06054'
p1939
I56
sS'06056'
p1940
I72
sS'06057'
p1941
I16
sS'06050'
p1942
I77
sS'06051'
p1943
I141
sS'06053'
p1944
I74
sS'10958'
p1945
I127
sS'10959'
p1946
I162
sS'10952'
p1947
I121
sS'10953'
p1948
I169
sS'10950'
p1949
I198
sS'10951'
p1950
I114
sS'10956'
p1951
I158
sS'10957'
p1952
I123
sS'10954'
p1953
I263
sS'10955'
p1954
I176
sS'19919'
p1955
I352
sS'19918'
p1956
I0
sS'43060'
p1957
I268
sS'21350'
p1958
I234
sS'05129'
p1959
I137
sS'21355'
p1960
I273
sS'21356'
p1961
I240
sS'21357'
p1962
I228
sS'05125'
p1963
I148
sS'05656'
p1964
I145
sS'05127'
p1965
I168
sS'05654'
p1966
I123
sS'05653'
p1967
I116
sS'05652'
p1968
I159
sS'05123'
p1969
I258
sS'05122'
p1970
I214
sS'19911'
p1971
I270
sS'22919'
p1972
I134
sS'19910'
p1973
I542
sS'22917'
p1974
I239
sS'22916'
p1975
I124
sS'22915'
p1976
I101
sS'22914'
p1977
I70
sS'22912'
p1978
I100
sS'22911'
p1979
I118
sS'22910'
p1980
I130
sS'03989'
p1981
I66
sS'03988'
p1982
I65
sS'03985'
p1983
I67
sS'03984'
p1984
I66
sS'03987'
p1985
I65
sS'03986'
p1986
I66
sS'03981'
p1987
I66
sS'03980'
p1988
I514
sS'03983'
p1989
I66
sS'03982'
p1990
I65
sS'11605'
p1991
I73
sS'11604'
p1992
I38
sS'11601'
p1993
I118
sS'19917'
p1994
I447
sS'11603'
p1995
I38
sS'11602'
p1996
I116
sS'19916'
p1997
I43
sS'11609'
p1998
I65
sS'11959'
p1999
I25
sS'11958'
p2000
I129
sS'11955'
p2001
I258
sS'11954'
p2002
I32
sS'14125'
p2003
I108
sS'11956'
p2004
I213
sS'11951'
p2005
I27
sS'11950'
p2006
I37
sS'11953'
p2007
I21
sS'11952'
p2008
I23
sS'36039'
p2009
I197
sS'36038'
p2010
I170
sS'36031'
p2011
I385
sS'36030'
p2012
I197
sS'36033'
p2013
I219
sS'36032'
p2014
I170
sS'36035'
p2015
I159
sS'36034'
p2016
I302
sS'36037'
p2017
I157
sS'36036'
p2018
I356
sS'18608'
p2019
I465
sS'18609'
p2020
I462
sS'18603'
p2021
I390
sS'14381'
p2022
I1
sS'23580'
p2023
I277
sS'14385'
p2024
I0
sS'14384'
p2025
I0
sS'04528'
p2026
I884
sS'04529'
p2027
I884
sS'20409'
p2028
I384
sS'04520'
p2029
I902
sS'08608'
p2030
I322
sS'11311'
p2031
I71
sS'08603'
p2032
I363
sS'08602'
p2033
I375
sS'11310'
p2034
I50
sS'44074'
p2035
I62
sS'33865'
p2036
I129
sS'06601'
p2037
I38
sS'06600'
p2038
I25
sS'06603'
p2039
I25
sS'06602'
p2040
I25
sS'06605'
p2041
I25
sS'06604'
p2042
I50
sS'06609'
p2043
I5
sS'03215'
p2044
I397
sS'03214'
p2045
I424
sS'03217'
p2046
I426
sS'03216'
p2047
I392
sS'03211'
p2048
I374
sS'03213'
p2049
I433
sS'03212'
p2050
I404
sS'28209'
p2051
I475
sS'28208'
p2052
I482
sS'28205'
p2053
I552
sS'28204'
p2054
I514
sS'28207'
p2055
I461
sS'28206'
p2056
I500
sS'28201'
p2057
I515
sS'28200'
p2058
I514
sS'28203'
p2059
I463
sS'28202'
p2060
I502
sS'06932'
p2061
I54
sS'06931'
p2062
I50
sS'06930'
p2063
I174
sS'19800'
p2064
I387
sS'11380'
p2065
I372
sS'11381'
p2066
I108
sS'11382'
p2067
I357
sS'11383'
p2068
I116
sS'11384'
p2069
I314
sS'11385'
p2070
I93
sS'11386'
p2071
I358
sS'11387'
p2072
I93
sS'43273'
p2073
I95
sS'43276'
p2074
I295
sS'43275'
p2075
I180
sS'43274'
p2076
I201
sS'19159'
p2077
I436
sS'19409'
p2078
I359
sS'19408'
p2079
I538
sS'19155'
p2080
I491
sS'19154'
p2081
I516
sS'19157'
p2082
I502
sS'19156'
p2083
I408
sS'19151'
p2084
I497
sS'19150'
p2085
I515
sS'19153'
p2086
I432
sS'19152'
p2087
I474
sS'08157'
p2088
I364
sS'02036'
p2089
I331
sS'02037'
p2090
I310
sS'02034'
p2091
I307
sS'02035'
p2092
I342
sS'02032'
p2093
I296
sS'02033'
p2094
I525
sS'02030'
p2095
I251
sS'02031'
p2096
I318
sS'02038'
p2097
I315
sS'02039'
p2098
I272
sS'08444'
p2099
I342
sS'42055'
p2100
I218
sS'03066'
p2101
I52
sS'80200'
p2102
I73
sS'12129'
p2103
I111
sS'12128'
p2104
I348
sS'12121'
p2105
I629
sS'12120'
p2106
I628
sS'12122'
p2107
I646
sS'12127'
p2108
I182
sS'10141'
p2109
I195
sS'10140'
p2110
I226
sS'10142'
p2111
I203
sS'10146'
p2112
I315
sS'10149'
p2113
I122
sS'15209'
p2114
I182
sS'09121'
p2115
I60
sS'09120'
p2116
I37
sS'09123'
p2117
I34
sS'09125'
p2118
I146
sS'09124'
p2119
I46
sS'09127'
p2120
I38
sS'09126'
p2121
I41
sS'09129'
p2122
I57
sS'09128'
p2123
I39
sS'09211'
p2124
I47
sS'08290'
p2125
I353
sS'09210'
p2126
I47
sS'09217'
p2127
I43
sS'09216'
p2128
I97
sS'05356'
p2129
I378
sS'05357'
p2130
I251
sS'05354'
p2131
I148
sS'05352'
p2132
I266
sS'05353'
p2133
I135
sS'05351'
p2134
I233
sS'20097'
p2135
I130
sS'05358'
p2136
I175
sS'05359'
p2137
I206
sS'01110'
p2138
I119
sS'01111'
p2139
I112
sS'01112'
p2140
I24
sS'01113'
p2141
I339
sS'01114'
p2142
I27
sS'01115'
p2143
I353
sS'01116'
p2144
I61
sS'01117'
p2145
I63
sS'01118'
p2146
I56
sS'01119'
p2147
I85
sS'03178'
p2148
I70
sS'03179'
p2149
I47
sS'08478'
p2150
I370
sS'03170'
p2151
I49
sS'03171'
p2152
I72
sS'03172'
p2153
I45
sS'03173'
p2154
I43
sS'03174'
p2155
I47
sS'03175'
p2156
I46
sS'03176'
p2157
I50
sS'03177'
p2158
I48
sS'14246'
p2159
I378
sS'14247'
p2160
I0
sS'14245'
p2161
I95
sS'14242'
p2162
I54
sS'14243'
p2163
I19
sS'14240'
p2164
I64
sS'14241'
p2165
I56
sS'14248'
p2166
I46
sS'13948'
p2167
I192
sS'13949'
p2168
I183
sS'35158'
p2169
I104
sS'13940'
p2170
I172
sS'35152'
p2171
I116
sS'35151'
p2172
I153
sS'13943'
p2173
I178
sS'35157'
p2174
I161
sS'35156'
p2175
I894
sS'13946'
p2176
I169
sS'35154'
p2177
I47
sS'18148'
p2178
I274
sS'07078'
p2179
I362
sS'07075'
p2180
I320
sS'07074'
p2181
I309
sS'07077'
p2182
I313
sS'18142'
p2183
I423
sS'07071'
p2184
I407
sS'07070'
p2185
I172
sS'18147'
p2186
I321
sS'07072'
p2187
I378
sS'13971'
p2188
I145
sS'13970'
p2189
I155
sS'13973'
p2190
I139
sS'23619'
p2191
I179
sS'23618'
p2192
I140
sS'23613'
p2193
I129
sS'23612'
p2194
I139
sS'23611'
p2195
I131
sS'07212'
p2196
I180
sS'23617'
p2197
I140
sS'23616'
p2198
I128
sS'23615'
p2199
I203
sS'23614'
p2200
I224
sS'15043'
p2201
I195
sS'15042'
p2202
I217
sS'15041'
p2203
I262
sS'15040'
p2204
I203
sS'15047'
p2205
I262
sS'15046'
p2206
I205
sS'15045'
p2207
I85
sS'15044'
p2208
I87
sS'15049'
p2209
I105
sS'15048'
p2210
I156
sS'13979'
p2211
I233
sS'23477'
p2212
I121
sS'23476'
p2213
I209
sS'23475'
p2214
I192
sS'23474'
p2215
I182
sS'23473'
p2216
I193
sS'23472'
p2217
I152
sS'23471'
p2218
I146
sS'23470'
p2219
I202
sS'23479'
p2220
I144
sS'23478'
p2221
I153
sS'16375'
p2222
I126
sS'15247'
p2223
I139
sS'19366'
p2224
I253
sS'19367'
p2225
I448
sS'19364'
p2226
I216
sS'19365'
p2227
I322
sS'19362'
p2228
I319
sS'19363'
p2229
I402
sS'19360'
p2230
I265
sS'19361'
p2231
I278
sS'19368'
p2232
I405
sS'19369'
p2233
I401
sS'19300'
p2234
I266
sS'06038'
p2235
I84
sS'06039'
p2236
I53
sS'10974'
p2237
I393
sS'10975'
p2238
I289
sS'10976'
p2239
I187
sS'10977'
p2240
I377
sS'06032'
p2241
I11
sS'10979'
p2242
I185
sS'06030'
p2243
I72
sS'06037'
p2244
I56
sS'16171'
p2245
I83
sS'18547'
p2246
I400
sS'21112'
p2247
I311
sS'21113'
p2248
I235
sS'21110'
p2249
I295
sS'21111'
p2250
I268
sS'19306'
p2251
I480
sS'21114'
p2252
I239
sS'21115'
p2253
I267
sS'21118'
p2254
I247
sS'21119'
p2255
I260
sS'11595'
p2256
I49
sS'11594'
p2257
I14
sS'11597'
p2258
I74
sS'11596'
p2259
I38
sS'11591'
p2260
I11
sS'11590'
p2261
I50
sS'11593'
p2262
I13
sS'43514'
p2263
I24
sS'11599'
p2264
I148
sS'05109'
p2265
I213
sS'05108'
p2266
I181
sS'05103'
p2267
I254
sS'05102'
p2268
I321
sS'05101'
p2269
I324
sS'05100'
p2270
I191
sS'05107'
p2271
I203
sS'05106'
p2272
I211
sS'05105'
p2273
I126
sS'05104'
p2274
I249
sS'17283'
p2275
I201
sS'17282'
p2276
I142
sS'17281'
p2277
I256
sS'17280'
p2278
I229
sS'17287'
p2279
I236
sS'17286'
p2280
I195
sS'17285'
p2281
I639
sS'17284'
p2282
I648
sS'17289'
p2283
I165
sS'17288'
p2284
I123
sS'13449'
p2285
I211
sS'13448'
p2286
I202
sS'13445'
p2287
I223
sS'13444'
p2288
I198
sS'13447'
p2289
I207
sS'13446'
p2290
I233
sS'13441'
p2291
I202
sS'13440'
p2292
I217
sS'13443'
p2293
I211
sS'13442'
p2294
I198
sS'11623'
p2295
I28
sS'11622'
p2296
I42
sS'11621'
p2297
I36
sS'11620'
p2298
I37
sS'11626'
p2299
I12
sS'11625'
p2300
I271
sS'11624'
p2301
I321
sS'11979'
p2302
I29
sS'11978'
p2303
I281
sS'18940'
p2304
I255
sS'11973'
p2305
I88
sS'11972'
p2306
I99
sS'11970'
p2307
I12
sS'11977'
p2308
I32
sS'18943'
p2309
I484
sS'11975'
p2310
I69
sS'11974'
p2311
I93
sS'18942'
p2312
I501
sS'20649'
p2313
I332
sS'20648'
p2314
I359
sS'20645'
p2315
I362
sS'21417'
p2316
I271
sS'20647'
p2317
I382
sS'20646'
p2318
I362
sS'20641'
p2319
I362
sS'20640'
p2320
I362
sS'21416'
p2321
I161
sS'36017'
p2322
I151
sS'36016'
p2323
I308
sS'36015'
p2324
I307
sS'36014'
p2325
I289
sS'36013'
p2326
I195
sS'21415'
p2327
I401
sS'36011'
p2328
I196
sS'36010'
p2329
I330
sS'36019'
p2330
I157
sS'36018'
p2331
I202
sS'05684'
p2332
I403
sS'18948'
p2333
I445
sS'05686'
p2334
I421
sS'04506'
p2335
I884
sS'21418'
p2336
I253
sS'04501'
p2337
I884
sS'04502'
p2338
I884
sS'20466'
p2339
I360
sS'08661'
p2340
I397
sS'08660'
p2341
I378
sS'08663'
p2342
I318
sS'08662'
p2343
I399
sS'10088'
p2344
I277
sS'10089'
p2345
I397
sS'08666'
p2346
I375
sS'08669'
p2347
I253
sS'08668'
p2348
I348
sS'10086'
p2349
I227
sS'10087'
p2350
I232
sS'10080'
p2351
I186
sS'10081'
p2352
I267
sS'10082'
p2353
I259
sS'10083'
p2354
I269
sS'18444'
p2355
I316
sS'18445'
p2356
I316
sS'18446'
p2357
I457
sS'18447'
p2358
I371
sS'19874'
p2359
I124
sS'18443'
p2360
I237
sS'21061'
p2361
I205
sS'18448'
p2362
I468
sS'18449'
p2363
I222
sS'18621'
p2364
I492
sS'18629'
p2365
I236
sS'08085'
p2366
I372
sS'08084'
p2367
I382
sS'08087'
p2368
I370
sS'08081'
p2369
I373
sS'08083'
p2370
I385
sS'08082'
p2371
I345
sS'08089'
p2372
I353
sS'01305'
p2373
I54
sS'01306'
p2374
I265
sS'01301'
p2375
I254
sS'01300'
p2376
I303
sS'01303'
p2377
I72
sS'01302'
p2378
I165
sS'06629'
p2379
I372
sS'06628'
p2380
I418
sS'06627'
p2381
I426
sS'06626'
p2382
I418
sS'06625'
p2383
I44
sS'06624'
p2384
I36
sS'06623'
p2385
I51
sS'06622'
p2386
I57
sS'06621'
p2387
I40
sS'06620'
p2388
I53
sS'03233'
p2389
I81
sS'03230'
p2390
I60
sS'03236'
p2391
I63
sS'03235'
p2392
I59
sS'03238'
p2393
I60
sS'11025'
p2394
I19
sS'11024'
p2395
I17
sS'11027'
p2396
I12
sS'11026'
p2397
I27
sS'11023'
p2398
I34
sS'11022'
p2399
I30
sS'11029'
p2400
I29
sS'11028'
p2401
I19
sS'23288'
p2402
I239
sS'23289'
p2403
I213
sS'28229'
p2404
I431
sS'28228'
p2405
I467
sS'23280'
p2406
I249
sS'23281'
p2407
I191
sS'23282'
p2408
I199
sS'23283'
p2409
I179
sS'23284'
p2410
I239
sS'23285'
p2411
I253
sS'23286'
p2412
I219
sS'23287'
p2413
I228
sS'06959'
p2414
I409
sS'06958'
p2415
I369
sS'06483'
p2416
I41
sS'06482'
p2417
I52
sS'06481'
p2418
I5
sS'06480'
p2419
I4
sS'06487'
p2420
I54
sS'06957'
p2421
I380
sS'06956'
p2422
I65
sS'43212'
p2423
I476
sS'43215'
p2424
I202
sS'43214'
p2425
I373
sS'43217'
p2426
I24
sS'43216'
p2427
I368
sS'43218'
p2428
I352
sS'11368'
p2429
I100
sS'11369'
p2430
I132
sS'11366'
p2431
I78
sS'11367'
p2432
I86
sS'11364'
p2433
I198
sS'11365'
p2434
I87
sS'11362'
p2435
I58
sS'11363'
p2436
I93
sS'11360'
p2437
I166
sS'11361'
p2438
I130
sS'19173'
p2439
I62
sS'19172'
p2440
I381
sS'19171'
p2441
I410
sS'19170'
p2442
I122
sS'19177'
p2443
I335
sS'19176'
p2444
I20
sS'19175'
p2445
I198
sS'19281'
p2446
I53
sS'19280'
p2447
I128
sS'19283'
p2448
I79
sS'02018'
p2449
I345
sS'02019'
p2450
I323
sS'02014'
p2451
I375
sS'02015'
p2452
I325
sS'02016'
p2453
I305
sS'02017'
p2454
I253
sS'02010'
p2455
I247
sS'02011'
p2456
I274
sS'02012'
p2457
I279
sS'02013'
p2458
I298
sS'09076'
p2459
I89
sS'09402'
p2460
I76
sS'09403'
p2461
I56
sS'09400'
p2462
I46
sS'16345'
p2463
I117
sS'16347'
p2464
I82
sS'16346'
p2465
I142
sS'16341'
p2466
I149
sS'19820'
p2467
I541
sS'16343'
p2468
I143
sS'19822'
p2469
I484
sS'06448'
p2470
I24
sS'16348'
p2471
I144
sS'09407'
p2472
I54
sS'12104'
p2473
I354
sS'09404'
p2474
I39
sS'12101'
p2475
I131
sS'12100'
p2476
I369
sS'12109'
p2477
I456
sS'12108'
p2478
I660
sS'16127'
p2479
I61
sS'01264'
p2480
I358
sS'01265'
p2481
I157
sS'10169'
p2482
I170
sS'10168'
p2483
I280
sS'10167'
p2484
I591
sS'10166'
p2485
I579
sS'10165'
p2486
I748
sS'10164'
p2487
I201
sS'10163'
p2488
I162
sS'21255'
p2489
I266
sS'21254'
p2490
I252
sS'21256'
p2491
I292
sS'21251'
p2492
I286
sS'21250'
p2493
I261
sS'21253'
p2494
I250
sS'21252'
p2495
I233
sS'21259'
p2496
I286
sS'21258'
p2497
I260
sS'03826'
p2498
I510
sS'03827'
p2499
I521
sS'03824'
p2500
I131
sS'03825'
p2501
I64
sS'03822'
p2502
I67
sS'03823'
p2503
I63
sS'03820'
p2504
I88
sS'03821'
p2505
I519
sS'09107'
p2506
I44
sS'09106'
p2507
I88
sS'09105'
p2508
I73
sS'09104'
p2509
I58
sS'09451'
p2510
I44
sS'09102'
p2511
I30
sS'09101'
p2512
I88
sS'09100'
p2513
I73
sS'08277'
p2514
I381
sS'08274'
p2515
I376
sS'08272'
p2516
I410
sS'08273'
p2517
I386
sS'08270'
p2518
I383
sS'08271'
p2519
I383
sS'14080'
p2520
I372
sS'14082'
p2521
I0
sS'14083'
p2522
I49
sS'14084'
p2523
I83
sS'14086'
p2524
I37
sS'14087'
p2525
I37
sS'14088'
p2526
I41
sS'18364'
p2527
I306
sS'14130'
p2528
I51
sS'15118'
p2529
I184
sS'08410'
p2530
I369
sS'08411'
p2531
I384
sS'08417'
p2532
I368
sS'14268'
p2533
I162
sS'14269'
p2534
I46
sS'14264'
p2535
I48
sS'14267'
p2536
I47
sS'14260'
p2537
I0
sS'14261'
p2538
I0
sS'14262'
p2539
I162
sS'14263'
p2540
I46
sS'20076'
p2541
I339
sS'20077'
p2542
I216
sS'20074'
p2543
I342
sS'20075'
p2544
I340
sS'20072'
p2545
I327
sS'20073'
p2546
I331
sS'20070'
p2547
I338
sS'20071'
p2548
I329
sS'20078'
p2549
I360
sS'14132'
p2550
I80
sS'18167'
p2551
I481
sS'18166'
p2552
I464
sS'18165'
p2553
I488
sS'18164'
p2554
I492
sS'18163'
p2555
I451
sS'18161'
p2556
I497
sS'18160'
p2557
I444
sS'18168'
p2558
I497
sS'07059'
p2559
I326
sS'07058'
p2560
I225
sS'07053'
p2561
I201
sS'07052'
p2562
I139
sS'07051'
p2563
I235
sS'07050'
p2564
I311
sS'07057'
p2565
I504
sS'07056'
p2566
I149
sS'07055'
p2567
I319
sS'07054'
p2568
I462
sS'14462'
p2569
I5
sS'14460'
p2570
I26
sS'07945'
p2571
I322
sS'07236'
p2572
I315
sS'11101'
p2573
I42
sS'07941'
p2574
I350
sS'07940'
p2575
I228
sS'07943'
p2576
I95
sS'07230'
p2577
I368
sS'11106'
p2578
I14
sS'17042'
p2579
I204
sS'07949'
p2580
I278
sS'28345'
p2581
I453
sS'14135'
p2582
I112
sS'11104'
p2583
I72
sS'11105'
p2584
I88
sS'15029'
p2585
I86
sS'15028'
p2586
I70
sS'15021'
p2587
I221
sS'15020'
p2588
I104
sS'15023'
p2589
I85
sS'15022'
p2590
I87
sS'15025'
p2591
I184
sS'15024'
p2592
I119
sS'15027'
p2593
I277
sS'15026'
p2594
I236
sS'35131'
p2595
I398
sS'35130'
p2596
I54
sS'35133'
p2597
I44
sS'35132'
p2598
I21
sS'35135'
p2599
I386
sS'35134'
p2600
I386
sS'35137'
p2601
I384
sS'35136'
p2602
I398
sS'35139'
p2603
I16
sS'35138'
p2604
I26
sS'23499'
p2605
I130
sS'23498'
p2606
I167
sS'23495'
p2607
I151
sS'23494'
p2608
I176
sS'23497'
p2609
I157
sS'23496'
p2610
I133
sS'23491'
p2611
I203
sS'23490'
p2612
I147
sS'10084'
p2613
I132
sS'10085'
p2614
I233
sS'19348'
p2615
I350
sS'19349'
p2616
I286
sS'16138'
p2617
I333
sS'16139'
p2618
I43
sS'16136'
p2619
I147
sS'16137'
p2620
I177
sS'16134'
p2621
I118
sS'16135'
p2622
I409
sS'16132'
p2623
I116
sS'16133'
p2624
I347
sS'16130'
p2625
I76
sS'06010'
p2626
I72
sS'06011'
p2627
I82
sS'06544'
p2628
I41
sS'06013'
p2629
I31
sS'06014'
p2630
I81
sS'06015'
p2631
I71
sS'06016'
p2632
I90
sS'06017'
p2633
I45
sS'06018'
p2634
I41
sS'06019'
p2635
I48
sS'06548'
p2636
I41
sS'06549'
p2637
I54
sS'10998'
p2638
I146
sS'10994'
p2639
I407
sS'10992'
p2640
I260
sS'10993'
p2641
I270
sS'10990'
p2642
I199
sS'10991'
p2643
I247
sS'13858'
p2644
I323
sS'21138'
p2645
I312
sS'21139'
p2646
I89
sS'13859'
p2647
I335
sS'21130'
p2648
I411
sS'35040'
p2649
I312
sS'43535'
p2650
I47
sS'43536'
p2651
I76
sS'43537'
p2652
I77
sS'43539'
p2653
I78
sS'43028'
p2654
I132
sS'43020'
p2655
I99
sS'43021'
p2656
I110
sS'43026'
p2657
I52
sS'43027'
p2658
I121
sS'13469'
p2659
I203
sS'13468'
p2660
I145
sS'13463'
p2661
I267
sS'13460'
p2662
I283
sS'13467'
p2663
I224
sS'13466'
p2664
I212
sS'13465'
p2665
I213
sS'13464'
p2666
I155
sS'11649'
p2667
I33
sS'11641'
p2668
I16
sS'11640'
p2669
I348
sS'11643'
p2670
I34
sS'11642'
p2671
I20
sS'11645'
p2672
I89
sS'11644'
p2673
I37
sS'11647'
p2674
I108
sS'04691'
p2675
I717
sS'04692'
p2676
I713
sS'05161'
p2677
I142
sS'21395'
p2678
I282
sS'21396'
p2679
I272
sS'05162'
p2680
I134
sS'05165'
p2681
I143
sS'05167'
p2682
I112
sS'05166'
p2683
I189
sS'05169'
p2684
I407
sS'05168'
p2685
I159
sS'21398'
p2686
I269
sS'21399'
p2687
I253
sS'04695'
p2688
I535
sS'20447'
p2689
I123
sS'20446'
p2690
I374
sS'04560'
p2691
I884
sS'20444'
p2692
I365
sS'04696'
p2693
I717
sS'08649'
p2694
I362
sS'08648'
p2695
I371
sS'08647'
p2696
I364
sS'08643'
p2697
I364
sS'08642'
p2698
I358
sS'08641'
p2699
I376
sS'08640'
p2700
I367
sS'11911'
p2701
I80
sS'11910'
p2702
I88
sS'11913'
p2703
I98
sS'11912'
p2704
I80
sS'11915'
p2705
I94
sS'11914'
p2706
I94
sS'11917'
p2707
I20
sS'11916'
p2708
I18
sS'11919'
p2709
I16
sS'11918'
p2710
I16
sS'18428'
p2711
I473
sS'18429'
p2712
I443
sS'10206'
p2713
I359
sS'10207'
p2714
I140
sS'10204'
p2715
I189
sS'10205'
p2716
I273
sS'10202'
p2717
I224
sS'10203'
p2718
I214
sS'10200'
p2719
I211
sS'10201'
p2720
I216
sS'10208'
p2721
I247
sS'10209'
p2722
I227
sS'01095'
p2723
I321
sS'01094'
p2724
I387
sS'01097'
p2725
I78
sS'01096'
p2726
I134
sS'01091'
p2727
I362
sS'01090'
p2728
I496
sS'01093'
p2729
I354
sS'01092'
p2730
I358
sS'18390'
p2731
I227
sS'18396'
p2732
I316
sS'13361'
p2733
I230
sS'11003'
p2734
I23
sS'28240'
p2735
I507
sS'11001'
p2736
I23
sS'28242'
p2737
I484
sS'11007'
p2738
I47
sS'11006'
p2739
I78
sS'11005'
p2740
I99
sS'11004'
p2741
I21
sS'28249'
p2742
I443
sS'28248'
p2743
I503
sS'11009'
p2744
I38
sS'11008'
p2745
I53
sS'08574'
p2746
I56
sS'03073'
p2747
I59
sS'11344'
p2748
I136
sS'11345'
p2749
I111
sS'03072'
p2750
I78
sS'08571'
p2751
I467
sS'11349'
p2752
I112
sS'19111'
p2753
I459
sS'19110'
p2754
I512
sS'19113'
p2755
I291
sS'19112'
p2756
I348
sS'19115'
p2757
I467
sS'03077'
p2758
I60
sS'19117'
p2759
I469
sS'19116'
p2760
I318
sS'19119'
p2761
I475
sS'19118'
p2762
I462
sS'09286'
p2763
I83
sS'02073'
p2764
I188
sS'02076'
p2765
I335
sS'02074'
p2766
I0
sS'02075'
p2767
I322
sS'06977'
p2768
I53
sS'06976'
p2769
I51
sS'06974'
p2770
I69
sS'06972'
p2771
I92
sS'06971'
p2772
I78
sS'06970'
p2773
I16
sS'06978'
p2774
I69
sS'05662'
p2775
I112
sS'43497'
p2776
I36
sS'43495'
p2777
I380
sS'42297'
p2778
I390
sS'16587'
p2779
I222
sS'16586'
p2780
I121
sS'16585'
p2781
I137
sS'16584'
p2782
I138
sS'16581'
p2783
I122
sS'05666'
p2784
I213
sS'16588'
p2785
I118
sS'12695'
p2786
I614
sS'21341'
p2787
I285
sS'21340'
p2788
I277
sS'12698'
p2789
I592
sS'16363'
p2790
I116
sS'19802'
p2791
I558
sS'16361'
p2792
I117
sS'16360'
p2793
I88
sS'19807'
p2794
I500
sS'19806'
p2795
I382
sS'21091'
p2796
I254
sS'19804'
p2797
I523
sS'19809'
p2798
I536
sS'16368'
p2799
I117
sS'21099'
p2800
I286
sS'21098'
p2801
I206
sS'06201'
p2802
I65
sS'06209'
p2803
I56
sS'06208'
p2804
I65
sS'17188'
p2805
I118
sS'17189'
p2806
I136
sS'17180'
p2807
I114
sS'17181'
p2808
I173
sS'17182'
p2809
I255
sS'17183'
p2810
I120
sS'17184'
p2811
I173
sS'17185'
p2812
I122
sS'17186'
p2813
I145
sS'17187'
p2814
I273
sS'21273'
p2815
I303
sS'21272'
p2816
I280
sS'21271'
p2817
I271
sS'21270'
p2818
I170
sS'21277'
p2819
I257
sS'21276'
p2820
I243
sS'21275'
p2821
I298
sS'21274'
p2822
I280
sS'21279'
p2823
I298
sS'21278'
p2824
I265
sS'15176'
p2825
I175
sS'03808'
p2826
I511
sS'03809'
p2827
I511
sS'03805'
p2828
I520
sS'03806'
p2829
I63
sS'03800'
p2830
I66
sS'03801'
p2831
I127
sS'03802'
p2832
I509
sS'03803'
p2833
I63
sS'44110'
p2834
I179
sS'05318'
p2835
I178
sS'05319'
p2836
I172
sS'14068'
p2837
I380
sS'05312'
p2838
I211
sS'05313'
p2839
I248
sS'05310'
p2840
I134
sS'05311'
p2841
I185
sS'05316'
p2842
I140
sS'05317'
p2843
I217
sS'05314'
p2844
I108
sS'05315'
p2845
I202
sS'18985'
p2846
I479
sS'18984'
p2847
I494
sS'18987'
p2848
I461
sS'18986'
p2849
I493
sS'18981'
p2850
I389
sS'18980'
p2851
I197
sS'18983'
p2852
I495
sS'18982'
p2853
I440
sS'18989'
p2854
I463
sS'18988'
p2855
I461
sS'14209'
p2856
I1
sS'14202'
p2857
I9
sS'14203'
p2858
I352
sS'14201'
p2859
I0
sS'14206'
p2860
I27
sS'14207'
p2861
I2
sS'14204'
p2862
I440
sS'20058'
p2863
I151
sS'20054'
p2864
I370
sS'20055'
p2865
I97
sS'20050'
p2866
I360
sS'20051'
p2867
I130
sS'20052'
p2868
I358
sS'20053'
p2869
I130
sS'36606'
p2870
I266
sS'36607'
p2871
I255
sS'36604'
p2872
I294
sS'36605'
p2873
I287
sS'36602'
p2874
I174
sS'36603'
p2875
I105
sS'08252'
p2876
I61
sS'36601'
p2877
I250
sS'08259'
p2878
I378
sS'36608'
p2879
I203
sS'36609'
p2880
I192
sS'07031'
p2881
I216
sS'07030'
p2882
I263
sS'07033'
p2883
I245
sS'07032'
p2884
I241
sS'18189'
p2885
I475
sS'07034'
p2886
I157
sS'07036'
p2887
I346
sS'07039'
p2888
I172
sS'18184'
p2889
I435
sS'18187'
p2890
I458
sS'18186'
p2891
I457
sS'18180'
p2892
I462
sS'18183'
p2893
I471
sS'18182'
p2894
I424
sS'04044'
p2895
I884
sS'04047'
p2896
I892
sS'04042'
p2897
I884
sS'15170'
p2898
I68
sS'18027'
p2899
I287
sS'18024'
p2900
I266
sS'18025'
p2901
I260
sS'08435'
p2902
I346
sS'08436'
p2903
I360
sS'18022'
p2904
I418
sS'07963'
p2905
I298
sS'07962'
p2906
I277
sS'07961'
p2907
I98
sS'07960'
p2908
I336
sS'23129'
p2909
I240
sS'23128'
p2910
I235
sS'23659'
p2911
I276
sS'23658'
p2912
I278
sS'23657'
p2913
I137
sS'23124'
p2914
I122
sS'23655'
p2915
I178
sS'23126'
p2916
I317
sS'23121'
p2917
I211
sS'23652'
p2918
I130
sS'23651'
p2919
I126
sS'23650'
p2920
I129
sS'15007'
p2921
I146
sS'15006'
p2922
I90
sS'15005'
p2923
I124
sS'15004'
p2924
I97
sS'15003'
p2925
I114
sS'15002'
p2926
I210
sS'15001'
p2927
I131
sS'14116'
p2928
I80
sS'43447'
p2929
I557
sS'15009'
p2930
I162
sS'15008'
p2931
I127
sS'11049'
p2932
I162
sS'18029'
p2933
I272
sS'14119'
p2934
I29
sS'11147'
p2935
I19
sS'11144'
p2936
I18
sS'19328'
p2937
I517
sS'19322'
p2938
I415
sS'19323'
p2939
I117
sS'19320'
p2940
I366
sS'19321'
p2941
I111
sS'19326'
p2942
I539
sS'19327'
p2943
I525
sS'19324'
p2944
I434
sS'19325'
p2945
I114
sS'22528'
p2946
I176
sS'22529'
p2947
I220
sS'22522'
p2948
I90
sS'13896'
p2949
I224
sS'13897'
p2950
I266
sS'13894'
p2951
I168
sS'13895'
p2952
I250
sS'13892'
p2953
I238
sS'13893'
p2954
I204
sS'13890'
p2955
I228
sS'13891'
p2956
I166
sS'11142'
p2957
I27
sS'13898'
p2958
I164
sS'13899'
p2959
I225
sS'43550'
p2960
I68
sS'43004'
p2961
I68
sS'43006'
p2962
I66
sS'43007'
p2963
I69
sS'43008'
p2964
I51
sS'16228'
p2965
I34
sS'16114'
p2966
I192
sS'16115'
p2967
I434
sS'16116'
p2968
I439
sS'16117'
p2969
I327
sS'16110'
p2970
I469
sS'16111'
p2971
I449
sS'16112'
p2972
I198
sS'16113'
p2973
I211
sS'16118'
p2974
I372
sS'16119'
p2975
I337
sS'13401'
p2976
I230
sS'16222'
p2977
I33
sS'13402'
p2978
I199
sS'13405'
p2979
I175
sS'13404'
p2980
I217
sS'13407'
p2981
I214
sS'16223'
p2982
I45
sS'13408'
p2983
I177
sS'11667'
p2984
I290
sS'11666'
p2985
I26
sS'11663'
p2986
I306
sS'11660'
p2987
I79
sS'05663'
p2988
I151
sS'11669'
p2989
I45
sS'16227'
p2990
I47
sS'16225'
p2991
I30
sS'11308'
p2992
I68
sS'21336'
p2993
I186
sS'05149'
p2994
I238
sS'05148'
p2995
I161
sS'42205'
p2996
I148
sS'42204'
p2997
I392
sS'05145'
p2998
I123
sS'05144'
p2999
I211
sS'05143'
p3000
I136
sS'05142'
p3001
I201
sS'05141'
p3002
I135
sS'05140'
p3003
I337
sS'04548'
p3004
I884
sS'04549'
p3005
I900
sS'09318'
p3006
I35
sS'09319'
p3007
I78
sS'09316'
p3008
I32
sS'09317'
p3009
I92
sS'09314'
p3010
I124
sS'04543'
p3011
I884
sS'04544'
p3012
I900
sS'09313'
p3013
I83
sS'09310'
p3014
I116
sS'09311'
p3015
I49
sS'23598'
p3016
I169
sS'23599'
p3017
I141
sS'21334'
p3018
I158
sS'18408'
p3019
I275
sS'11939'
p3020
I29
sS'11938'
p3021
I22
sS'11937'
p3022
I12
sS'11936'
p3023
I22
sS'18402'
p3024
I469
sS'18403'
p3025
I312
sS'11933'
p3026
I20
sS'11932'
p3027
I20
sS'11931'
p3028
I314
sS'18407'
p3029
I275
sS'21335'
p3030
I188
sS'10228'
p3031
I144
sS'10229'
p3032
I211
sS'10224'
p3033
I166
sS'10225'
p3034
I132
sS'10226'
p3035
I177
sS'10227'
p3036
I235
sS'10220'
p3037
I297
sS'10221'
p3038
I201
sS'10222'
p3039
I147
sS'10223'
p3040
I187
sS'21516'
p3041
I229
sS'21517'
p3042
I275
sS'21514'
p3043
I191
sS'21515'
p3044
I235
sS'21512'
p3045
I274
sS'21513'
p3046
I203
sS'21510'
p3047
I268
sS'21511'
p3048
I274
sS'21518'
p3049
I222
sS'21519'
p3050
I277
sS'11149'
p3051
I19
sS'21485'
p3052
I331
sS'21333'
p3053
I162
sS'03019'
p3054
I330
sS'03013'
p3055
I146
sS'03012'
p3056
I130
sS'03011'
p3057
I112
sS'03010'
p3058
I87
sS'03017'
p3059
I188
sS'03016'
p3060
I111
sS'03015'
p3061
I111
sS'03014'
p3062
I188
sS'03274'
p3063
I53
sS'03279'
p3064
I34
sS'03278'
p3065
I41
sS'14548'
p3066
I385
sS'28269'
p3067
I470
sS'28268'
p3068
I375
sS'14541'
p3069
I37
sS'28266'
p3070
I472
sS'14543'
p3071
I43
sS'14542'
p3072
I192
sS'28263'
p3073
I430
sS'28262'
p3074
I485
sS'28261'
p3075
I474
sS'28260'
p3076
I291
sS'13791'
p3077
I173
sS'13795'
p3078
I214
sS'13797'
p3079
I222
sS'13796'
p3080
I259
sS'13799'
p3081
I192
sS'13798'
p3082
I268
sS'11322'
p3083
I53
sS'11323'
p3084
I48
sS'11326'
p3085
I70
sS'11327'
p3086
I45
sS'11324'
p3087
I51
sS'11329'
p3088
I21
sS'19139'
p3089
I517
sS'19138'
p3090
I510
sS'19137'
p3091
I254
sS'19136'
p3092
I541
sS'19135'
p3093
I456
sS'19134'
p3094
I511
sS'19132'
p3095
I526
sS'19130'
p3096
I577
sS'23356'
p3097
I116
sS'11499'
p3098
I63
sS'23354'
p3099
I121
sS'23355'
p3100
I124
sS'23352'
p3101
I163
sS'02055'
p3102
I48
sS'23350'
p3103
I157
sS'23351'
p3104
I159
sS'11490'
p3105
I50
sS'11491'
p3106
I30
sS'11492'
p3107
I31
sS'11493'
p3108
I27
sS'11495'
p3109
I99
sS'23358'
p3110
I124
sS'23359'
p3111
I116
sS'08635'
p3112
I380
sS'08632'
p3113
I380
sS'08633'
p3114
I394
sS'06999'
p3115
I51
sS'06998'
p3116
I42
sS'06995'
p3117
I72
sS'06994'
p3118
I54
sS'06997'
p3119
I42
sS'06996'
p3120
I8
sS'06991'
p3121
I73
sS'06990'
p3122
I63
sS'06992'
p3123
I79
sS'16565'
p3124
I159
sS'08452'
p3125
I333
sS'16561'
p3126
I219
sS'16560'
p3127
I208
sS'08453'
p3128
I368
sS'06195'
p3129
I50
sS'06194'
p3130
I6
sS'06190'
p3131
I81
sS'06193'
p3132
I68
sS'06192'
p3133
I71
sS'12536'
p3134
I546
sS'12537'
p3135
I582
sS'19868'
p3136
I336
sS'21078'
p3137
I343
sS'19860'
p3138
I479
sS'16302'
p3139
I128
sS'19867'
p3140
I138
sS'19866'
p3141
I390
sS'06223'
p3142
I62
sS'06222'
p3143
I92
sS'06221'
p3144
I69
sS'06220'
p3145
I69
sS'06226'
p3146
I72
sS'06225'
p3147
I85
sS'06224'
p3148
I54
sS'06229'
p3149
I62
sS'06228'
p3150
I77
sS'05088'
p3151
I154
sS'05089'
p3152
I229
sS'12538'
p3153
I592
sS'21211'
p3154
I157
sS'21210'
p3155
I155
sS'21213'
p3156
I214
sS'05081'
p3157
I208
sS'05086'
p3158
I332
sS'21214'
p3159
I221
sS'05084'
p3160
I297
sS'05085'
p3161
I330
sS'09411'
p3162
I47
sS'09410'
p3163
I166
sS'09413'
p3164
I62
sS'09412'
p3165
I63
sS'09415'
p3166
I66
sS'09414'
p3167
I67
sS'09416'
p3168
I34
sS'03868'
p3169
I63
sS'03869'
p3170
I521
sS'03860'
p3171
I99
sS'03861'
p3172
I480
sS'03867'
p3173
I503
sS'03864'
p3174
I67
sS'14044'
p3175
I58
sS'14045'
p3176
I57
sS'05332'
p3177
I143
sS'05333'
p3178
I189
sS'05334'
p3179
I193
sS'14041'
p3180
I138
sS'05336'
p3181
I162
sS'05337'
p3182
I129
sS'05338'
p3183
I133
sS'05339'
p3184
I184
sS'14048'
p3185
I38
sS'14049'
p3186
I263
sS'13232'
p3187
I221
sS'13231'
p3188
I161
sS'13236'
p3189
I217
sS'13235'
p3190
I160
sS'14220'
p3191
I56
sS'14221'
p3192
I4
sS'14222'
p3193
I355
sS'14223'
p3194
I3
sS'18219'
p3195
I351
sS'01079'
p3196
I50
sS'14226'
p3197
I26
sS'14227'
p3198
I49
sS'18215'
p3199
I496
sS'18214'
p3200
I489
sS'18217'
p3201
I395
sS'18216'
p3202
I366
sS'18211'
p3203
I558
sS'18210'
p3204
I483
sS'18213'
p3205
I455
sS'18212'
p3206
I441
sS'04687'
p3207
I357
sS'04686'
p3208
I207
sS'04685'
p3209
I884
sS'04684'
p3210
I730
sS'04683'
p3211
I606
sS'04689'
p3212
I333
sS'04688'
p3213
I165
sS'20038'
p3214
I389
sS'20032'
p3215
I119
sS'20033'
p3216
I246
sS'20030'
p3217
I72
sS'20031'
p3218
I378
sS'20036'
p3219
I367
sS'20037'
p3220
I123
sS'20034'
p3221
I40
sS'20035'
p3222
I368
sS'08231'
p3223
I364
sS'08236'
p3224
I43
sS'36629'
p3225
I262
sS'36624'
p3226
I43
sS'36625'
p3227
I121
sS'36626'
p3228
I95
sS'08239'
p3229
I378
sS'36620'
p3230
I78
sS'36621'
p3231
I250
sS'36622'
p3232
I270
sS'36623'
p3233
I85
sS'07019'
p3234
I455
sS'07018'
p3235
I158
sS'07016'
p3236
I328
sS'07015'
p3237
I323
sS'07014'
p3238
I327
sS'07013'
p3239
I333
sS'07011'
p3240
I209
sS'07010'
p3241
I247
sS'04060'
p3242
I884
sS'07909'
p3243
I196
sS'07908'
p3244
I315
sS'23109'
p3245
I189
sS'23108'
p3246
I182
sS'23103'
p3247
I202
sS'23102'
p3248
I196
sS'23101'
p3249
I240
sS'23100'
p3250
I207
sS'23107'
p3251
I215
sS'23106'
p3252
I236
sS'07907'
p3253
I231
sS'07906'
p3254
I293
sS'16090'
p3255
I587
sS'14173'
p3256
I36
sS'13967'
p3257
I184
sS'16546'
p3258
I159
sS'13968'
p3259
I170
sS'13969'
p3260
I162
sS'06509'
p3261
I45
sS'06502'
p3262
I30
sS'06503'
p3263
I64
sS'06504'
p3264
I44
sS'06505'
p3265
I34
sS'01189'
p3266
I215
sS'28106'
p3267
I482
sS'28107'
p3268
I444
sS'28104'
p3269
I433
sS'28105'
p3270
I415
sS'28102'
p3271
I473
sS'28103'
p3272
I470
sS'28100'
p3273
I544
sS'28101'
p3274
I429
sS'28108'
p3275
I470
sS'28109'
p3276
I467
sS'11578'
p3277
I22
sS'43570'
p3278
I401
sS'43572'
p3279
I429
sS'16172'
p3280
I79
sS'19301'
p3281
I474
sS'19302'
p3282
I472
sS'19303'
p3283
I246
sS'19304'
p3284
I290
sS'16174'
p3285
I195
sS'19307'
p3286
I463
sS'19308'
p3287
I443
sS'19309'
p3288
I408
sS'17229'
p3289
I243
sS'17228'
p3290
I201
sS'17225'
p3291
I283
sS'17224'
p3292
I282
sS'17227'
p3293
I271
sS'17226'
p3294
I243
sS'17221'
p3295
I275
sS'17220'
p3296
I222
sS'17223'
p3297
I202
sS'17222'
p3298
I131
sS'13428'
p3299
I209
sS'13426'
p3300
I149
sS'13425'
p3301
I176
sS'13424'
p3302
I174
sS'13423'
p3303
I181
sS'13422'
p3304
I196
sS'13421'
p3305
I188
sS'13420'
p3306
I157
sS'11683'
p3307
I341
sS'17237'
p3308
I297
sS'20629'
p3309
I366
sS'20628'
p3310
I366
sS'20624'
p3311
I367
sS'20623'
p3312
I367
sS'20622'
p3313
I374
sS'17231'
p3314
I242
sS'12086'
p3315
I580
sS'12087'
p3316
I553
sS'12084'
p3317
I612
sS'12085'
p3318
I574
sS'01182'
p3319
I282
sS'42227'
p3320
I522
sS'21406'
p3321
I204
sS'12088'
p3322
I587
sS'21407'
p3323
I244
sS'20481'
p3324
I364
sS'10028'
p3325
I194
sS'10029'
p3326
I255
sS'10026'
p3327
I210
sS'10027'
p3328
I209
sS'10024'
p3329
I143
sS'10025'
p3330
I204
sS'10022'
p3331
I242
sS'10023'
p3332
I248
sS'10020'
p3333
I198
sS'10021'
p3334
I239
sS'09207'
p3335
I47
sS'09334'
p3336
I61
sS'23186'
p3337
I313
sS'08575'
p3338
I52
sS'03070'
p3339
I50
sS'08577'
p3340
I56
sS'08576'
p3341
I359
sS'03075'
p3342
I63
sS'08573'
p3343
I355
sS'03076'
p3344
I64
sS'03079'
p3345
I44
sS'08579'
p3346
I386
sS'08578'
p3347
I55
sS'23189'
p3348
I307
sS'07278'
p3349
I243
sS'03298'
p3350
I62
sS'03297'
p3351
I65
sS'03296'
p3352
I60
sS'03290'
p3353
I59
sS'03293'
p3354
I57
sS'11047'
p3355
I78
sS'11046'
p3356
I67
sS'11045'
p3357
I50
sS'11044'
p3358
I21
sS'11043'
p3359
I30
sS'18023'
p3360
I330
sS'11040'
p3361
I105
sS'18028'
p3362
I315
sS'11048'
p3363
I170
sS'23590'
p3364
I164
sS'23591'
p3365
I163
sS'23592'
p3366
I177
sS'23593'
p3367
I205
sS'23594'
p3368
I128
sS'23595'
p3369
I196
sS'23596'
p3370
I127
sS'23597'
p3371
I124
sS'11300'
p3372
I42
sS'11301'
p3373
I42
sS'11302'
p3374
I42
sS'11303'
p3375
I52
sS'11304'
p3376
I81
sS'11305'
p3377
I84
sS'11306'
p3378
I58
sS'18060'
p3379
I259
sS'14188'
p3380
I30
sS'23378'
p3381
I162
sS'23379'
p3382
I158
sS'23374'
p3383
I135
sS'23375'
p3384
I177
sS'23376'
p3385
I183
sS'23377'
p3386
I169
sS'23370'
p3387
I149
sS'23371'
p3388
I135
sS'23372'
p3389
I139
sS'23373'
p3390
I143
sS'15216'
p3391
I158
sS'15217'
p3392
I119
sS'15214'
p3393
I133
sS'15215'
p3394
I252
sS'15212'
p3395
I153
sS'15213'
p3396
I135
sS'15210'
p3397
I231
sS'15211'
p3398
I154
sS'03812'
p3399
I131
sS'15218'
p3400
I114
sS'12539'
p3401
I619
sS'16099'
p3402
I327
sS'16098'
p3403
I598
sS'16549'
p3404
I238
sS'16548'
p3405
I213
sS'14187'
p3406
I48
sS'16091'
p3407
I570
sS'16542'
p3408
I346
sS'16093'
p3409
I570
sS'16092'
p3410
I579
sS'16095'
p3411
I563
sS'16094'
p3412
I589
sS'16097'
p3413
I589
sS'16096'
p3414
I578
sS'12652'
p3415
I569
sS'10879'
p3416
I117
sS'10878'
p3417
I119
sS'10871'
p3418
I123
sS'10870'
p3419
I123
sS'10873'
p3420
I137
sS'10872'
p3421
I116
sS'10875'
p3422
I150
sS'10874'
p3423
I145
sS'10877'
p3424
I131
sS'10876'
p3425
I126
sS'16326'
p3426
I114
sS'16325'
p3427
I118
sS'16323'
p3428
I129
sS'16320'
p3429
I136
sS'16328'
p3430
I127
sS'21059'
p3431
I308
sS'06249'
p3432
I94
sS'06248'
p3433
I55
sS'09439'
p3434
I51
sS'23458'
p3435
I208
sS'06241'
p3436
I61
sS'06240'
p3437
I85
sS'06243'
p3438
I65
sS'06242'
p3439
I78
sS'06245'
p3440
I57
sS'06244'
p3441
I45
sS'06246'
p3442
I75
sS'09436'
p3443
I51
sS'21237'
p3444
I257
sS'21235'
p3445
I258
sS'21234'
p3446
I244
sS'21233'
p3447
I263
sS'21232'
p3448
I282
sS'21230'
p3449
I276
sS'21239'
p3450
I213
sS'21238'
p3451
I323
sS'03840'
p3452
I71
sS'03841'
p3453
I66
sS'03842'
p3454
I128
sS'03843'
p3455
I517
sS'03844'
p3456
I126
sS'03845'
p3457
I66
sS'03846'
p3458
I66
sS'09438'
p3459
I61
sS'09437'
p3460
I57
sS'03849'
p3461
I514
sS'09435'
p3462
I63
sS'09434'
p3463
I59
sS'09433'
p3464
I47
sS'09432'
p3465
I55
sS'09431'
p3466
I57
sS'09430'
p3467
I51
sS'14022'
p3468
I5
sS'14021'
p3469
I45
sS'14026'
p3470
I4
sS'14027'
p3471
I119
sS'14024'
p3472
I383
sS'14025'
p3473
I164
sS'14028'
p3474
I87
sS'14029'
p3475
I153
sS'17056'
p3476
I288
sS'01199'
p3477
I59
sS'17054'
p3478
I281
sS'17055'
p3479
I151
sS'17052'
p3480
I345
sS'17053'
p3481
I278
sS'17050'
p3482
I192
sS'17051'
p3483
I259
sS'01190'
p3484
I148
sS'01191'
p3485
I303
sS'01192'
p3486
I222
sS'01193'
p3487
I152
sS'01194'
p3488
I91
sS'17058'
p3489
I209
sS'17059'
p3490
I134
sS'18376'
p3491
I383
sS'18377'
p3492
I447
sS'18374'
p3493
I105
sS'18375'
p3494
I325
sS'18239'
p3495
I406
sS'14323'
p3496
I49
sS'18233'
p3497
I497
sS'18232'
p3498
I455
sS'18231'
p3499
I494
sS'14450'
p3500
I388
sS'18237'
p3501
I360
sS'18236'
p3502
I383
sS'18235'
p3503
I427
sS'18234'
p3504
I495
sS'09293'
p3505
I124
sS'09292'
p3506
I107
sS'09291'
p3507
I240
sS'09290'
p3508
I113
sS'09297'
p3509
I302
sS'09296'
p3510
I57
sS'09295'
p3511
I38
sS'09294'
p3512
I71
sS'04665'
p3513
I714
sS'04664'
p3514
I884
sS'09299'
p3515
I296
sS'09298'
p3516
I299
sS'04661'
p3517
I880
sS'04660'
p3518
I884
sS'04663'
p3519
I884
sS'04662'
p3520
I880
sS'08218'
p3521
I412
sS'44158'
p3522
I181
sS'08210'
p3523
I374
sS'08211'
p3524
I412
sS'08214'
p3525
I379
sS'08215'
p3526
I379
sS'08216'
p3527
I372
sS'04001'
p3528
I902
sS'04002'
p3529
I902
sS'17057'
p3530
I211
sS'09118'
p3531
I32
sS'06740'
p3532
I40
sS'06742'
p3533
I44
sS'06748'
p3534
I47
sS'06749'
p3535
I48
sS'07927'
p3536
I158
sS'07926'
p3537
I425
sS'07925'
p3538
I95
sS'23162'
p3539
I234
sS'07923'
p3540
I176
sS'07922'
p3541
I297
sS'07921'
p3542
I517
sS'07920'
p3543
I307
sS'23169'
p3544
I206
sS'23168'
p3545
I282
sS'07929'
p3546
I158
sS'07928'
p3547
I216
sS'13959'
p3548
I167
sS'06528'
p3549
I23
sS'06529'
p3550
I49
sS'13869'
p3551
I247
sS'35059'
p3552
I136
sS'31005'
p3553
I20
sS'28128'
p3554
I547
sS'28129'
p3555
I488
sS'35057'
p3556
I899
sS'28124'
p3557
I535
sS'28125'
p3558
I546
sS'28126'
p3559
I540
sS'28127'
p3560
I541
sS'28120'
p3561
I456
sS'31007'
p3562
I21
sS'28122'
p3563
I468
sS'28123'
p3564
I483
sS'31006'
p3565
I21
sS'31001'
p3566
I21
sS'35053'
p3567
I104
sS'35050'
p3568
I135
sS'31002'
p3569
I21
sS'11519'
p3570
I142
sS'11518'
p3571
I112
sS'11514'
p3572
I101
sS'11517'
p3573
I100
sS'11516'
p3574
I96
sS'11510'
p3575
I76
sS'11512'
p3576
I91
sS'16158'
p3577
I166
sS'16159'
p3578
I83
sS'16150'
p3579
I520
sS'16155'
p3580
I591
sS'16156'
p3581
I593
sS'16157'
p3582
I387
sS'17209'
p3583
I276
sS'17208'
p3584
I104
sS'17203'
p3585
I192
sS'17202'
p3586
I140
sS'17201'
p3587
I238
sS'17200'
p3588
I220
sS'17207'
p3589
I90
sS'17206'
p3590
I113
sS'17205'
p3591
I95
sS'17204'
p3592
I193
sS'25039'
p3593
I389
sS'25038'
p3594
I455
sS'25035'
p3595
I412
sS'25034'
p3596
I393
sS'25037'
p3597
I457
sS'25036'
p3598
I451
sS'25031'
p3599
I422
sS'25030'
p3600
I517
sS'25033'
p3601
I429
sS'25032'
p3602
I390
sS'23156'
p3603
I221
sS'23157'
p3604
I229
sS'18230'
p3605
I477
sS'20010'
p3606
I92
sS'20011'
p3607
I335
sS'20012'
p3608
I342
sS'20013'
p3609
I83
sS'04669'
p3610
I884
sS'04668'
p3611
I714
sS'10004'
p3612
I812
sS'10005'
p3613
I518
sS'10006'
p3614
I632
sS'10007'
p3615
I626
sS'10000'
p3616
I585
sS'10001'
p3617
I376
sS'10002'
p3618
I134
sS'10003'
p3619
I211
sS'20017'
p3620
I363
sS'10008'
p3621
I245
sS'10009'
p3622
I273
sS'20018'
p3623
I375
sS'20019'
p3624
I363
sS'04667'
p3625
I884
sS'23064'
p3626
I182
sS'04666'
p3627
I884
sS'23065'
p3628
I172
sS'05059'
p3629
I222
sS'23066'
p3630
I175
sS'23067'
p3631
I161
sS'23060'
p3632
I222
sS'28082'
p3633
I537
sS'23062'
p3634
I177
sS'23063'
p3635
I142
sS'05277'
p3636
I165
sS'17328'
p3637
I164
sS'09352'
p3638
I88
sS'09353'
p3639
I107
sS'09351'
p3640
I70
sS'09357'
p3641
I83
sS'09354'
p3642
I60
sS'17329'
p3643
I231
sS'08553'
p3644
I400
sS'08550'
p3645
I397
sS'03059'
p3646
I69
sS'08554'
p3647
I413
sS'08005'
p3648
I257
sS'03055'
p3649
I96
sS'03054'
p3650
I77
sS'03053'
p3651
I77
sS'03052'
p3652
I51
sS'08003'
p3653
I375
sS'08002'
p3654
I389
sS'16040'
p3655
I343
sS'13001'
p3656
I291
sS'13000'
p3657
I117
sS'13002'
p3658
I278
sS'18009'
p3659
I338
sS'18005'
p3660
I274
sS'18006'
p3661
I294
sS'18007'
p3662
I255
sS'18001'
p3663
I264
sS'18002'
p3664
I287
sS'18003'
p3665
I278
sS'23290'
p3666
I187
sS'18172'
p3667
I416
sS'23578'
p3668
I279
sS'23579'
p3669
I248
sS'23576'
p3670
I254
sS'23577'
p3671
I293
sS'23574'
p3672
I246
sS'23575'
p3673
I272
sS'23572'
p3674
I254
sS'23573'
p3675
I270
sS'23570'
p3676
I256
sS'23571'
p3677
I240
sS'15186'
p3678
I128
sS'15187'
p3679
I146
sS'15184'
p3680
I116
sS'15185'
p3681
I186
sS'15182'
p3682
I153
sS'15183'
p3683
I198
sS'15180'
p3684
I141
sS'15181'
p3685
I139
sS'15188'
p3686
I124
sS'15189'
p3687
I159
sS'23318'
p3688
I129
sS'23319'
p3689
I289
sS'23312'
p3690
I331
sS'23313'
p3691
I234
sS'23310'
p3692
I237
sS'23311'
p3693
I223
sS'23316'
p3694
I217
sS'23317'
p3695
I140
sS'23314'
p3696
I330
sS'23315'
p3697
I127
sS'16200'
p3698
I123
sS'15239'
p3699
I178
sS'15234'
p3700
I119
sS'15235'
p3701
I144
sS'12516'
p3702
I574
sS'15237'
p3703
I206
sS'15230'
p3704
I164
sS'15231'
p3705
I163
sS'15232'
p3706
I105
sS'15233'
p3707
I105
sS'16521'
p3708
I109
sS'16523'
p3709
I124
sS'16522'
p3710
I113
sS'16525'
p3711
I200
sS'16524'
p3712
I155
sS'16527'
p3713
I245
sS'16526'
p3714
I154
sS'16529'
p3715
I209
sS'16528'
p3716
I213
sS'12632'
p3717
I716
sS'12635'
p3718
I594
sS'12637'
p3719
I607
sS'12638'
p3720
I615
sS'05128'
p3721
I194
sS'16202'
p3722
I67
sS'10856'
p3723
I145
sS'10855'
p3724
I167
sS'10854'
p3725
I118
sS'10853'
p3726
I110
sS'10852'
p3727
I119
sS'10851'
p3728
I106
sS'05658'
p3729
I155
sS'10859'
p3730
I190
sS'10858'
p3731
I169
sS'05657'
p3732
I119
sS'05124'
p3733
I285
sS'35155'
p3734
I61
sS'05655'
p3735
I114
sS'16203'
p3736
I60
sS'21033'
p3737
I180
sS'21032'
p3738
I196
sS'21034'
p3739
I175
sS'05121'
p3740
I251
sS'05120'
p3741
I178
sS'06264'
p3742
I72
sS'05651'
p3743
I125
sS'05650'
p3744
I156
sS'16204'
p3745
I63
sS'43382'
p3746
I46
sS'43387'
p3747
I19
sS'43384'
p3748
I310
sS'43432'
p3749
I81
sS'05048'
p3750
I319
sS'05049'
p3751
I331
sS'05046'
p3752
I192
sS'05047'
p3753
I629
sS'05044'
p3754
I239
sS'05045'
p3755
I205
sS'05042'
p3756
I159
sS'05043'
p3757
I125
sS'05040'
p3758
I192
sS'05041'
p3759
I173
sS'03819'
p3760
I483
sS'11726'
p3761
I15
sS'11727'
p3762
I15
sS'11724'
p3763
I35
sS'11725'
p3764
I35
sS'11722'
p3765
I31
sS'11723'
p3766
I35
sS'11720'
p3767
I162
sS'11721'
p3768
I20
sS'35056'
p3769
I110
sS'11728'
p3770
I15
sS'11729'
p3771
I22
sS'14009'
p3772
I125
sS'14003'
p3773
I43
sS'14004'
p3774
I41
sS'14005'
p3775
I28
sS'14006'
p3776
I29
sS'14007'
p3777
I29
sS'17078'
p3778
I142
sS'17079'
p3779
I199
sS'17074'
p3780
I126
sS'17075'
p3781
I181
sS'17076'
p3782
I298
sS'17077'
p3783
I315
sS'17070'
p3784
I122
sS'17071'
p3785
I209
sS'17072'
p3786
I206
sS'17073'
p3787
I246
sS'36404'
p3788
I146
sS'36405'
p3789
I151
sS'36406'
p3790
I142
sS'36407'
p3791
I182
sS'36401'
p3792
I174
sS'14617'
p3793
I29
sS'36403'
p3794
I335
sS'36408'
p3795
I229
sS'36409'
p3796
I256
sS'35054'
p3797
I56
sS'04649'
p3798
I884
sS'04648'
p3799
I884
sS'35055'
p3800
I351
sS'04643'
p3801
I884
sS'04642'
p3802
I884
sS'04641'
p3803
I238
sS'04640'
p3804
I196
sS'04646'
p3805
I884
sS'04645'
p3806
I884
sS'04644'
p3807
I884
sS'35052'
p3808
I81
sS'09015'
p3809
I47
sS'09014'
p3810
I48
sS'09017'
p3811
I166
sS'09016'
p3812
I46
sS'09011'
p3813
I243
sS'09010'
p3814
I74
sS'09013'
p3815
I83
sS'09012'
p3816
I57
sS'09019'
p3817
I42
sS'09018'
p3818
I47
sS'04029'
p3819
I482
sS'04028'
p3820
I97
sS'08493'
p3821
I390
sS'08491'
p3822
I388
sS'08494'
p3823
I425
sS'08495'
p3824
I397
sS'11052'
p3825
I31
sS'18251'
p3826
I417
sS'18250'
p3827
I426
sS'18253'
p3828
I412
sS'11053'
p3829
I35
sS'18255'
p3830
I421
sS'18254'
p3831
I361
sS'18256'
p3832
I340
sS'18259'
p3833
I270
sS'18258'
p3834
I227
sS'11056'
p3835
I22
sS'10136'
p3836
I178
sS'35051'
p3837
I155
sS'18310'
p3838
I353
sS'14126'
p3839
I82
sS'11957'
p3840
I31
sS'06720'
p3841
I438
sS'14124'
p3842
I81
sS'06726'
p3843
I80
sS'06725'
p3844
I99
sS'06728'
p3845
I80
sS'06729'
p3846
I77
sS'16037'
p3847
I337
sS'14121'
p3848
I0
sS'16036'
p3849
I123
sS'14120'
p3850
I76
sS'16035'
p3851
I329
sS'16034'
p3852
I81
sS'16033'
p3853
I127
sS'19020'
p3854
I443
sS'23149'
p3855
I192
sS'23148'
p3856
I217
sS'23147'
p3857
I219
sS'23146'
p3858
I231
sS'23145'
p3859
I216
sS'19022'
p3860
I448
sS'23143'
p3861
I223
sS'23142'
p3862
I267
sS'23141'
p3863
I283
sS'23140'
p3864
I277
sS'19244'
p3865
I410
sS'06091'
p3866
I12
sS'06094'
p3867
I293
sS'19247'
p3868
I244
sS'06097'
p3869
I16
sS'19246'
p3870
I371
sS'19241'
p3871
I408
sS'19240'
p3872
I389
sS'19243'
p3873
I530
sS'18314'
p3874
I276
sS'28148'
p3875
I489
sS'28149'
p3876
I443
sS'28142'
p3877
I526
sS'28143'
p3878
I431
sS'28140'
p3879
I486
sS'28141'
p3880
I487
sS'28146'
p3881
I462
sS'28147'
p3882
I483
sS'28144'
p3883
I450
sS'28145'
p3884
I483
sS'11533'
p3885
I26
sS'11531'
p3886
I16
sS'11530'
p3887
I18
sS'11537'
p3888
I15
sS'16162'
p3889
I62
sS'23178'
p3890
I191
sS'18317'
p3891
I210
sS'16165'
p3892
I38
sS'25018'
p3893
I325
sS'25013'
p3894
I491
sS'25012'
p3895
I532
sS'25010'
p3896
I347
sS'25017'
p3897
I363
sS'25016'
p3898
I386
sS'25015'
p3899
I415
sS'25014'
p3900
I557
sS'23179'
p3901
I142
sS'16164'
p3902
I37
sS'42267'
p3903
I43
sS'42266'
p3904
I48
sS'42265'
p3905
I378
sS'42261'
p3906
I403
sS'17261'
p3907
I296
sS'17260'
p3908
I273
sS'17263'
p3909
I317
sS'17262'
p3910
I311
sS'17265'
p3911
I342
sS'17264'
p3912
I251
sS'17267'
p3913
I113
sS'17269'
p3914
I109
sS'17268'
p3915
I116
sS'17102'
p3916
I183
sS'10062'
p3917
I155
sS'10063'
p3918
I200
sS'10060'
p3919
I109
sS'10061'
p3920
I143
sS'10066'
p3921
I127
sS'10067'
p3922
I170
sS'10064'
p3923
I196
sS'10065'
p3924
I192
sS'10068'
p3925
I173
sS'10069'
p3926
I173
sS'05709'
p3927
I130
sS'05708'
p3928
I111
sS'05705'
p3929
I140
sS'05704'
p3930
I105
sS'05707'
p3931
I176
sS'05706'
p3932
I158
sS'05701'
p3933
I199
sS'05700'
p3934
I169
sS'05703'
p3935
I157
sS'05702'
p3936
I147
sS'01019'
p3937
I264
sS'01018'
p3938
I357
sS'01015'
p3939
I81
sS'01014'
p3940
I72
sS'01017'
p3941
I350
sS'01016'
p3942
I72
sS'01011'
p3943
I394
sS'01010'
p3944
I387
sS'01013'
p3945
I97
sS'01012'
p3946
I98
sS'13395'
p3947
I225
sS'09379'
p3948
I89
sS'13396'
p3949
I198
sS'13391'
p3950
I249
sS'13390'
p3951
I220
sS'13393'
p3952
I285
sS'13392'
p3953
I312
sS'09370'
p3954
I72
sS'09374'
p3955
I74
sS'13398'
p3956
I223
sS'08539'
p3957
I336
sS'08538'
p3958
I376
sS'08029'
p3959
I328
sS'08028'
p3960
I327
sS'08531'
p3961
I367
sS'08020'
p3962
I357
sS'08537'
p3963
I337
sS'03704'
p3964
I115
sS'11881'
p3965
I44
sS'11880'
p3966
I14
sS'14619'
p3967
I29
sS'11886'
p3968
I17
sS'11885'
p3969
I16
sS'11884'
p3970
I18
sS'14615'
p3971
I29
sS'14614'
p3972
I33
sS'11889'
p3973
I22
sS'14616'
p3974
I33
sS'14611'
p3975
I29
sS'14610'
p3976
I4
sS'14613'
p3977
I33
sS'14612'
p3978
I33
sS'23161'
p3979
I202
sS'23160'
p3980
I229
sS'23163'
p3981
I164
sS'13023'
p3982
I155
sS'13020'
p3983
I680
sS'23165'
p3984
I171
sS'23164'
p3985
I242
sS'23167'
p3986
I153
sS'23166'
p3987
I223
sS'33869'
p3988
I501
sS'33868'
p3989
I492
sS'11089'
p3990
I62
sS'11088'
p3991
I72
sS'11082'
p3992
I30
sS'11081'
p3993
I44
sS'11080'
p3994
I43
sS'11087'
p3995
I27
sS'11086'
p3996
I22
sS'18064'
p3997
I267
sS'11084'
p3998
I31
sS'15116'
p3999
I150
sS'07089'
p4000
I344
sS'23554'
p4001
I182
sS'23557'
p4002
I137
sS'23552'
p4003
I207
sS'23558'
p4004
I174
sS'23559'
p4005
I164
sS'23088'
p4006
I117
sS'23089'
p4007
I123
sS'23082'
p4008
I190
sS'23083'
p4009
I196
sS'23080'
p4010
I153
sS'23081'
p4011
I200
sS'23086'
p4012
I190
sS'23087'
p4013
I127
sS'23084'
p4014
I197
sS'23085'
p4015
I181
sS'23330'
p4016
I124
sS'23331'
p4017
I127
sS'23332'
p4018
I120
sS'23333'
p4019
I124
sS'23334'
p4020
I127
sS'23335'
p4021
I120
sS'23336'
p4022
I149
sS'23337'
p4023
I153
sS'23338'
p4024
I144
sS'23339'
p4025
I163
sS'15252'
p4026
I189
sS'15253'
p4027
I153
sS'15250'
p4028
I130
sS'15251'
p4029
I212
sS'19083'
p4030
I366
sS'19081'
p4031
I507
sS'19080'
p4032
I480
sS'16059'
p4033
I103
sS'16058'
p4034
I88
sS'16509'
p4035
I209
sS'16508'
p4036
I135
sS'16507'
p4037
I146
sS'16506'
p4038
I114
sS'16505'
p4039
I138
sS'16504'
p4040
I145
sS'16051'
p4041
I114
sS'16502'
p4042
I154
sS'16053'
p4043
I110
sS'16500'
p4044
I221
sS'23300'
p4045
I639
sS'23306'
p4046
I122
sS'08469'
p4047
I357
sS'21018'
p4048
I212
sS'19883'
p4049
I153
sS'19882'
p4050
I143
sS'19881'
p4051
I154
sS'19880'
p4052
I180
sS'19887'
p4053
I239
sS'19886'
p4054
I224
sS'21011'
p4055
I304
sS'19884'
p4056
I143
sS'06285'
p4057
I79
sS'15226'
p4058
I110
sS'14257'
p4059
I19
sS'14251'
p4060
I58
sS'43410'
p4061
I234
sS'43417'
p4062
I68
sS'18283'
p4063
I270
sS'15228'
p4064
I143
sS'14253'
p4065
I83
sS'14252'
p4066
I40
sS'11709'
p4067
I18
sS'11705'
p4068
I22
sS'11707'
p4069
I15
sS'11700'
p4070
I21
sS'11701'
p4071
I78
sS'11702'
p4072
I51
sS'11703'
p4073
I45
sS'17018'
p4074
I180
sS'17019'
p4075
I272
sS'17012'
p4076
I258
sS'17013'
p4077
I128
sS'17010'
p4078
I187
sS'17011'
p4079
I230
sS'17016'
p4080
I225
sS'17017'
p4081
I125
sS'17014'
p4082
I191
sS'17015'
p4083
I201
sS'17166'
p4084
I111
sS'17167'
p4085
I146
sS'28121'
p4086
I462
sS'05064'
p4087
I165
sS'05065'
p4088
I151
sS'05066'
p4089
I161
sS'05067'
p4090
I268
sS'05060'
p4091
I197
sS'05061'
p4092
I184
sS'05062'
p4093
I120
sS'05063'
p4094
I187
sS'05068'
p4095
I245
sS'05069'
p4096
I191
sS'04620'
p4097
I533
sS'04624'
p4098
I43
sS'04627'
p4099
I330
sS'04626'
p4100
I630
sS'04629'
p4101
I628
sS'04628'
p4102
I717
sS'08702'
p4103
I370
sS'08703'
p4104
I361
sS'08700'
p4105
I349
sS'08701'
p4106
I364
sS'08706'
p4107
I376
sS'08707'
p4108
I375
sS'08704'
p4109
I371
sS'08705'
p4110
I330
sS'08708'
p4111
I343
sS'08709'
p4112
I373
sS'17169'
p4113
I143
sS'09033'
p4114
I85
sS'09032'
p4115
I241
sS'09031'
p4116
I126
sS'09030'
p4117
I320
sS'09037'
p4118
I160
sS'09036'
p4119
I56
sS'09035'
p4120
I98
sS'09034'
p4121
I113
sS'16558'
p4122
I236
sS'09039'
p4123
I120
sS'09038'
p4124
I167
sS'14282'
p4125
I57
sS'14280'
p4126
I0
sS'14281'
p4127
I38
sS'14286'
p4128
I22
sS'14287'
p4129
I376
sS'14284'
p4130
I52
sS'14285'
p4131
I45
sS'18277'
p4132
I313
sS'14288'
p4133
I14
sS'18274'
p4134
I375
sS'18273'
p4135
I296
sS'18272'
p4136
I402
sS'18271'
p4137
I417
sS'18270'
p4138
I337
sS'15089'
p4139
I185
sS'15088'
p4140
I208
sS'15087'
p4141
I167
sS'15086'
p4142
I156
sS'15085'
p4143
I131
sS'15084'
p4144
I129
sS'15083'
p4145
I127
sS'15082'
p4146
I184
sS'15081'
p4147
I146
sS'15080'
p4148
I141
sS'35168'
p4149
I209
sS'13958'
p4150
I157
sS'16087'
p4151
I567
sS'01226'
p4152
I48
sS'01227'
p4153
I325
sS'01224'
p4154
I396
sS'01225'
p4155
I315
sS'01222'
p4156
I112
sS'01223'
p4157
I411
sS'01220'
p4158
I85
sS'01221'
p4159
I43
sS'13955'
p4160
I221
sS'01228'
p4161
I299
sS'01229'
p4162
I310
sS'13954'
p4163
I165
sS'06700'
p4164
I5
sS'13953'
p4165
I211
sS'13951'
p4166
I234
sS'13950'
p4167
I205
sS'14426'
p4168
I153
sS'14427'
p4169
I45
sS'14424'
p4170
I172
sS'14425'
p4171
I49
sS'14422'
p4172
I329
sS'11143'
p4173
I16
sS'28302'
p4174
I386
sS'14421'
p4175
I65
sS'18021'
p4176
I195
sS'28308'
p4177
I463
sS'28309'
p4178
I460
sS'14428'
p4179
I113
sS'14429'
p4180
I0
sS'07083'
p4181
I230
sS'03928'
p4182
I502
sS'14551'
p4183
I263
sS'35089'
p4184
I131
sS'07088'
p4185
I182
sS'13818'
p4186
I359
sS'13819'
p4187
I230
sS'13816'
p4188
I341
sS'13817'
p4189
I265
sS'13814'
p4190
I295
sS'13815'
p4191
I248
sS'13812'
p4192
I309
sS'13813'
p4193
I239
sS'13810'
p4194
I302
sS'13811'
p4195
I249
sS'28160'
p4196
I467
sS'28161'
p4197
I415
sS'28162'
p4198
I367
sS'28163'
p4199
I395
sS'28164'
p4200
I397
sS'28165'
p4201
I387
sS'28167'
p4202
I416
sS'28168'
p4203
I375
sS'28169'
p4204
I379
sS'09516'
p4205
I52
sS'18562'
p4206
I424
sS'35225'
p4207
I470
sS'35227'
p4208
I93
sS'35226'
p4209
I137
sS'18567'
p4210
I381
sS'35229'
p4211
I120
sS'35228'
p4212
I102
sS'18566'
p4213
I407
sS'11551'
p4214
I35
sS'11553'
p4215
I42
sS'11555'
p4216
I59
sS'11557'
p4217
I41
sS'11559'
p4218
I32
sS'16229'
p4219
I43
sS'25071'
p4220
I416
sS'25070'
p4221
I426
sS'16336'
p4222
I123
sS'12039'
p4223
I619
sS'16338'
p4224
I140
sS'32026'
p4225
I168
sS'32027'
p4226
I215
sS'32024'
p4227
I362
sS'32025'
p4228
I195
sS'16262'
p4229
I133
sS'32023'
p4230
I116
sS'16260'
p4231
I100
sS'16261'
p4232
I133
sS'11945'
p4233
I130
sS'32028'
p4234
I228
sS'32029'
p4235
I355
sS'21471'
p4236
I274
sS'17249'
p4237
I267
sS'17248'
p4238
I269
sS'17247'
p4239
I337
sS'17246'
p4240
I244
sS'17245'
p4241
I269
sS'17244'
p4242
I268
sS'17243'
p4243
I338
sS'18965'
p4244
I418
sS'17241'
p4245
I341
sS'17240'
p4246
I340
sS'10048'
p4247
I136
sS'10049'
p4248
I208
sS'21472'
p4249
I310
sS'10040'
p4250
I127
sS'10041'
p4251
I200
sS'10042'
p4252
I180
sS'10043'
p4253
I194
sS'10044'
p4254
I186
sS'10045'
p4255
I261
sS'10046'
p4256
I222
sS'10047'
p4257
I248
sS'18961'
p4258
I484
sS'18960'
p4259
I433
sS'05729'
p4260
I102
sS'05728'
p4261
I158
sS'05723'
p4262
I173
sS'05722'
p4263
I159
sS'05721'
p4264
I102
sS'05720'
p4265
I127
sS'05727'
p4266
I144
sS'05726'
p4267
I115
sS'05725'
p4268
I158
sS'05236'
p4269
I482
sS'01039'
p4270
I369
sS'01038'
p4271
I387
sS'01033'
p4272
I392
sS'01032'
p4273
I420
sS'01031'
p4274
I253
sS'01030'
p4275
I368
sS'01037'
p4276
I138
sS'01036'
p4277
I174
sS'01035'
p4278
I351
sS'01034'
p4279
I352
sS'23194'
p4280
I248
sS'14639'
p4281
I47
sS'14638'
p4282
I54
sS'23195'
p4283
I303
sS'14633'
p4284
I4
sS'14632'
p4285
I101
sS'14631'
p4286
I413
sS'14630'
p4287
I4
sS'14637'
p4288
I18
sS'14636'
p4289
I39
sS'14635'
p4290
I46
sS'14634'
p4291
I77
sS'23625'
p4292
I135
sS'23190'
p4293
I290
sS'23191'
p4294
I300
sS'23192'
p4295
I255
sS'23193'
p4296
I260
sS'13047'
p4297
I198
sS'18040'
p4298
I292
sS'18041'
p4299
I275
sS'18042'
p4300
I262
sS'18043'
p4301
I245
sS'18044'
p4302
I250
sS'18045'
p4303
I275
sS'18047'
p4304
I274
sS'18048'
p4305
I297
sS'18049'
p4306
I201
sS'08513'
p4307
I381
sS'08512'
p4308
I47
sS'08511'
p4309
I48
sS'08510'
p4310
I413
sS'08049'
p4311
I374
sS'08048'
p4312
I357
sS'23533'
p4313
I186
sS'23531'
p4314
I196
sS'23536'
p4315
I177
sS'21224'
p4316
I268
sS'05058'
p4317
I260
sS'35194'
p4318
I341
sS'05055'
p4319
I239
sS'05054'
p4320
I288
sS'35193'
p4321
I135
sS'05050'
p4322
I331
sS'15270'
p4323
I85
sS'15271'
p4324
I99
sS'14199'
p4325
I45
sS'15274'
p4326
I110
sS'05053'
p4327
I137
sS'03185'
p4328
I379
sS'03184'
p4329
I402
sS'03187'
p4330
I82
sS'03186'
p4331
I391
sS'03181'
p4332
I376
sS'03189'
p4333
I394
sS'03188'
p4334
I83
sS'19719'
p4335
I242
sS'16078'
p4336
I343
sS'16073'
p4337
I79
sS'16072'
p4338
I115
sS'16071'
p4339
I338
sS'19710'
p4340
I369
sS'16077'
p4341
I119
sS'16076'
p4342
I371
sS'16075'
p4343
I126
sS'16074'
p4344
I335
sS'06119'
p4345
I48
sS'06118'
p4346
I367
sS'06115'
p4347
I313
sS'06114'
p4348
I16
sS'06117'
p4349
I125
sS'06116'
p4350
I53
sS'06112'
p4351
I89
sS'10899'
p4352
I148
sS'10898'
p4353
I171
sS'10893'
p4354
I109
sS'10892'
p4355
I123
sS'10891'
p4356
I130
sS'10890'
p4357
I122
sS'10895'
p4358
I515
sS'10894'
p4359
I507
sS'13597'
p4360
I124
sS'42240'
p4361
I409
sS'43476'
p4362
I94
sS'43479'
p4363
I134
sS'09423'
p4364
I257
sS'17388'
p4365
I156
sS'17389'
p4366
I120
sS'17382'
p4367
I255
sS'17383'
p4368
I164
sS'17380'
p4369
I159
sS'17381'
p4370
I121
sS'17386'
p4371
I162
sS'17387'
p4372
I131
sS'17384'
p4373
I155
sS'17385'
p4374
I116
sS'16381'
p4375
I105
sS'11768'
p4376
I33
sS'11769'
p4377
I36
sS'16384'
p4378
I105
sS'16386'
p4379
I116
sS'16389'
p4380
I599
sS'11763'
p4381
I27
sS'11760'
p4382
I37
sS'11761'
p4383
I23
sS'11766'
p4384
I22
sS'11767'
p4385
I20
sS'11764'
p4386
I18
sS'11765'
p4387
I20
sS'17030'
p4388
I361
sS'17031'
p4389
I359
sS'17032'
p4390
I169
sS'17033'
p4391
I235
sS'17034'
p4392
I232
sS'17035'
p4393
I264
sS'17036'
p4394
I344
sS'17037'
p4395
I278
sS'17038'
p4396
I276
sS'17039'
p4397
I144
sS'21464'
p4398
I153
sS'43278'
p4399
I239
sS'11120'
p4400
I14
sS'11122'
p4401
I17
sS'21291'
p4402
I265
sS'21290'
p4403
I263
sS'21293'
p4404
I275
sS'21292'
p4405
I309
sS'21295'
p4406
I306
sS'21294'
p4407
I276
sS'21297'
p4408
I291
sS'21296'
p4409
I291
sS'21299'
p4410
I266
sS'21298'
p4411
I248
sS'05008'
p4412
I269
sS'05009'
p4413
I239
sS'11125'
p4414
I35
sS'20521'
p4415
I157
sS'20522'
p4416
I370
sS'20523'
p4417
I164
sS'09239'
p4418
I42
sS'09238'
p4419
I44
sS'04609'
p4420
I897
sS'04606'
p4421
I889
sS'09237'
p4422
I24
sS'09236'
p4423
I39
sS'09231'
p4424
I97
sS'04602'
p4425
I499
sS'09233'
p4426
I60
sS'09232'
p4427
I51
sS'11013'
p4428
I15
sS'42128'
p4429
I124
sS'42129'
p4430
I230
sS'42120'
p4431
I76
sS'09059'
p4432
I103
sS'09050'
p4433
I57
sS'09053'
p4434
I57
sS'09052'
p4435
I88
sS'09055'
p4436
I85
sS'09054'
p4437
I51
sS'09057'
p4438
I50
sS'09056'
p4439
I88
sS'19407'
p4440
I550
sS'19406'
p4441
I454
sS'19405'
p4442
I427
sS'21435'
p4443
I239
sS'21434'
p4444
I231
sS'21437'
p4445
I297
sS'21436'
p4446
I269
sS'21431'
p4447
I170
sS'21430'
p4448
I153
sS'21433'
p4449
I236
sS'21432'
p4450
I179
sS'19403'
p4451
I458
sS'21439'
p4452
I274
sS'21438'
p4453
I268
sS'19401'
p4454
I436
sS'04541'
p4455
I884
sS'19400'
p4456
I519
sS'18927'
p4457
I490
sS'16511'
p4458
I103
sS'08189'
p4459
I389
sS'14538'
p4460
I359
sS'08180'
p4461
I71
sS'08182'
p4462
I59
sS'08183'
p4463
I62
sS'16512'
p4464
I80
sS'01208'
p4465
I274
sS'01209'
p4466
I282
sS'01204'
p4467
I265
sS'01205'
p4468
I251
sS'01206'
p4469
I482
sS'01200'
p4470
I149
sS'01202'
p4471
I78
sS'01203'
p4472
I105
sS'05090'
p4473
I179
sS'16514'
p4474
I102
sS'28362'
p4475
I458
sS'28363'
p4476
I467
sS'28360'
p4477
I446
sS'28361'
p4478
I457
sS'14408'
p4479
I49
sS'28367'
p4480
I499
sS'28364'
p4481
I459
sS'28365'
p4482
I469
sS'11164'
p4483
I36
sS'14405'
p4484
I175
sS'28368'
p4485
I239
sS'14407'
p4486
I386
sS'14400'
p4487
I37
sS'11161'
p4488
I32
sS'11162'
p4489
I33
sS'11163'
p4490
I33
sS'16515'
p4491
I123
sS'13834'
p4492
I386
sS'13835'
p4493
I400
sS'13830'
p4494
I288
sS'13831'
p4495
I315
sS'13832'
p4496
I330
sS'13833'
p4497
I355
sS'13838'
p4498
I316
sS'13839'
p4499
I338
sS'16516'
p4500
I117
sS'28188'
p4501
I365
sS'28189'
p4502
I380
sS'28186'
p4503
I382
sS'28187'
p4504
I361
sS'28184'
p4505
I438
sS'28185'
p4506
I440
sS'28182'
p4507
I398
sS'28183'
p4508
I433
sS'28180'
p4509
I400
sS'28181'
p4510
I397
sS'31016'
p4511
I14
sS'16517'
p4512
I135
sS'13871'
p4513
I198
sS'31014'
p4514
I13
sS'35203'
p4515
I162
sS'35202'
p4516
I62
sS'35201'
p4517
I129
sS'35200'
p4518
I156
sS'35207'
p4519
I541
sS'35206'
p4520
I91
sS'35205'
p4521
I42
sS'35204'
p4522
I162
sS'31012'
p4523
I21
sS'31013'
p4524
I21
sS'23275'
p4525
I178
sS'23274'
p4526
I186
sS'23277'
p4527
I164
sS'23276'
p4528
I188
sS'23271'
p4529
I169
sS'23270'
p4530
I187
sS'23273'
p4531
I208
sS'23272'
p4532
I199
sS'11577'
p4533
I35
sS'11576'
p4534
I21
sS'11575'
p4535
I29
sS'11574'
p4536
I22
sS'23279'
p4537
I238
sS'23278'
p4538
I242
sS'11570'
p4539
I14
sS'09446'
p4540
I309
sS'19382'
p4541
I397
sS'19383'
p4542
I560
sS'19384'
p4543
I364
sS'19387'
p4544
I113
sS'06583'
p4545
I440
sS'06580'
p4546
I37
sS'06586'
p4547
I23
sS'06587'
p4548
I26
sS'06584'
p4549
I87
sS'06585'
p4550
I33
sS'06588'
p4551
I46
sS'06589'
p4552
I52
sS'25059'
p4553
I384
sS'25056'
p4554
I480
sS'25055'
p4555
I415
sS'25054'
p4556
I423
sS'25053'
p4557
I487
sS'25052'
p4558
I408
sS'25051'
p4559
I346
sS'25050'
p4560
I515
sS'32008'
p4561
I349
sS'32009'
p4562
I354
sS'32004'
p4563
I334
sS'32005'
p4564
I164
sS'32006'
p4565
I284
sS'32007'
p4566
I287
sS'32000'
p4567
I359
sS'32001'
p4568
I129
sS'16242'
p4569
I41
sS'32003'
p4570
I148
sS'06326'
p4571
I42
sS'06327'
p4572
I34
sS'06324'
p4573
I42
sS'06325'
p4574
I67
sS'06322'
p4575
I34
sS'06323'
p4576
I33
sS'12008'
p4577
I332
sS'06321'
p4578
I76
sS'12006'
p4579
I486
sS'12007'
p4580
I359
sS'12004'
p4581
I217
sS'12005'
p4582
I367
sS'12003'
p4583
I168
sS'06328'
p4584
I34
sS'12001'
p4585
I191
sS'05194'
p4586
I208
sS'05195'
p4587
I197
sS'09284'
p4588
I89
sS'09285'
p4589
I101
sS'21604'
p4590
I250
sS'21605'
p4591
I257
sS'21602'
p4592
I254
sS'21603'
p4593
I259
sS'21600'
p4594
I247
sS'21601'
p4595
I254
sS'09287'
p4596
I41
sS'09281'
p4597
I41
sS'09282'
p4598
I58
sS'05665'
p4599
I150
sS'05741'
p4600
I165
sS'05740'
p4601
I108
sS'05743'
p4602
I183
sS'05742'
p4603
I161
sS'05745'
p4604
I205
sS'05744'
p4605
I206
sS'05747'
p4606
I151
sS'05746'
p4607
I157
sS'05749'
p4608
I148
sS'05748'
p4609
I145
sS'05219'
p4610
I114
sS'01050'
p4611
I191
sS'01053'
p4612
I340
sS'01052'
p4613
I292
sS'01055'
p4614
I135
sS'01054'
p4615
I257
sS'01057'
p4616
I88
sS'01056'
p4617
I198
sS'01059'
p4618
I63
sS'01058'
p4619
I178
sS'11374'
p4620
I44
sS'14651'
p4621
I46
sS'14654'
p4622
I392
sS'16245'
p4623
I53
sS'13067'
p4624
I202
sS'13066'
p4625
I263
sS'13065'
p4626
I165
sS'16246'
p4627
I74
sS'13069'
p4628
I237
sS'13068'
p4629
I149
sS'14136'
p4630
I34
sS'44258'
p4631
I365
sS'44259'
p4632
I351
sS'05664'
p4633
I138
sS'08069'
p4634
I369
sS'08068'
p4635
I387
sS'08067'
p4636
I377
sS'08066'
p4637
I383
sS'08065'
p4638
I381
sS'08064'
p4639
I375
sS'08061'
p4640
I324
sS'08060'
p4641
I318
sS'23519'
p4642
I161
sS'23048'
p4643
I162
sS'23049'
p4644
I150
sS'23046'
p4645
I188
sS'23047'
p4646
I137
sS'23044'
p4647
I212
sS'23513'
p4648
I129
sS'23042'
p4649
I228
sS'23043'
p4650
I166
sS'23516'
p4651
I175
sS'23517'
p4652
I189
sS'08001'
p4653
I259
sS'03051'
p4654
I75
sS'03050'
p4655
I68
sS'43059'
p4656
I590
sS'43058'
p4657
I394
sS'05137'
p4658
I130
sS'05134'
p4659
I226
sS'05135'
p4660
I234
sS'05132'
p4661
I258
sS'05133'
p4662
I232
sS'05130'
p4663
I213
sS'05131'
p4664
I157
sS'14412'
p4665
I0
sS'43329'
p4666
I263
sS'43325'
p4667
I165
sS'43327'
p4668
I145
sS'43326'
p4669
I172
sS'43450'
p4670
I115
sS'16011'
p4671
I94
sS'16010'
p4672
I105
sS'11298'
p4673
I75
sS'11299'
p4674
I71
sS'16015'
p4675
I132
sS'16014'
p4676
I341
sS'16017'
p4677
I130
sS'16016'
p4678
I339
sS'11292'
p4679
I27
sS'16018'
p4680
I91
sS'11290'
p4681
I28
sS'11291'
p4682
I32
sS'11296'
p4683
I276
sS'11297'
p4684
I36
sS'11294'
p4685
I32
sS'11295'
p4686
I258
sS'13523'
p4687
I133
sS'13520'
p4688
I143
sS'11740'
p4689
I28
sS'11741'
p4690
I28
sS'11742'
p4691
I35
sS'11743'
p4692
I28
sS'11744'
p4693
I28
sS'11745'
p4694
I36
sS'11746'
p4695
I42
sS'11747'
p4696
I88
sS'11748'
p4697
I8
sS'11749'
p4698
I24
sS'14416'
p4699
I2
sS'13293'
p4700
I140
sS'13294'
p4701
I145
sS'07911'
p4702
I305
sS'19144'
p4703
I468
sS'05028'
p4704
I167
sS'05029'
p4705
I186
sS'05020'
p4706
I124
sS'05021'
p4707
I277
sS'05022'
p4708
I157
sS'05023'
p4709
I94
sS'05024'
p4710
I154
sS'05025'
p4711
I153
sS'05026'
p4712
I185
sS'05027'
p4713
I119
sS'20098'
p4714
I124
sS'09219'
p4715
I37
sS'09218'
p4716
I53
sS'11145'
p4717
I18
sS'09213'
p4718
I147
sS'09212'
p4719
I37
sS'20092'
p4720
I126
sS'20093'
p4721
I288
sS'20094'
p4722
I131
sS'20095'
p4723
I289
sS'09215'
p4724
I37
sS'09214'
p4725
I148
sS'14414'
p4726
I336
sS'19142'
p4727
I486
sS'42148'
p4728
I529
sS'42140'
p4729
I200
sS'42141'
p4730
I71
sS'21413'
p4731
I169
sS'21412'
p4732
I182
sS'21411'
p4733
I282
sS'21410'
p4734
I295
sS'18945'
p4735
I468
sS'18944'
p4736
I290
sS'18947'
p4737
I521
sS'18946'
p4738
I506
sS'18949'
p4739
I416
sS'05685'
p4740
I386
sS'21419'
p4741
I358
sS'05687'
p4742
I183
sS'05680'
p4743
I149
sS'05681'
p4744
I164
sS'05682'
p4745
I110
sS'05683'
p4746
I164
sS'23660'
p4747
I298
sS'03689'
p4748
I116
sS'03682'
p4749
I111
sS'03681'
p4750
I84
sS'03686'
p4751
I86
sS'03685'
p4752
I96
sS'11963'
p4753
I16
sS'09077'
p4754
I76
sS'11946'
p4755
I11
sS'09075'
p4756
I102
sS'09074'
p4757
I83
sS'09073'
p4758
I67
sS'09072'
p4759
I54
sS'09071'
p4760
I46
sS'09070'
p4761
I63
sS'01263'
p4762
I141
sS'01260'
p4763
I309
sS'01266'
p4764
I127
sS'11944'
p4765
I91
sS'09079'
p4766
I308
sS'09078'
p4767
I46
sS'08305'
p4768
I390
sS'14134'
p4769
I81
sS'08309'
p4770
I385
sS'18365'
p4771
I285
sS'19036'
p4772
I384
sS'18367'
p4773
I291
sS'18361'
p4774
I370
sS'18360'
p4775
I476
sS'18363'
p4776
I218
sS'18362'
p4777
I388
sS'17457'
p4778
I226
sS'14137'
p4779
I36
sS'18369'
p4780
I53
sS'18368'
p4781
I291
sS'28348'
p4782
I321
sS'28349'
p4783
I365
sS'11108'
p4784
I3
sS'11109'
p4785
I25
sS'28340'
p4786
I310
sS'28341'
p4787
I239
sS'11100'
p4788
I41
sS'14461'
p4789
I32
sS'28344'
p4790
I456
sS'11107'
p4791
I8
sS'28346'
p4792
I263
sS'28347'
p4793
I215
sS'19030'
p4794
I261
sS'17454'
p4795
I187
sS'16027'
p4796
I333
sS'13852'
p4797
I341
sS'19256'
p4798
I463
sS'13850'
p4799
I254
sS'13851'
p4800
I291
sS'13856'
p4801
I246
sS'13857'
p4802
I278
sS'13854'
p4803
I304
sS'13855'
p4804
I359
sS'35047'
p4805
I424
sS'35046'
p4806
I79
sS'35041'
p4807
I74
sS'19254'
p4808
I546
sS'35043'
p4809
I37
sS'35042'
p4810
I489
sS'23196'
p4811
I273
sS'19923'
p4812
I490
sS'19924'
p4813
I269
sS'23253'
p4814
I143
sS'23252'
p4815
I179
sS'23251'
p4816
I206
sS'23250'
p4817
I195
sS'23257'
p4818
I174
sS'23256'
p4819
I171
sS'23255'
p4820
I135
sS'23254'
p4821
I149
sS'23259'
p4822
I170
sS'23258'
p4823
I165
sS'27019'
p4824
I45
sS'27018'
p4825
I53
sS'27015'
p4826
I56
sS'27014'
p4827
I71
sS'27017'
p4828
I41
sS'27013'
p4829
I71
sS'12041'
p4830
I326
sS'06731'
p4831
I117
sS'12024'
p4832
I565
sS'19908'
p4833
I399
sS'19909'
p4834
I347
sS'12021'
p4835
I517
sS'12022'
p4836
I342
sS'12023'
p4837
I573
sS'19902'
p4838
I546
sS'19903'
p4839
I579
sS'19906'
p4840
I388
sS'19907'
p4841
I398
sS'19904'
p4842
I598
sS'19905'
p4843
I550
sS'06309'
p4844
I68
sS'06307'
p4845
I172
sS'43154'
p4846
I50
sS'43155'
p4847
I49
sS'43158'
p4848
I360
sS'17175'
p4849
I234
sS'17174'
p4850
I162
sS'17177'
p4851
I136
sS'17176'
p4852
I221
sS'17171'
p4853
I175
sS'17170'
p4854
I133
sS'17173'
p4855
I134
sS'17172'
p4856
I102
sS'01077'
p4857
I61
sS'01076'
p4858
I61
sS'01074'
p4859
I208
sS'17179'
p4860
I206
sS'17178'
p4861
I197
sS'01071'
p4862
I194
sS'01070'
p4863
I577
sS'11829'
p4864
I93
sS'11828'
p4865
I93
sS'11825'
p4866
I16
sS'11824'
p4867
I26
sS'11827'
p4868
I20
sS'11826'
p4869
I111
sS'11821'
p4870
I31
sS'11820'
p4871
I21
sS'11823'
p4872
I28
sS'11822'
p4873
I26
sS'11438'
p4874
I68
sS'07930'
p4875
I268
sS'04510'
p4876
I884
sS'07931'
p4877
I276
sS'04517'
p4878
I884
sS'07932'
p4879
I80
sS'07933'
p4880
I79
sS'28339'
p4881
I309
sS'28338'
p4882
I298
sS'07936'
p4883
I211
sS'07937'
p4884
I336
sS'07938'
p4885
I122
sS'07939'
p4886
I269
sS'04144'
p4887
I76
sS'04145'
p4888
I717
sS'04146'
p4889
I631
sS'04141'
p4890
I459
sS'04142'
p4891
I233
sS'04143'
p4892
I292
sS'10196'
p4893
I260
sS'10197'
p4894
I273
sS'10194'
p4895
I211
sS'10195'
p4896
I255
sS'10192'
p4897
I224
sS'10193'
p4898
I292
sS'23353'
p4899
I154
sS'08613'
p4900
I362
sS'10198'
p4901
I252
sS'10199'
p4902
I152
sS'15108'
p4903
I89
sS'15109'
p4904
I99
sS'15106'
p4905
I173
sS'15107'
p4906
I92
sS'15104'
p4907
I105
sS'15105'
p4908
I135
sS'15102'
p4909
I128
sS'15103'
p4910
I123
sS'15100'
p4911
I124
sS'15101'
p4912
I100
sS'18084'
p4913
I389
sS'18085'
p4914
I179
sS'18086'
p4915
I258
sS'18087'
p4916
I366
sS'18080'
p4917
I412
sS'18081'
p4918
I386
sS'18082'
p4919
I195
sS'18088'
p4920
I257
sS'08631'
p4921
I354
sS'10919'
p4922
I234
sS'28087'
p4923
I487
sS'28086'
p4924
I529
sS'28085'
p4925
I470
sS'28084'
p4926
I485
sS'28083'
p4927
I533
sS'23061'
p4928
I143
sS'28081'
p4929
I506
sS'28080'
p4930
I511
sS'23068'
p4931
I169
sS'23069'
p4932
I234
sS'28089'
p4933
I497
sS'28088'
p4934
I498
sS'06151'
p4935
I184
sS'06150'
p4936
I172
sS'06152'
p4937
I54
sS'06159'
p4938
I66
sS'06158'
p4939
I96
sS'23392'
p4940
I208
sS'23393'
p4941
I184
sS'23390'
p4942
I247
sS'23391'
p4943
I264
sS'23397'
p4944
I193
sS'23394'
p4945
I198
sS'23395'
p4946
I205
sS'23398'
p4947
I129
sS'23399'
p4948
I265
sS'08476'
p4949
I379
sS'08471'
p4950
I359
sS'13647'
p4951
I123
sS'15238'
p4952
I160
sS'21422'
p4953
I351
sS'01267'
p4954
I366
sS'13649'
p4955
I121
sS'13648'
p4956
I125
sS'19029'
p4957
I609
sS'16039'
p4958
I113
sS'16038'
p4959
I140
sS'19025'
p4960
I486
sS'19024'
p4961
I466
sS'19027'
p4962
I432
sS'19026'
p4963
I508
sS'19021'
p4964
I426
sS'16032'
p4965
I337
sS'16031'
p4966
I124
sS'16030'
p4967
I330
sS'17348'
p4968
I152
sS'17349'
p4969
I123
sS'17346'
p4970
I191
sS'17347'
p4971
I149
sS'17344'
p4972
I187
sS'17345'
p4973
I150
sS'17342'
p4974
I162
sS'17343'
p4975
I157
sS'17340'
p4976
I167
sS'17341'
p4977
I156
sS'09452'
p4978
I51
sS'13500'
p4979
I196
sS'13501'
p4980
I202
sS'13502'
p4981
I187
sS'11435'
p4982
I37
sS'21421'
p4983
I274
sS'32014'
p4984
I297
sS'18370'
p4985
I51
sS'42304'
p4986
I141
sS'42307'
p4987
I718
sS'42303'
p4988
I271
sS'42309'
p4989
I450
sS'17157'
p4990
I143
sS'28156'
p4991
I424
sS'18371'
p4992
I97
sS'17156'
p4993
I109
sS'07976'
p4994
I183
sS'17407'
p4995
I274
sS'42161'
p4996
I204
sS'17406'
p4997
I332
sS'32018'
p4998
I363
sS'14390'
p4999
I29
sS'21479'
p5000
I255
sS'21478'
p5001
I283
sS'18969'
p5002
I334
sS'18968'
p5003
I250
sS'18967'
p5004
I238
sS'21470'
p5005
I267
sS'21473'
p5006
I279
sS'18964'
p5007
I452
sS'21475'
p5008
I247
sS'21474'
p5009
I256
sS'21477'
p5010
I265
sS'21476'
p5011
I279
sS'09271'
p5012
I83
sS'09270'
p5013
I78
sS'09273'
p5014
I53
sS'09272'
p5015
I86
sS'09275'
p5016
I51
sS'09274'
p5017
I179
sS'09277'
p5018
I122
sS'09276'
p5019
I33
sS'09279'
p5020
I46
sS'09278'
p5021
I116
sS'07972'
p5022
I286
sS'15219'
p5023
I190
sS'11774'
p5024
I79
sS'01240'
p5025
I354
sS'01241'
p5026
I186
sS'01242'
p5027
I200
sS'01243'
p5028
I129
sS'01244'
p5029
I147
sS'14192'
p5030
I398
sS'14190'
p5031
I0
sS'14191'
p5032
I1
sS'14196'
p5033
I377
sS'14197'
p5034
I400
sS'14194'
p5035
I55
sS'14195'
p5036
I400
sS'35153'
p5037
I187
sS'07973'
p5038
I368
sS'09099'
p5039
I57
sS'09098'
p5040
I45
sS'09095'
p5041
I107
sS'09094'
p5042
I249
sS'09097'
p5043
I46
sS'09096'
p5044
I32
sS'09091'
p5045
I69
sS'09090'
p5046
I53
sS'09093'
p5047
I107
sS'09092'
p5048
I88
sS'10857'
p5049
I122
sS'35150'
p5050
I140
sS'14440'
p5051
I0
sS'18342'
p5052
I310
sS'14334'
p5053
I47
sS'11123'
p5054
I22
sS'18347'
p5055
I273
sS'18346'
p5056
I286
sS'18345'
p5057
I236
sS'18344'
p5058
I307
sS'11128'
p5059
I25
sS'18349'
p5060
I277
sS'18348'
p5061
I266
sS'13878'
p5062
I208
sS'13879'
p5063
I173
sS'35069'
p5064
I84
sS'35068'
p5065
I156
sS'31018'
p5066
I25
sS'31019'
p5067
I259
sS'13870'
p5068
I218
sS'31017'
p5069
I21
sS'13872'
p5070
I254
sS'13873'
p5071
I223
sS'13874'
p5072
I187
sS'13875'
p5073
I240
sS'13876'
p5074
I212
sS'35064'
p5075
I159
sS'18141'
p5076
I391
sS'18140'
p5077
I379
sS'18144'
p5078
I374
sS'07073'
p5079
I235
sS'18146'
p5080
I361
sS'23239'
p5081
I173
sS'23238'
p5082
I305
sS'23231'
p5083
I241
sS'23230'
p5084
I228
sS'23233'
p5085
I360
sS'23232'
p5086
I208
sS'23235'
p5087
I341
sS'23234'
p5088
I372
sS'23237'
p5089
I336
sS'23236'
p5090
I324
sS'27033'
p5091
I54
sS'27032'
p5092
I111
sS'27030'
p5093
I47
sS'27035'
p5094
I350
sS'27034'
p5095
I53
sS'35240'
p5096
I186
sS'19920'
p5097
I212
sS'16201'
p5098
I108
sS'19922'
p5099
I481
sS'19255'
p5100
I520
sS'19252'
p5101
I474
sS'19250'
p5102
I520
sS'22996'
p5103
I126
sS'22995'
p5104
I113
sS'19258'
p5105
I458
sS'12040'
p5106
I617
sS'21469'
p5107
I230
sS'06363'
p5108
I51
sS'06361'
p5109
I141
sS'06366'
p5110
I71
sS'06367'
p5111
I71
sS'06364'
p5112
I48
sS'06365'
p5113
I71
sS'18970'
p5114
I297
sS'21463'
p5115
I84
sS'18973'
p5116
I249
sS'18974'
p5117
I398
sS'18975'
p5118
I385
sS'18976'
p5119
I445
sS'21465'
p5120
I172
sS'11464'
p5121
I34
sS'11467'
p5122
I19
sS'11461'
p5123
I23
sS'11463'
p5124
I29
sS'09266'
p5125
I50
sS'11468'
p5126
I23
sS'09267'
p5127
I32
sS'17153'
p5128
I188
sS'17152'
p5129
I143
sS'17151'
p5130
I212
sS'17150'
p5131
I146
sS'17409'
p5132
I157
sS'17408'
p5133
I273
sS'17155'
p5134
I201
sS'17154'
p5135
I509
sS'17405'
p5136
I212
sS'17404'
p5137
I186
sS'17159'
p5138
I160
sS'17158'
p5139
I122
sS'17401'
p5140
I376
sS'17400'
p5141
I162
sS'17403'
p5142
I247
sS'17402'
p5143
I337
sS'13319'
p5144
I196
sS'13318'
p5145
I143
sS'13317'
p5146
I295
sS'11809'
p5147
I40
sS'11808'
p5148
I71
sS'11803'
p5149
I22
sS'11802'
p5150
I12
sS'11801'
p5151
I16
sS'11800'
p5152
I19
sS'11807'
p5153
I26
sS'11806'
p5154
I26
sS'11805'
p5155
I42
sS'11804'
p5156
I34
sS'20118'
p5157
I521
sS'20115'
p5158
I99
sS'20114'
p5159
I336
sS'20117'
p5160
I131
sS'20116'
p5161
I356
sS'20111'
p5162
I382
sS'20110'
p5163
I138
sS'20113'
p5164
I475
sS'20112'
p5165
I132
sS'23610'
p5166
I178
sS'03304'
p5167
I78
sS'03302'
p5168
I429
sS'04128'
p5169
I339
sS'07934'
p5170
I226
sS'08133'
p5171
I88
sS'04120'
p5172
I457
sS'07935'
p5173
I134
sS'15124'
p5174
I186
sS'15126'
p5175
I128
sS'15127'
p5176
I109
sS'15121'
p5177
I86
sS'15123'
p5178
I103
sS'15128'
p5179
I187
sS'15129'
p5180
I95
sS'10911'
p5181
I167
sS'23299'
p5182
I594
sS'23298'
p5183
I596
sS'23297'
p5184
I562
sS'10078'
p5185
I194
sS'23296'
p5186
I509
sS'23295'
p5187
I191
sS'23294'
p5188
I138
sS'23293'
p5189
I234
sS'23292'
p5190
I170
sS'23002'
p5191
I276
sS'23003'
p5192
I208
sS'23000'
p5193
I130
sS'23001'
p5194
I214
sS'28069'
p5195
I441
sS'23007'
p5196
I215
sS'23004'
p5197
I263
sS'23005'
p5198
I223
sS'28065'
p5199
I479
sS'28064'
p5200
I490
sS'23008'
p5201
I281
sS'28066'
p5202
I470
sS'28061'
p5203
I505
sS'28060'
p5204
I502
sS'28062'
p5205
I464
sS'06179'
p5206
I35
sS'06178'
p5207
I36
sS'06177'
p5208
I50
sS'06176'
p5209
I51
sS'06175'
p5210
I220
sS'06174'
p5211
I16
sS'06172'
p5212
I36
sS'06170'
p5213
I13
sS'43365'
p5214
I22
sS'43364'
p5215
I503
sS'43367'
p5216
I208
sS'43366'
p5217
I221
sS'43369'
p5218
I49
sS'11258'
p5219
I67
sS'11259'
p5220
I82
sS'11257'
p5221
I16
sS'11254'
p5222
I74
sS'11255'
p5223
I66
sS'11252'
p5224
I14
sS'11253'
p5225
I15
sS'11250'
p5226
I13
sS'11251'
p5227
I17
sS'19009'
p5228
I446
sS'19008'
p5229
I560
sS'19003'
p5230
I538
sS'19002'
p5231
I410
sS'19001'
p5232
I525
sS'19000'
p5233
I422
sS'19007'
p5234
I499
sS'19005'
p5235
I510
sS'19004'
p5236
I523
sS'11784'
p5237
I13
sS'11785'
p5238
I54
sS'11786'
p5239
I60
sS'11787'
p5240
I36
sS'11780'
p5241
I22
sS'11781'
p5242
I23
sS'11782'
p5243
I33
sS'11783'
p5244
I33
sS'11788'
p5245
I50
sS'11789'
p5246
I37
sS'13877'
p5247
I166
sS'06470'
p5248
I10
sS'17215'
p5249
I156
sS'43585'
p5250
I73
sS'17213'
p5251
I256
sS'43589'
p5252
I179
sS'17219'
p5253
I125
sS'17364'
p5254
I112
sS'17365'
p5255
I234
sS'17366'
p5256
I180
sS'17367'
p5257
I84
sS'17360'
p5258
I149
sS'17361'
p5259
I142
sS'17362'
p5260
I674
sS'17363'
p5261
I121
sS'17368'
p5262
I168
sS'17369'
p5263
I136
sS'10072'
p5264
I148
sS'16410'
p5265
I469
sS'11372'
p5266
I88
sS'14309'
p5267
I372
sS'42189'
p5268
I56
sS'42186'
p5269
I127
sS'42187'
p5270
I127
sS'42185'
p5271
I107
sS'42183'
p5272
I550
sS'17092'
p5273
I638
sS'17093'
p5274
I642
sS'17090'
p5275
I112
sS'17091'
p5276
I196
sS'17096'
p5277
I238
sS'17097'
p5278
I211
sS'17094'
p5279
I117
sS'17095'
p5280
I211
sS'17098'
p5281
I160
sS'17099'
p5282
I107
sS'21457'
p5283
I293
sS'21324'
p5284
I323
sS'21327'
p5285
I272
sS'21321'
p5286
I228
sS'19147'
p5287
I522
sS'21329'
p5288
I283
sS'21328'
p5289
I312
sS'21459'
p5290
I338
sS'21458'
p5291
I310
sS'22980'
p5292
I108
sS'22981'
p5293
I111
sS'22982'
p5294
I99
sS'19413'
p5295
I385
sS'22984'
p5296
I100
sS'22985'
p5297
I104
sS'22986'
p5298
I121
sS'22987'
p5299
I101
sS'22988'
p5300
I375
sS'22989'
p5301
I110
sS'19143'
p5302
I538
sS'20581'
p5303
I364
sS'03913'
p5304
I471
sS'09259'
p5305
I262
sS'09258'
p5306
I97
sS'09257'
p5307
I74
sS'09256'
p5308
I57
sS'09255'
p5309
I47
sS'09254'
p5310
I50
sS'09253'
p5311
I29
sS'09252'
p5312
I57
sS'09251'
p5313
I54
sS'09250'
p5314
I94
sS'08699'
p5315
I401
sS'08128'
p5316
I369
sS'08129'
p5317
I96
sS'44005'
p5318
I884
sS'08695'
p5319
I351
sS'08124'
p5320
I366
sS'08697'
p5321
I342
sS'08122'
p5322
I362
sS'08123'
p5323
I68
sS'08692'
p5324
I387
sS'08693'
p5325
I394
sS'14117'
p5326
I82
sS'05624'
p5327
I154
sS'08348'
p5328
I346
sS'08349'
p5329
I391
sS'08346'
p5330
I401
sS'08347'
p5331
I396
sS'18328'
p5332
I278
sS'14318'
p5333
I85
sS'18321'
p5334
I285
sS'14315'
p5335
I372
sS'14316'
p5336
I87
sS'14317'
p5337
I411
sS'14310'
p5338
I86
sS'14311'
p5339
I428
sS'14312'
p5340
I88
sS'18326'
p5341
I243
sS'04593'
p5342
I902
sS'04592'
p5343
I902
sS'04591'
p5344
I902
sS'04590'
p5345
I902
sS'20322'
p5346
I370
sS'20323'
p5347
I334
sS'04595'
p5348
I884
sS'04594'
p5349
I902
sS'23217'
p5350
I187
sS'23216'
p5351
I233
sS'23215'
p5352
I253
sS'23214'
p5353
I245
sS'23213'
p5354
I230
sS'28293'
p5355
I503
sS'28290'
p5356
I562
sS'28291'
p5357
I509
sS'10972'
p5358
I218
sS'23219'
p5359
I174
sS'23218'
p5360
I195
sS'27051'
p5361
I124
sS'27050'
p5362
I150
sS'27053'
p5363
I129
sS'10973'
p5364
I121
sS'27055'
p5365
I192
sS'27054'
p5366
I133
sS'27057'
p5367
I160
sS'27056'
p5368
I170
sS'27059'
p5369
I257
sS'27058'
p5370
I132
sS'31034'
p5371
I22
sS'10978'
p5372
I301
sS'31036'
p5373
I106
sS'31030'
p5374
I138
sS'31031'
p5375
I193
sS'31032'
p5376
I28
sS'31033'
p5377
I20
sS'35009'
p5378
I327
sS'35008'
p5379
I130
sS'21337'
p5380
I640
sS'19279'
p5381
I549
sS'19274'
p5382
I373
sS'19270'
p5383
I216
sS'19271'
p5384
I192
sS'19272'
p5385
I341
sS'19273'
p5386
I342
sS'06340'
p5387
I81
sS'06437'
p5388
I95
sS'06434'
p5389
I49
sS'06343'
p5390
I97
sS'06432'
p5391
I12
sS'06433'
p5392
I78
sS'06430'
p5393
I35
sS'06431'
p5394
I81
sS'12060'
p5395
I501
sS'06349'
p5396
I56
sS'12062'
p5397
I590
sS'12063'
p5398
I598
sS'12065'
p5399
I607
sS'06438'
p5400
I57
sS'06439'
p5401
I45
sS'11442'
p5402
I26
sS'11447'
p5403
I27
sS'11446'
p5404
I35
sS'11445'
p5405
I43
sS'11444'
p5406
I49
sS'43112'
p5407
I97
sS'23006'
p5408
I289
sS'11448'
p5409
I22
sS'43114'
p5410
I331
sS'28068'
p5411
I486
sS'17139'
p5412
I168
sS'17138'
p5413
I204
sS'17429'
p5414
I157
sS'17428'
p5415
I94
sS'17131'
p5416
I110
sS'17130'
p5417
I186
sS'17133'
p5418
I171
sS'17132'
p5419
I198
sS'17135'
p5420
I252
sS'17134'
p5421
I152
sS'17137'
p5422
I110
sS'17136'
p5423
I202
sS'13339'
p5424
I224
sS'13338'
p5425
I319
sS'13333'
p5426
I105
sS'13332'
p5427
I271
sS'13331'
p5428
I235
sS'13330'
p5429
I276
sS'13337'
p5430
I236
sS'13335'
p5431
I854
sS'13334'
p5432
I145
sS'20139'
p5433
I132
sS'20138'
p5434
I337
sS'20133'
p5435
I364
sS'20132'
p5436
I404
sS'20131'
p5437
I361
sS'20130'
p5438
I345
sS'20137'
p5439
I120
sS'20136'
p5440
I159
sS'20135'
p5441
I362
sS'20134'
p5442
I108
sS'13853'
p5443
I263
sS'08599'
p5444
I317
sS'08598'
p5445
I323
sS'08596'
p5446
I344
sS'08595'
p5447
I403
sS'08594'
p5448
I412
sS'08593'
p5449
I380
sS'08592'
p5450
I375
sS'08591'
p5451
I350
sS'08590'
p5452
I365
sS'11861'
p5453
I15
sS'11860'
p5454
I16
sS'11863'
p5455
I37
sS'27027'
p5456
I31
sS'11865'
p5457
I34
sS'11864'
p5458
I56
sS'11867'
p5459
I39
sS'11866'
p5460
I40
sS'11869'
p5461
I30
sS'11868'
p5462
I50
sS'15142'
p5463
I155
sS'15143'
p5464
I86
sS'15140'
p5465
I83
sS'15141'
p5466
I83
sS'15146'
p5467
I82
sS'15147'
p5468
I77
sS'15144'
p5469
I90
sS'15145'
p5470
I77
sS'15148'
p5471
I89
sS'15149'
p5472
I71
sS'04025'
p5473
I680
sS'04023'
p5474
I195
sS'04022'
p5475
I141
sS'04021'
p5476
I102
sS'27028'
p5477
I47
sS'04020'
p5478
I222
sS'27029'
p5479
I47
sS'01165'
p5480
I373
sS'01164'
p5481
I197
sS'01167'
p5482
I374
sS'01166'
p5483
I356
sS'01161'
p5484
I248
sS'01160'
p5485
I275
sS'08017'
p5486
I380
sS'01169'
p5487
I398
sS'08546'
p5488
I409
sS'08015'
p5489
I397
sS'08012'
p5490
I417
sS'08013'
p5491
I376
sS'03109'
p5492
I60
sS'03046'
p5493
I99
sS'03105'
p5494
I24
sS'03104'
p5495
I28
sS'08011'
p5496
I397
sS'43046'
p5497
I398
sS'28049'
p5498
I502
sS'28048'
p5499
I420
sS'28043'
p5500
I450
sS'28041'
p5501
I414
sS'28040'
p5502
I426
sS'28047'
p5503
I437
sS'28046'
p5504
I450
sS'28045'
p5505
I459
sS'28044'
p5506
I506
sS'13935'
p5507
I230
sS'13934'
p5508
I189
sS'13937'
p5509
I171
sS'13931'
p5510
I214
sS'13930'
p5511
I243
sS'13933'
p5512
I313
sS'13932'
p5513
I257
sS'19013'
p5514
I359
sS'11274'
p5515
I22
sS'11275'
p5516
I16
sS'11276'
p5517
I14
sS'11277'
p5518
I12
sS'11270'
p5519
I27
sS'11271'
p5520
I26
sS'11272'
p5521
I20
sS'11273'
p5522
I19
sS'43346'
p5523
I95
sS'43345'
p5524
I227
sS'43344'
p5525
I151
sS'11278'
p5526
I33
sS'11279'
p5527
I22
sS'43340'
p5528
I451
sS'19061'
p5529
I442
sS'19063'
p5530
I480
sS'19062'
p5531
I484
sS'19065'
p5532
I479
sS'19064'
p5533
I387
sS'19067'
p5534
I338
sS'19069'
p5535
I459
sS'19068'
p5536
I375
sS'17414'
p5537
I252
sS'09226'
p5538
I43
sS'28342'
p5539
I257
sS'28343'
p5540
I329
sS'17302'
p5541
I208
sS'17303'
p5542
I235
sS'10907'
p5543
I243
sS'17301'
p5544
I215
sS'10901'
p5545
I129
sS'10900'
p5546
I112
sS'10903'
p5547
I191
sS'17305'
p5548
I188
sS'17308'
p5549
I143
sS'17309'
p5550
I183
sS'10909'
p5551
I121
sS'10908'
p5552
I179
sS'16432'
p5553
I116
sS'16436'
p5554
I147
sS'16434'
p5555
I118
sS'21303'
p5556
I287
sS'21302'
p5557
I282
sS'21301'
p5558
I302
sS'21300'
p5559
I271
sS'21307'
p5560
I272
sS'21306'
p5561
I318
sS'05628'
p5562
I108
sS'05629'
p5563
I156
sS'05626'
p5564
I112
sS'05627'
p5565
I168
sS'21309'
p5566
I302
sS'05625'
p5567
I102
sS'05622'
p5568
I163
sS'05191'
p5569
I157
sS'05192'
p5570
I189
sS'05193'
p5571
I144
sS'09221'
p5572
I43
sS'22969'
p5573
I100
sS'22966'
p5574
I87
sS'22965'
p5575
I70
sS'22962'
p5576
I230
sS'22963'
p5577
I240
sS'22960'
p5578
I190
sS'22961'
p5579
I253
sS'09508'
p5580
I53
sS'03938'
p5581
I524
sS'03939'
p5582
I63
sS'03934'
p5583
I68
sS'03935'
p5584
I67
sS'09501'
p5585
I57
sS'03937'
p5586
I130
sS'03930'
p5587
I67
sS'09506'
p5588
I49
sS'09504'
p5589
I63
sS'01284'
p5590
I103
sS'01285'
p5591
I82
sS'01286'
p5592
I78
sS'01287'
p5593
I73
sS'01280'
p5594
I84
sS'01281'
p5595
I80
sS'14158'
p5596
I78
sS'14159'
p5597
I88
sS'14156'
p5598
I5
sS'14157'
p5599
I41
sS'14154'
p5600
I43
sS'14155'
p5601
I34
sS'14152'
p5602
I86
sS'01289'
p5603
I41
sS'14150'
p5604
I48
sS'14151'
p5605
I0
sS'28267'
p5606
I528
sS'18306'
p5607
I245
sS'18305'
p5608
I232
sS'18304'
p5609
I269
sS'18303'
p5610
I251
sS'18302'
p5611
I265
sS'18301'
p5612
I237
sS'18300'
p5613
I208
sS'18309'
p5614
I270
sS'11976'
p5615
I27
sS'14370'
p5616
I401
sS'14371'
p5617
I35
sS'14376'
p5618
I2
sS'28265'
p5619
I492
sS'14375'
p5620
I338
sS'09304'
p5621
I91
sS'08104'
p5622
I360
sS'08105'
p5623
I55
sS'08106'
p5624
I366
sS'08107'
p5625
I62
sS'08100'
p5626
I370
sS'08101'
p5627
I52
sS'08102'
p5628
I370
sS'08103'
p5629
I50
sS'28264'
p5630
I478
sS'08363'
p5631
I200
sS'08365'
p5632
I348
sS'08366'
p5633
I366
sS'42150'
p5634
I96
sS'36012'
p5635
I325
sS'06426'
p5636
I57
sS'35029'
p5637
I55
sS'35028'
p5638
I79
sS'35027'
p5639
I51
sS'35026'
p5640
I83
sS'35025'
p5641
I260
sS'35024'
p5642
I41
sS'35023'
p5643
I122
sS'35022'
p5644
I326
sS'35021'
p5645
I786
sS'06423'
p5646
I24
sS'06350'
p5647
I87
sS'03837'
p5648
I524
sS'08146'
p5649
I366
sS'12071'
p5650
I458
sS'19218'
p5651
I130
sS'19219'
p5652
I104
sS'19212'
p5653
I101
sS'19213'
p5654
I85
sS'03832'
p5655
I66
sS'19216'
p5656
I485
sS'19217'
p5657
I24
sS'19214'
p5658
I77
sS'06418'
p5659
I45
sS'06419'
p5660
I24
sS'06414'
p5661
I74
sS'06415'
p5662
I56
sS'06416'
p5663
I48
sS'06417'
p5664
I23
sS'06410'
p5665
I37
sS'06411'
p5666
I63
sS'06413'
p5667
I16
sS'43282'
p5668
I227
sS'43283'
p5669
I239
sS'43287'
p5670
I213
sS'43285'
p5671
I131
sS'23093'
p5672
I128
sS'43130'
p5673
I233
sS'43131'
p5674
I189
sS'43132'
p5675
I197
sS'23092'
p5676
I194
sS'43134'
p5677
I290
sS'43135'
p5678
I149
sS'43137'
p5679
I197
sS'23095'
p5680
I130
sS'11429'
p5681
I16
sS'11428'
p5682
I18
sS'23097'
p5683
I215
sS'11423'
p5684
I20
sS'11422'
p5685
I26
sS'11424'
p5686
I34
sS'11427'
p5687
I20
sS'11426'
p5688
I104
sS'17117'
p5689
I228
sS'17116'
p5690
I130
sS'17115'
p5691
I177
sS'17114'
p5692
I218
sS'17113'
p5693
I120
sS'17112'
p5694
I228
sS'17447'
p5695
I175
sS'17446'
p5696
I131
sS'17449'
p5697
I538
sS'17448'
p5698
I244
sS'17119'
p5699
I112
sS'17118'
p5700
I184
sS'13351'
p5701
I220
sS'13350'
p5702
I153
sS'13353'
p5703
I111
sS'13352'
p5704
I228
sS'13355'
p5705
I147
sS'13354'
p5706
I209
sS'13357'
p5707
I312
sS'13356'
p5708
I170
sS'13359'
p5709
I178
sS'13358'
p5710
I133
sS'05363'
p5711
I112
sS'05362'
p5712
I257
sS'05361'
p5713
I226
sS'09190'
p5714
I43
sS'09191'
p5715
I44
sS'09192'
p5716
I28
sS'09193'
p5717
I115
sS'09194'
p5718
I81
sS'09195'
p5719
I145
sS'13977'
p5720
I205
sS'05295'
p5721
I120
sS'05294'
p5722
I157
sS'05293'
p5723
I126
sS'28328'
p5724
I425
sS'28329'
p5725
I440
sS'28326'
p5726
I465
sS'28327'
p5727
I384
sS'08665'
p5728
I400
sS'28324'
p5729
I350
sS'23144'
p5730
I227
sS'28322'
p5731
I241
sS'28323'
p5732
I384
sS'18538'
p5733
I406
sS'18539'
p5734
I406
sS'28320'
p5735
I245
sS'11849'
p5736
I18
sS'11848'
p5737
I21
sS'11847'
p5738
I15
sS'11846'
p5739
I34
sS'18532'
p5740
I420
sS'18533'
p5741
I435
sS'11843'
p5742
I132
sS'18535'
p5743
I403
sS'11841'
p5744
I172
sS'18537'
p5745
I421
sS'15168'
p5746
I199
sS'15169'
p5747
I102
sS'15160'
p5748
I142
sS'15162'
p5749
I2
sS'15163'
p5750
I79
sS'15164'
p5751
I86
sS'15165'
p5752
I172
sS'15166'
p5753
I82
sS'15167'
p5754
I51
sS'16510'
p5755
I126
sS'01141'
p5756
I171
sS'01140'
p5757
I158
sS'01146'
p5758
I415
sS'01145'
p5759
I717
sS'01144'
p5760
I444
sS'08121'
p5761
I71
sS'03129'
p5762
I56
sS'03128'
p5763
I63
sS'03122'
p5764
I64
sS'03121'
p5765
I50
sS'03120'
p5766
I65
sS'03127'
p5767
I37
sS'28021'
p5768
I239
sS'28020'
p5769
I381
sS'28023'
p5770
I294
sS'28022'
p5771
I296
sS'28025'
p5772
I307
sS'28024'
p5773
I265
sS'28027'
p5774
I503
sS'28026'
p5775
I295
sS'28029'
p5776
I520
sS'28028'
p5777
I519
sS'03100'
p5778
I32
sS'13919'
p5779
I324
sS'13918'
p5780
I267
sS'13913'
p5781
I224
sS'13912'
p5782
I278
sS'13911'
p5783
I237
sS'13910'
p5784
I264
sS'13917'
p5785
I247
sS'13916'
p5786
I310
sS'13915'
p5787
I281
sS'13914'
p5788
I250
sS'43109'
p5789
I338
sS'28366'
p5790
I320
sS'11212'
p5791
I121
sS'11213'
p5792
I17
sS'11210'
p5793
I35
sS'11211'
p5794
I109
sS'11216'
p5795
I80
sS'11214'
p5796
I19
sS'11215'
p5797
I149
sS'11218'
p5798
I14
sS'11219'
p5799
I15
sS'28071'
p5800
I475
sS'19049'
p5801
I463
sS'19048'
p5802
I457
sS'19047'
p5803
I384
sS'19046'
p5804
I547
sS'19045'
p5805
I502
sS'19043'
p5806
I531
sS'19042'
p5807
I487
sS'19041'
p5808
I544
sS'19040'
p5809
I526
sS'15243'
p5810
I87
sS'15245'
p5811
I59
sS'11398'
p5812
I178
sS'23406'
p5813
I239
sS'23407'
p5814
I161
sS'23404'
p5815
I131
sS'23405'
p5816
I208
sS'23402'
p5817
I202
sS'23403'
p5818
I125
sS'23401'
p5819
I194
sS'23408'
p5820
I164
sS'23409'
p5821
I116
sS'18978'
p5822
I192
sS'06064'
p5823
I57
sS'06067'
p5824
I39
sS'06061'
p5825
I112
sS'06063'
p5826
I93
sS'06062'
p5827
I47
sS'06068'
p5828
I59
sS'10918'
p5829
I186
sS'10923'
p5830
I177
sS'10922'
p5831
I123
sS'10921'
p5832
I124
sS'10920'
p5833
I155
sS'10927'
p5834
I139
sS'10926'
p5835
I118
sS'10925'
p5836
I180
sS'10924'
p5837
I191
sS'17320'
p5838
I155
sS'17321'
p5839
I233
sS'10929'
p5840
I177
sS'10928'
p5841
I114
sS'17324'
p5842
I137
sS'17325'
p5843
I238
sS'17326'
p5844
I262
sS'17327'
p5845
I291
sS'17416'
p5846
I275
sS'21149'
p5847
I240
sS'21148'
p5848
I238
sS'17417'
p5849
I294
sS'21145'
p5850
I243
sS'21144'
p5851
I301
sS'21147'
p5852
I233
sS'21146'
p5853
I248
sS'21141'
p5854
I168
sS'21140'
p5855
I114
sS'21143'
p5856
I228
sS'21142'
p5857
I370
sS'17415'
p5858
I322
sS'17412'
p5859
I231
sS'17413'
p5860
I287
sS'17410'
p5861
I122
sS'17411'
p5862
I307
sS'05600'
p5863
I118
sS'22944'
p5864
I147
sS'22945'
p5865
I220
sS'22946'
p5866
I197
sS'22947'
p5867
I210
sS'22940'
p5868
I95
sS'22941'
p5869
I87
sS'22942'
p5870
I95
sS'22943'
p5871
I198
sS'21493'
p5872
I319
sS'21492'
p5873
I328
sS'21491'
p5874
I333
sS'21490'
p5875
I182
sS'22948'
p5876
I181
sS'22949'
p5877
I189
sS'21495'
p5878
I277
sS'21494'
p5879
I273
sS'03959'
p5880
I48
sS'03952'
p5881
I128
sS'03953'
p5882
I66
sS'03950'
p5883
I522
sS'03951'
p5884
I127
sS'03956'
p5885
I98
sS'03957'
p5886
I517
sS'03954'
p5887
I517
sS'03955'
p5888
I71
sS'18497'
p5889
I363
sS'18494'
p5890
I366
sS'14171'
p5891
I31
sS'18490'
p5892
I390
sS'14179'
p5893
I71
sS'18499'
p5894
I245
sS'11988'
p5895
I284
sS'11989'
p5896
I32
sS'11982'
p5897
I345
sS'11983'
p5898
I121
sS'11980'
p5899
I21
sS'11981'
p5900
I29
sS'11986'
p5901
I23
sS'11987'
p5902
I33
sS'11984'
p5903
I32
sS'11985'
p5904
I103
sS'36060'
p5905
I229
sS'36061'
p5906
I219
sS'13166'
p5907
I246
sS'13165'
p5908
I221
sS'14350'
p5909
I389
sS'14351'
p5910
I88
sS'14352'
p5911
I1
sS'14353'
p5912
I315
sS'14355'
p5913
I1
sS'11184'
p5914
I75
sS'14357'
p5915
I401
sS'09383'
p5916
I38
sS'14327'
p5917
I51
sS'08160'
p5918
I371
sS'08161'
p5919
I71
sS'08164'
p5920
I65
sS'08165'
p5921
I65
sS'44048'
p5922
I257
sS'08168'
p5923
I52
sS'08169'
p5924
I50
sS'07066'
p5925
I204
sS'07065'
p5926
I396
sS'07062'
p5927
I232
sS'07063'
p5928
I288
sS'07060'
p5929
I141
sS'08388'
p5930
I336
sS'08389'
p5931
I349
sS'08386'
p5932
I367
sS'08387'
p5933
I364
sS'08384'
p5934
I342
sS'07061'
p5935
I282
sS'08383'
p5936
I358
sS'08380'
p5937
I354
sS'21456'
p5938
I274
sS'18977'
p5939
I420
sS'19188'
p5940
I362
sS'19189'
p5941
I120
sS'19182'
p5942
I225
sS'19183'
p5943
I142
sS'19181'
p5944
I394
sS'19186'
p5945
I161
sS'19187'
p5946
I348
sS'19184'
p5947
I378
sS'19185'
p5948
I111
sS'06384'
p5949
I82
sS'06387'
p5950
I44
sS'06380'
p5951
I141
sS'06383'
p5952
I78
sS'06388'
p5953
I53
sS'06389'
p5954
I57
sS'22983'
p5955
I106
sS'22122'
p5956
I210
sS'22123'
p5957
I168
sS'22120'
p5958
I135
sS'22121'
p5959
I132
sS'22126'
p5960
I218
sS'06475'
p5961
I3
sS'11050'
p5962
I30
sS'11407'
p5963
I218
sS'11406'
p5964
I153
sS'11403'
p5965
I158
sS'11402'
p5966
I147
sS'11401'
p5967
I65
sS'11400'
p5968
I78
sS'31015'
p5969
I27
sS'11409'
p5970
I333
sS'11408'
p5971
I260
sS'19230'
p5972
I418
sS'19231'
p5973
I103
sS'19232'
p5974
I113
sS'19233'
p5975
I89
sS'19234'
p5976
I94
sS'19235'
p5977
I93
sS'19236'
p5978
I568
sS'19238'
p5979
I521
sS'19239'
p5980
I517
sS'09528'
p5981
I44
sS'17464'
p5982
I276
sS'17463'
p5983
I291
sS'17462'
p5984
I193
sS'17461'
p5985
I236
sS'17460'
p5986
I143
sS'09525'
p5987
I158
sS'13379'
p5988
I334
sS'13378'
p5989
I195
sS'13377'
p5990
I212
sS'13375'
p5991
I283
sS'13373'
p5992
I297
sS'13372'
p5993
I244
sS'13371'
p5994
I358
sS'13370'
p5995
I205
sS'09526'
p5996
I160
sS'09520'
p5997
I63
sS'19877'
p5998
I137
sS'09523'
p5999
I24
sS'09522'
p6000
I45
sS'42063'
p6001
I11
sS'31010'
p6002
I21
sS'09178'
p6003
I319
sS'09176'
p6004
I60
sS'09177'
p6005
I73
sS'09174'
p6006
I47
sS'09175'
p6007
I51
sS'09172'
p6008
I60
sS'09173'
p6009
I286
sS'31011'
p6010
I21
sS'12176'
p6011
I202
sS'08694'
p6012
I361
sS'12174'
p6013
I557
sS'12175'
p6014
I360
sS'12170'
p6015
I526
sS'12171'
p6016
I607
sS'08696'
p6017
I347
sS'12179'
p6018
I501
sS'08690'
p6019
I390
sS'08691'
p6020
I353
sS'08120'
p6021
I379
sS'10118'
p6022
I149
sS'10119'
p6023
I159
sS'10116'
p6024
I219
sS'10117'
p6025
I100
sS'10114'
p6026
I304
sS'10115'
p6027
I199
sS'10112'
p6028
I85
sS'10113'
p6029
I99
sS'10110'
p6030
I134
sS'10111'
p6031
I165
sS'15050'
p6032
I158
sS'02044'
p6033
I23
sS'01129'
p6034
I155
sS'01128'
p6035
I196
sS'01121'
p6036
I102
sS'01120'
p6037
I99
sS'01123'
p6038
I143
sS'01122'
p6039
I105
sS'01125'
p6040
I322
sS'01124'
p6041
I52
sS'01127'
p6042
I307
sS'01126'
p6043
I296
sS'03141'
p6044
I57
sS'03140'
p6045
I70
sS'03143'
p6046
I47
sS'03142'
p6047
I44
sS'03145'
p6048
I51
sS'03144'
p6049
I51
sS'03147'
p6050
I66
sS'08449'
p6051
I360
sS'05076'
p6052
I273
sS'28223'
p6053
I481
sS'28222'
p6054
I483
sS'28221'
p6055
I497
sS'28009'
p6056
I265
sS'28008'
p6057
I318
sS'28007'
p6058
I331
sS'28006'
p6059
I258
sS'28005'
p6060
I255
sS'28004'
p6061
I253
sS'28003'
p6062
I245
sS'28002'
p6063
I266
sS'28001'
p6064
I259
sS'28000'
p6065
I300
sS'28225'
p6066
I505
sS'28224'
p6067
I486
sS'14356'
p6068
I338
sS'35180'
p6069
I382
sS'35181'
p6070
I159
sS'35182'
p6071
I95
sS'13972'
p6072
I137
sS'13975'
p6073
I169
sS'13974'
p6074
I133
sS'35186'
p6075
I224
sS'35187'
p6076
I258
sS'35188'
p6077
I113
sS'18116'
p6078
I356
sS'18117'
p6079
I416
sS'18114'
p6080
I437
sS'18112'
p6081
I350
sS'18110'
p6082
I324
sS'18119'
p6083
I319
sS'18501'
p6084
I370
sS'18505'
p6085
I229
sS'18507'
p6086
I208
sS'06955'
p6087
I58
sS'18506'
p6088
I201
sS'11238'
p6089
I34
sS'11239'
p6090
I38
sS'07241'
p6091
I329
sS'11230'
p6092
I298
sS'11231'
p6093
I34
sS'11232'
p6094
I37
sS'11233'
p6095
I49
sS'11234'
p6096
I28
sS'11235'
p6097
I28
sS'11236'
p6098
I30
sS'11237'
p6099
I258
sS'23428'
p6100
I196
sS'23429'
p6101
I155
sS'23424'
p6102
I150
sS'23425'
p6103
I133
sS'23426'
p6104
I126
sS'23427'
p6105
I119
sS'23420'
p6106
I602
sS'23421'
p6107
I157
sS'23422'
p6108
I178
sS'23423'
p6109
I87
sS'16619'
p6110
I112
sS'16618'
p6111
I189
sS'16613'
p6112
I205
sS'16611'
p6113
I227
sS'16610'
p6114
I192
sS'16617'
p6115
I123
sS'16616'
p6116
I197
sS'16615'
p6117
I122
sS'16614'
p6118
I149
sS'06043'
p6119
I79
sS'06042'
p6120
I61
sS'06041'
p6121
I56
sS'06040'
p6122
I68
sS'06047'
p6123
I56
sS'06046'
p6124
I88
sS'06045'
p6125
I46
sS'06044'
p6126
I68
sS'06049'
p6127
I125
sS'06048'
p6128
I48
sS'10949'
p6129
I171
sS'10948'
p6130
I117
sS'10940'
p6131
I361
sS'10943'
p6132
I116
sS'10942'
p6133
I508
sS'10945'
p6134
I227
sS'10944'
p6135
I106
sS'10947'
p6136
I170
sS'10946'
p6137
I122
sS'28303'
p6138
I412
sS'18320'
p6139
I268
sS'21162'
p6140
I205
sS'21161'
p6141
I205
sS'21160'
p6142
I183
sS'18323'
p6143
I224
sS'18322'
p6144
I289
sS'18325'
p6145
I412
sS'18324'
p6146
I407
sS'43075'
p6147
I10
sS'18327'
p6148
I204
sS'43078'
p6149
I329
sS'21347'
p6150
I319
sS'21346'
p6151
I196
sS'21345'
p6152
I262
sS'05661'
p6153
I172
sS'21343'
p6154
I313
sS'05667'
p6155
I207
sS'42290'
p6156
I35
sS'42291'
p6157
I590
sS'05668'
p6158
I180
sS'05669'
p6159
I258
sS'20324'
p6160
I348
sS'21349'
p6161
I313
sS'21348'
p6162
I86
sS'20325'
p6163
I355
sS'22928'
p6164
I298
sS'22929'
p6165
I99
sS'20320'
p6166
I362
sS'20321'
p6167
I157
sS'13498'
p6168
I332
sS'13499'
p6169
I157
sS'13492'
p6170
I166
sS'13493'
p6171
I158
sS'13490'
p6172
I182
sS'13491'
p6173
I162
sS'13496'
p6174
I238
sS'13497'
p6175
I277
sS'13494'
p6176
I270
sS'13495'
p6177
I241
sS'14113'
p6178
I83
sS'18479'
p6179
I417
sS'18478'
p6180
I438
sS'18477'
p6181
I391
sS'18476'
p6182
I412
sS'13147'
p6183
I388
sS'13148'
p6184
I471
sS'13149'
p6185
I173
sS'36048'
p6186
I104
sS'36049'
p6187
I271
sS'36044'
p6188
I195
sS'36045'
p6189
I144
sS'36046'
p6190
I104
sS'36047'
p6191
I102
sS'36040'
p6192
I194
sS'36041'
p6193
I185
sS'36042'
p6194
I184
sS'36043'
p6195
I191
sS'18619'
p6196
I476
sS'18610'
p6197
I418
sS'18612'
p6198
I548
sS'18615'
p6199
I388
sS'18614'
p6200
I407
sS'18617'
p6201
I424
sS'18616'
p6202
I287
sS'04539'
p6203
I484
sS'20345'
p6204
I130
sS'04534'
p6205
I884
sS'04536'
p6206
I884
sS'04531'
p6207
I763
sS'04530'
p6208
I884
sS'04532'
p6209
I884
sS'08148'
p6210
I351
sS'08639'
p6211
I358
sS'08637'
p6212
I378
sS'08142'
p6213
I357
sS'08143'
p6214
I56
sS'08144'
p6215
I342
sS'08145'
p6216
I62
sS'44061'
p6217
I356
sS'08147'
p6218
I337
sS'43408'
p6219
I47
sS'14297'
p6220
I27
sS'03089'
p6221
I67
sS'03084'
p6222
I48
sS'03085'
p6223
I53
sS'03081'
p6224
I52
sS'03082'
p6225
I52
sS'03083'
p6226
I56
sS'06451'
p6227
I75
sS'06453'
p6228
I30
sS'06454'
p6229
I81
sS'06456'
p6230
I36
sS'06457'
p6231
I48
sS'06459'
p6232
I78
sS'11397'
p6233
I204
sS'11396'
p6234
I76
sS'11395'
p6235
I199
sS'11394'
p6236
I167
sS'11393'
p6237
I178
sS'11392'
p6238
I135
sS'11391'
p6239
I219
sS'11390'
p6240
I82
sS'43245'
p6241
I385
sS'11399'
p6242
I192
sS'43241'
p6243
I388
sS'19433'
p6244
I415
sS'19436'
p6245
I381
sS'19437'
p6246
I379
sS'19434'
p6247
I432
sS'19435'
p6248
I342
sS'19438'
p6249
I414
sS'19439'
p6250
I390
sS'02025'
p6251
I525
sS'02024'
p6252
I508
sS'02027'
p6253
I265
sS'02026'
p6254
I341
sS'02021'
p6255
I335
sS'02020'
p6256
I331
sS'02023'
p6257
I271
sS'02022'
p6258
I475
sS'02029'
p6259
I292
sS'02028'
p6260
I282
sS'16281'
p6261
I85
sS'28078'
p6262
I516
sS'23038'
p6263
I184
sS'28076'
p6264
I506
sS'28077'
p6265
I507
sS'28074'
p6266
I482
sS'28075'
p6267
I512
sS'28072'
p6268
I482
sS'28073'
p6269
I504
sS'28070'
p6270
I471
sS'42040'
p6271
I268
sS'28296'
p6272
I409
sS'28297'
p6273
I412
sS'28294'
p6274
I507
sS'28295'
p6275
I310
sS'28292'
p6276
I482
sS'14231'
p6277
I481
sS'13394'
p6278
I193
sS'12158'
p6279
I207
sS'12154'
p6280
I619
sS'12155'
p6281
I654
sS'12156'
p6282
I500
sS'12157'
p6283
I643
sS'12151'
p6284
I560
sS'12152'
p6285
I572
sS'10134'
p6286
I145
sS'21344'
p6287
I282
sS'10137'
p6288
I120
sS'10130'
p6289
I110
sS'10132'
p6290
I140
sS'10138'
p6291
I136
sS'28298'
p6292
I345
sS'28299'
p6293
I436
sS'13399'
p6294
I187
sS'05688'
p6295
I146
sS'09154'
p6296
I22
sS'09156'
p6297
I47
sS'27052'
p6298
I143
sS'09150'
p6299
I29
sS'09152'
p6300
I22
sS'09153'
p6301
I17
sS'09159'
p6302
I30
sS'08286'
p6303
I355
sS'08284'
p6304
I381
sS'09007'
p6305
I67
sS'05689'
p6306
I180
sS'08288'
p6307
I395
sS'05345'
p6308
I196
sS'05344'
p6309
I406
sS'05347'
p6310
I260
sS'05346'
p6311
I197
sS'05341'
p6312
I205
sS'05343'
p6313
I176
sS'05342'
p6314
I137
sS'04034'
p6315
I884
sS'05349'
p6316
I215
sS'05348'
p6317
I184
sS'01107'
p6318
I70
sS'01106'
p6319
I69
sS'01105'
p6320
I77
sS'01104'
p6321
I62
sS'01103'
p6322
I76
sS'01102'
p6323
I83
sS'04037'
p6324
I884
sS'11584'
p6325
I65
sS'01109'
p6326
I108
sS'01108'
p6327
I97
sS'08023'
p6328
I395
sS'11585'
p6329
I19
sS'11583'
p6330
I72
sS'08463'
p6331
I358
sS'08462'
p6332
I338
sS'03169'
p6333
I46
sS'03168'
p6334
I43
sS'03167'
p6335
I51
sS'03166'
p6336
I47
sS'03165'
p6337
I62
sS'03164'
p6338
I61
sS'03163'
p6339
I83
sS'03162'
p6340
I70
sS'03161'
p6341
I51
sS'03160'
p6342
I63
sS'14255'
p6343
I47
sS'43031'
p6344
I470
sS'18284'
p6345
I396
sS'14256'
p6346
I46
sS'18282'
p6347
I316
sS'08025'
p6348
I394
sS'18280'
p6349
I321
sS'18281'
p6350
I346
sS'14259'
p6351
I23
sS'14258'
p6352
I45
sS'18288'
p6353
I233
sS'18289'
p6354
I368
sS'05091'
p6355
I221
sS'14618'
p6356
I29
sS'06449'
p6357
I61
sS'35169'
p6358
I115
sS'13957'
p6359
I201
sS'13956'
p6360
I174
sS'35164'
p6361
I367
sS'35165'
p6362
I371
sS'35162'
p6363
I122
sS'13952'
p6364
I249
sS'35160'
p6365
I255
sS'35161'
p6366
I271
sS'07081'
p6367
I100
sS'21388'
p6368
I403
sS'18139'
p6369
I357
sS'18134'
p6370
I297
sS'18135'
p6371
I423
sS'18131'
p6372
I397
sS'18133'
p6373
I290
sS'35001'
p6374
I353
sS'11888'
p6375
I38
sS'31035'
p6376
I31
sS'35003'
p6377
I258
sS'28227'
p6378
I469
sS'35004'
p6379
I20
sS'35007'
p6380
I155
sS'28226'
p6381
I514
sS'23198'
p6382
I292
sS'23199'
p6383
I303
sS'23628'
p6384
I206
sS'23629'
p6385
I187
sS'23626'
p6386
I202
sS'23627'
p6387
I155
sS'23624'
p6388
I158
sS'23197'
p6389
I291
sS'23622'
p6390
I228
sS'23623'
p6391
I148
sS'23620'
p6392
I175
sS'23621'
p6393
I193
sS'15076'
p6394
I142
sS'15077'
p6395
I117
sS'15074'
p6396
I195
sS'15075'
p6397
I257
sS'15072'
p6398
I143
sS'15073'
p6399
I76
sS'15070'
p6400
I90
sS'15071'
p6401
I109
sS'15078'
p6402
I179
sS'15079'
p6403
I120
sS'19821'
p6404
I462
sS'19823'
p6405
I487
sS'23448'
p6406
I453
sS'23449'
p6407
I345
sS'23442'
p6408
I271
sS'23443'
p6409
I243
sS'23440'
p6410
I178
sS'23441'
p6411
I140
sS'23446'
p6412
I228
sS'23447'
p6413
I159
sS'23444'
p6414
I103
sS'23445'
p6415
I77
sS'14291'
p6416
I2
sS'14293'
p6417
I40
sS'14292'
p6418
I196
sS'14294'
p6419
I2
sS'19375'
p6420
I341
sS'19371'
p6421
I413
sS'19370'
p6422
I405
sS'19372'
p6423
I404
sS'14296'
p6424
I380
sS'19379'
p6425
I453
sS'06029'
p6426
I46
sS'06028'
p6427
I61
sS'10963'
p6428
I113
sS'10962'
p6429
I156
sS'10961'
p6430
I128
sS'10960'
p6431
I155
sS'06023'
p6432
I68
sS'06022'
p6433
I53
sS'06025'
p6434
I61
sS'06024'
p6435
I33
sS'06027'
p6436
I56
sS'06026'
p6437
I117
sS'21101'
p6438
I310
sS'21100'
p6439
I273
sS'21102'
p6440
I250
sS'21105'
p6441
I257
sS'21107'
p6442
I297
sS'21106'
p6443
I279
sS'21109'
p6444
I254
sS'21108'
p6445
I263
sS'43057'
p6446
I354
sS'43507'
p6447
I312
sS'43506'
p6448
I323
sS'05648'
p6449
I115
sS'05649'
p6450
I120
sS'05138'
p6451
I164
sS'05139'
p6452
I404
sS'05136'
p6453
I229
sS'05641'
p6454
I165
sS'05642'
p6455
I175
sS'05643'
p6456
I117
sS'05644'
p6457
I111
sS'05645'
p6458
I141
sS'05646'
p6459
I127
sS'05647'
p6460
I164
sS'22908'
p6461
I164
sS'19017'
p6462
I438
sS'16513'
p6463
I160
sS'22900'
p6464
I97
sS'22901'
p6465
I307
sS'22902'
p6466
I274
sS'22903'
p6467
I274
sS'22904'
p6468
I107
sS'22905'
p6469
I99
sS'22906'
p6470
I204
sS'18934'
p6471
I289
sS'03998'
p6472
I503
sS'03999'
p6473
I514
sS'03996'
p6474
I405
sS'03997'
p6475
I391
sS'03994'
p6476
I109
sS'03995'
p6477
I92
sS'03992'
p6478
I66
sS'03993'
p6479
I66
sS'03990'
p6480
I66
sS'03991'
p6481
I66
sS'11616'
p6482
I22
sS'11617'
p6483
I20
sS'11614'
p6484
I25
sS'11615'
p6485
I311
sS'11613'
p6486
I21
sS'11618'
p6487
I150
sS'14138'
p6488
I81
sS'18459'
p6489
I372
sS'11948'
p6490
I122
sS'11949'
p6491
I101
sS'18453'
p6492
I404
sS'11947'
p6493
I12
sS'18451'
p6494
I283
sS'18450'
p6495
I325
sS'18457'
p6496
I393
sS'11943'
p6497
I23
sS'11940'
p6498
I91
sS'11941'
p6499
I11
sS'33863'
p6500
I510
sS'18936'
p6501
I239
sS'33862'
p6502
I514
sS'18066'
p6503
I248
sS'33864'
p6504
I129
sS'36028'
p6505
I183
sS'36029'
p6506
I234
sS'33867'
p6507
I512
sS'36022'
p6508
I356
sS'36023'
p6509
I297
sS'36020'
p6510
I325
sS'36021'
p6511
I120
sS'36026'
p6512
I327
sS'36027'
p6513
I295
sS'36024'
p6514
I293
sS'36025'
p6515
I175
sS'04518'
p6516
I900
sS'04513'
p6517
I862
sS'04511'
p6518
I884
sS'18930'
p6519
I400
sS'20410'
p6520
I138
sS'04516'
p6521
I884
sS'04515'
p6522
I884
sS'04514'
p6523
I884
sS'10093'
p6524
I201
sS'08615'
p6525
I385
sS'08617'
p6526
I352
sS'08610'
p6527
I332
sS'10096'
p6528
I127
sS'10094'
p6529
I123
sS'10099'
p6530
I233
sS'10098'
p6531
I182
sS'18931'
p6532
I361
sS'18932'
p6533
I273
sS'18637'
p6534
I377
sS'18635'
p6535
I330
sS'18634'
p6536
I307
sS'18633'
p6537
I293
sS'18632'
p6538
I441
sS'18631'
p6539
I243
sS'18630'
p6540
I450
sS'18639'
p6541
I232
sS'06341'
p6542
I71
sS'06342'
p6543
I81
sS'06611'
p6544
I6
sS'06617'
p6545
I33
sS'06615'
p6546
I6
sS'06618'
p6547
I179
sS'06619'
p6548
I55
sS'03206'
p6549
I435
sS'03205'
p6550
I402
sS'03201'
p6551
I79
sS'03209'
p6552
I477
sS'28218'
p6553
I511
sS'28219'
p6554
I467
sS'28216'
p6555
I459
sS'28217'
p6556
I493
sS'28214'
p6557
I479
sS'28215'
p6558
I438
sS'28212'
p6559
I461
sS'28213'
p6560
I475
sS'28210'
p6561
I458
sS'28211'
p6562
I466
sS'09109'
p6563
I73
sS'43260'
p6564
I358
sS'43261'
p6565
I95
sS'43268'
p6566
I100
sS'43269'
p6567
I185
sS'11379'
p6568
I97
sS'11378'
p6569
I354
sS'09103'
p6570
I50
sS'11376'
p6571
I60
sS'11371'
p6572
I113
sS'11370'
p6573
I265
sS'11373'
p6574
I132
sS'09450'
p6575
I25
sS'19418'
p6576
I541
sS'19419'
p6577
I387
sS'19148'
p6578
I486
sS'19149'
p6579
I422
sS'19410'
p6580
I545
sS'19411'
p6581
I532
sS'19412'
p6582
I551
sS'19145'
p6583
I500
sS'19414'
p6584
I387
sS'19415'
p6585
I522
sS'19140'
p6586
I515
sS'19141'
p6587
I492
sS'04574'
p6588
I882
sS'02003'
p6589
I233
sS'02002'
p6590
I337
sS'02001'
p6591
I263
sS'02007'
p6592
I392
sS'02006'
p6593
I311
sS'02005'
p6594
I333
sS'02004'
p6595
I313
sS'02009'
p6596
I282
sS'02008'
p6597
I237
sS'11154'
p6598
I72
sS'11157'
p6599
I24
sS'11156'
p6600
I30
sS'11151'
p6601
I17
sS'11150'
p6602
I24
sS'14433'
p6603
I0
sS'11152'
p6604
I23
sS'14438'
p6605
I0
sS'43595'
p6606
I377
sS'12138'
p6607
I615
sS'28325'
p6608
I442
sS'12132'
p6609
I718
sS'12130'
p6610
I657
sS'12131'
p6611
I718
sS'12136'
p6612
I580
sS'12137'
p6613
I607
sS'13903'
p6614
I137
sS'12135'
p6615
I607
sS'10152'
p6616
I147
sS'10153'
p6617
I157
sS'10150'
p6618
I246
sS'10158'
p6619
I196
sS'23150'
p6620
I166
sS'23151'
p6621
I173
sS'23152'
p6622
I155
sS'23153'
p6623
I156
sS'23154'
p6624
I161
sS'23155'
p6625
I148
sS'09132'
p6626
I69
sS'09133'
p6627
I40
sS'09130'
p6628
I60
sS'09131'
p6629
I67
sS'03830'
p6630
I132
sS'09134'
p6631
I76
sS'09135'
p6632
I60
sS'09138'
p6633
I53
sS'09139'
p6634
I68
sS'03839'
p6635
I78
sS'03838'
p6636
I494
sS'08268'
p6637
I386
sS'08267'
p6638
I376
sS'08261'
p6639
I368
sS'08263'
p6640
I386
sS'08262'
p6641
I358
sS'14097'
p6642
I83
sS'14096'
p6643
I85
sS'14095'
p6644
I50
sS'14093'
p6645
I0
sS'14092'
p6646
I21
sS'14091'
p6647
I15
sS'14090'
p6648
I18
sS'14099'
p6649
I82
sS'14098'
p6650
I83
sS'11964'
p6651
I15
sS'11965'
p6652
I31
sS'28321'
p6653
I255
sS'11967'
p6654
I32
sS'11960'
p6655
I35
sS'11961'
p6656
I28
sS'08409'
p6657
I389
sS'11962'
p6658
I324
sS'08402'
p6659
I371
sS'14270'
p6660
I465
sS'14277'
p6661
I61
sS'14276'
p6662
I10
sS'28388'
p6663
I247
sS'14279'
p6664
I1
sS'14278'
p6665
I1
sS'20065'
p6666
I357
sS'20064'
p6667
I349
sS'20067'
p6668
I329
sS'20066'
p6669
I360
sS'20061'
p6670
I366
sS'20060'
p6671
I316
sS'20063'
p6672
I325
sS'20062'
p6673
I338
sS'20069'
p6674
I336
sS'20068'
p6675
I358
sS'28389'
p6676
I280
sS'18158'
p6677
I451
sS'18159'
p6678
I492
sS'07068'
p6679
I261
sS'07069'
p6680
I336
sS'18152'
p6681
I434
sS'07067'
p6682
I200
sS'07064'
p6683
I325
sS'18151'
p6684
I405
sS'18156'
p6685
I349
sS'18157'
p6686
I433
sS'18154'
p6687
I466
sS'18155'
p6688
I467
sS'08634'
p6689
I410
sS'23604'
p6690
I163
sS'23605'
p6691
I216
sS'23606'
p6692
I189
sS'23607'
p6693
I138
sS'23600'
p6694
I200
sS'23601'
p6695
I153
sS'23602'
p6696
I214
sS'23603'
p6697
I132
sS'23608'
p6698
I185
sS'23609'
p6699
I135
sS'28384'
p6700
I269
sS'07209'
p6701
I109
sS'07201'
p6702
I316
sS'07207'
p6703
I331
sS'15058'
p6704
I96
sS'15059'
p6705
I79
sS'15054'
p6706
I76
sS'15055'
p6707
I117
sS'15056'
p6708
I150
sS'15057'
p6709
I79
sS'28385'
p6710
I253
sS'15051'
p6711
I139
sS'15052'
p6712
I158
sS'15053'
p6713
I148
sS'35144'
p6714
I101
sS'35145'
p6715
I83
sS'35146'
p6716
I103
sS'35147'
p6717
I153
sS'35140'
p6718
I195
sS'35141'
p6719
I234
sS'35142'
p6720
I330
sS'35143'
p6721
I237
sS'35148'
p6722
I112
sS'35149'
p6723
I116
sS'23460'
p6724
I252
sS'23461'
p6725
I177
sS'23462'
p6726
I196
sS'23463'
p6727
I147
sS'23464'
p6728
I197
sS'23465'
p6729
I192
sS'23466'
p6730
I141
sS'23467'
p6731
I145
sS'23468'
p6732
I301
sS'23469'
p6733
I252
sS'28386'
p6734
I259
sS'28387'
p6735
I280
sS'19353'
p6736
I260
sS'19352'
p6737
I318
sS'19351'
p6738
I281
sS'19350'
p6739
I283
sS'16129'
p6740
I270
sS'16128'
p6741
I477
sS'19355'
p6742
I290
sS'16125'
p6743
I60
sS'16124'
p6744
I60
sS'19359'
p6745
I488
sS'16126'
p6746
I78
sS'16121'
p6747
I328
sS'16120'
p6748
I54
sS'16123'
p6749
I53
sS'16122'
p6750
I335
sS'06007'
p6751
I95
sS'06006'
p6752
I142
sS'06004'
p6753
I129
sS'06003'
p6754
I40
sS'06002'
p6755
I91
sS'06001'
p6756
I69
sS'06559'
p6757
I32
sS'06558'
p6758
I50
sS'06009'
p6759
I67
sS'06008'
p6760
I7
sS'10989'
p6761
I157
sS'10988'
p6762
I202
sS'10985'
p6763
I216
sS'10984'
p6764
I169
sS'10987'
p6765
I219
sS'10986'
p6766
I216
sS'10981'
p6767
I255
sS'10980'
p6768
I172
sS'10983'
p6769
I175
sS'10982'
p6770
I123
sS'28382'
p6771
I275
sS'21129'
p6772
I296
sS'21127'
p6773
I153
sS'21126'
p6774
I218
sS'21125'
p6775
I156
sS'21124'
p6776
I213
sS'21121'
p6777
I244
sS'21120'
p6778
I263
sS'17423'
p6779
I120
sS'17422'
p6780
I121
sS'19087'
p6781
I539
sS'17421'
p6782
I208
sS'19086'
p6783
I529
sS'28383'
p6784
I263
sS'17420'
p6785
I169
sS'19085'
p6786
I539
sS'17427'
p6787
I159
sS'19084'
p6788
I569
sS'17426'
p6789
I107
sS'11587'
p6790
I19
sS'43529'
p6791
I396
sS'43528'
p6792
I141
sS'17425'
p6793
I151
sS'11581'
p6794
I49
sS'43523'
p6795
I75
sS'17424'
p6796
I215
sS'19089'
p6797
I249
sS'11588'
p6798
I97
sS'21389'
p6799
I252
sS'19088'
p6800
I180
sS'21383'
p6801
I308
sS'21382'
p6802
I243
sS'21381'
p6803
I90
sS'21380'
p6804
I105
sS'21387'
p6805
I302
sS'21386'
p6806
I349
sS'21385'
p6807
I283
sS'21384'
p6808
I376
sS'17298'
p6809
I254
sS'17299'
p6810
I281
sS'17294'
p6811
I201
sS'17295'
p6812
I231
sS'17296'
p6813
I133
sS'17297'
p6814
I182
sS'17290'
p6815
I215
sS'17291'
p6816
I244
sS'17292'
p6817
I135
sS'17293'
p6818
I190
sS'90240'
p6819
I111
sS'13459'
p6820
I276
sS'13456'
p6821
I177
sS'13454'
p6822
I183
sS'13455'
p6823
I188
sS'13452'
p6824
I219
sS'13453'
p6825
I206
sS'13450'
p6826
I189
sS'13451'
p6827
I212
sS'11634'
p6828
I314
sS'11637'
p6829
I14
sS'11632'
p6830
I27
sS'11523'
p6831
I14
sS'20656'
p6832
I200
sS'20657'
p6833
I179
sS'20654'
p6834
I138
sS'20655'
p6835
I152
sS'20652'
p6836
I156
sS'20653'
p6837
I361
sS'20650'
p6838
I357
sS'20651'
p6839
I147
sS'36000'
p6840
I189
sS'36001'
p6841
I323
sS'36002'
p6842
I290
sS'36003'
p6843
I143
sS'36004'
p6844
I316
sS'36005'
p6845
I296
sS'36006'
p6846
I302
sS'36007'
p6847
I296
sS'36008'
p6848
I333
sS'36009'
p6849
I121
sS'05114'
p6850
I167
sS'05115'
p6851
I127
sS'05116'
p6852
I165
sS'05117'
p6853
I109
sS'05110'
p6854
I220
sS'05111'
p6855
I133
sS'05112'
p6856
I223
sS'05113'
p6857
I111
sS'05118'
p6858
I153
sS'05119'
p6859
I113
sS'04570'
p6860
I884
sS'04573'
p6861
I884
sS'04572'
p6862
I884
sS'04575'
p6863
I900
sS'20381'
p6864
I364
sS'04576'
p6865
I900
sS'08672'
p6866
I392
sS'08673'
p6867
I350
sS'08670'
p6868
I387
sS'08671'
p6869
I378
sS'08676'
p6870
I387
sS'08677'
p6871
I342
sS'08674'
p6872
I396
sS'08675'
p6873
I379
sS'08678'
p6874
I408
sS'08679'
p6875
I410
sS'18431'
p6876
I371
sS'18430'
p6877
I403
sS'18433'
p6878
I371
sS'18432'
p6879
I293
sS'18435'
p6880
I371
sS'18434'
p6881
I503
sS'18437'
p6882
I235
sS'18436'
p6883
I403
sS'18439'
p6884
I235
sS'18438'
p6885
I235
sS'11968'
p6886
I32
sS'11969'
p6887
I22
sS'10215'
p6888
I163
sS'10214'
p6889
I121
sS'10217'
p6890
I178
sS'10216'
p6891
I161
sS'10211'
p6892
I171
sS'10210'
p6893
I133
sS'10213'
p6894
I192
sS'10212'
p6895
I170
sS'10219'
p6896
I263
sS'10218'
p6897
I120
sS'18388'
p6898
I313
sS'18386'
p6899
I333
sS'18385'
p6900
I293
sS'18384'
p6901
I264
sS'18383'
p6902
I270
sS'08096'
p6903
I340
sS'08094'
p6904
I363
sS'08092'
p6905
I343
sS'08093'
p6906
I74
sS'08090'
p6907
I370
sS'08091'
p6908
I71
sS'05183'
p6909
I161
sS'21441'
p6910
I337
sS'05181'
p6911
I161
sS'21362'
p6912
I311
sS'21443'
p6913
I170
sS'21444'
p6914
I433
sS'05186'
p6915
I147
sS'21446'
p6916
I212
sS'06630'
p6917
I496
sS'06631'
p6918
I93
sS'06632'
p6919
I108
sS'06633'
p6920
I79
sS'21365'
p6921
I272
sS'03228'
p6922
I67
sS'03229'
p6923
I60
sS'03224'
p6924
I68
sS'03225'
p6925
I69
sS'03226'
p6926
I80
sS'03227'
p6927
I65
sS'03220'
p6928
I75
sS'03221'
p6929
I79
sS'03222'
p6930
I78
sS'28234'
p6931
I502
sS'11037'
p6932
I106
sS'28236'
p6933
I507
sS'28237'
p6934
I460
sS'11032'
p6935
I123
sS'28231'
p6936
I412
sS'11030'
p6937
I33
sS'11031'
p6938
I113
sS'21364'
p6939
I294
sS'28238'
p6940
I512
sS'28239'
p6941
I500
sS'11038'
p6942
I103
sS'11039'
p6943
I132
sS'21339'
p6944
I165
sS'28067'
p6945
I466
sS'21014'
p6946
I308
sS'21013'
p6947
I261
sS'21012'
p6948
I312
sS'43205'
p6949
I353
sS'21010'
p6950
I300
sS'19164'
p6951
I556
sS'19165'
p6952
I228
sS'19166'
p6953
I220
sS'11358'
p6954
I89
sS'19160'
p6955
I502
sS'19161'
p6956
I536
sS'19162'
p6957
I494
sS'19163'
p6958
I360
sS'11353'
p6959
I79
sS'11352'
p6960
I77
sS'11351'
p6961
I20
sS'11350'
p6962
I23
sS'11357'
p6963
I94
sS'11356'
p6964
I97
sS'11355'
p6965
I70
sS'11354'
p6966
I69
sS'22974'
p6967
I260
sS'07944'
p6968
I112
sS'22972'
p6969
I168
sS'02069'
p6970
I88
sS'02068'
p6971
I19
sS'19296'
p6972
I304
sS'19297'
p6973
I278
sS'19294'
p6974
I173
sS'19295'
p6975
I536
sS'02063'
p6976
I131
sS'07942'
p6977
I327
sS'02065'
p6978
I44
sS'02064'
p6979
I70
sS'02066'
p6980
I285
sS'06494'
p6981
I12
sS'06497'
p6982
I30
sS'06498'
p6983
I38
sS'03926'
p6984
I128
sS'03929'
p6985
I480
sS'09243'
p6986
I75
sS'09246'
p6987
I239
sS'09247'
p6988
I77
sS'16357'
p6989
I164
sS'16353'
p6990
I110
sS'16350'
p6991
I139
sS'16358'
p6992
I139
sS'16359'
p6993
I138
sS'12110'
p6994
I443
sS'12114'
p6995
I592
sS'12115'
p6996
I330
sS'19146'
p6997
I502
sS'12117'
p6998
I230
sS'12118'
p6999
I197
sS'12119'
p7000
I19
sS'17199'
p7001
I139
sS'17198'
p7002
I163
sS'17197'
p7003
I99
sS'17196'
p7004
I137
sS'17195'
p7005
I97
sS'17194'
p7006
I186
sS'17193'
p7007
I110
sS'17192'
p7008
I185
sS'17191'
p7009
I122
sS'17190'
p7010
I213
sS'10178'
p7011
I256
sS'10179'
p7012
I238
sS'28235'
p7013
I503
sS'10170'
p7014
I269
sS'10171'
p7015
I287
sS'10173'
p7016
I238
sS'10174'
p7017
I378
sS'10175'
p7018
I396
sS'10176'
p7019
I195
sS'10177'
p7020
I211
sS'21246'
p7021
I326
sS'21247'
p7022
I301
sS'21244'
p7023
I214
sS'21245'
p7024
I179
sS'21242'
p7025
I256
sS'21243'
p7026
I241
sS'21240'
p7027
I221
sS'21241'
p7028
I243
sS'28230'
p7029
I371
sS'21248'
p7030
I132
sS'11033'
p7031
I71
sS'28232'
p7032
I527
sS'28233'
p7033
I461
sS'03813'
p7034
I66
sS'09119'
p7035
I36
sS'03816'
p7036
I127
sS'09448'
p7037
I95
sS'09449'
p7038
I73
sS'09110'
p7039
I349
sS'09447'
p7040
I236
sS'09112'
p7041
I42
sS'03818'
p7042
I131
sS'09442'
p7043
I54
sS'09443'
p7044
I50
sS'09440'
p7045
I62
sS'09117'
p7046
I37
sS'08249'
p7047
I61
sS'08243'
p7048
I374
sS'08240'
p7049
I43
sS'08247'
p7050
I312
sS'08245'
p7051
I372
sS'08244'
p7052
I207
sS'05309'
p7053
I116
sS'05308'
p7054
I259
sS'14079'
p7055
I49
sS'05301'
p7056
I272
sS'05300'
p7057
I279
sS'05303'
p7058
I243
sS'05302'
p7059
I199
sS'05305'
p7060
I148
sS'05304'
p7061
I201
sS'05307'
p7062
I200
sS'05306'
p7063
I203
sS'20090'
p7064
I363
sS'20091'
p7065
I357
sS'14219'
p7066
I2
sS'14218'
p7067
I351
sS'14211'
p7068
I1
sS'14210'
p7069
I9
sS'14215'
p7070
I2
sS'14214'
p7071
I353
sS'14217'
p7072
I54
sS'14216'
p7073
I15
sS'20042'
p7074
I370
sS'20041'
p7075
I112
sS'20040'
p7076
I362
sS'20047'
p7077
I123
sS'20046'
p7078
I374
sS'20045'
p7079
I130
sS'20044'
p7080
I365
sS'20049'
p7081
I124
sS'20048'
p7082
I380
sS'36615'
p7083
I182
sS'36614'
p7084
I377
sS'36617'
p7085
I252
sS'16276'
p7086
I88
sS'36611'
p7087
I324
sS'36610'
p7088
I282
sS'36613'
p7089
I150
sS'36612'
p7090
I319
sS'16271'
p7091
I70
sS'15236'
p7092
I208
sS'36619'
p7093
I129
sS'36618'
p7094
I295
sS'07044'
p7095
I189
sS'07045'
p7096
I334
sS'07046'
p7097
I109
sS'18173'
p7098
I430
sS'07040'
p7099
I304
sS'07041'
p7100
I326
sS'18176'
p7101
I421
sS'07043'
p7102
I115
sS'18178'
p7103
I450
sS'18179'
p7104
I409
sS'16272'
p7105
I43
sS'18513'
p7106
I442
sS'11862'
p7107
I14
sS'07956'
p7108
I332
sS'07957'
p7109
I342
sS'28391'
p7110
I256
sS'07955'
p7111
I155
sS'28397'
p7112
I265
sS'28396'
p7113
I258
sS'28395'
p7114
I263
sS'28394'
p7115
I278
sS'10097'
p7116
I138
sS'28399'
p7117
I446
sS'07958'
p7118
I196
sS'07959'
p7119
I272
sS'20096'
p7120
I130
sS'15038'
p7121
I186
sS'15039'
p7122
I158
sS'15032'
p7123
I118
sS'15033'
p7124
I74
sS'15030'
p7125
I84
sS'15031'
p7126
I92
sS'15036'
p7127
I91
sS'15037'
p7128
I111
sS'15034'
p7129
I90
sS'15035'
p7130
I116
sS'42272'
p7131
I531
sS'23484'
p7132
I194
sS'23485'
p7133
I139
sS'23482'
p7134
I169
sS'23483'
p7135
I140
sS'23480'
p7136
I154
sS'28350'
p7137
I447
sS'16109'
p7138
I172
sS'16108'
p7139
I446
sS'19331'
p7140
I115
sS'19330'
p7141
I378
sS'19333'
p7142
I109
sS'19332'
p7143
I363
sS'19335'
p7144
I387
sS'11359'
p7145
I150
sS'19337'
p7146
I365
sS'16104'
p7147
I309
sS'22535'
p7148
I235
sS'22537'
p7149
I241
sS'13885'
p7150
I199
sS'13884'
p7151
I219
sS'13887'
p7152
I178
sS'13886'
p7153
I228
sS'13881'
p7154
I159
sS'13880'
p7155
I212
sS'13883'
p7156
I189
sS'13882'
p7157
I204
sS'13889'
p7158
I152
sS'13888'
p7159
I210
sS'18339'
p7160
I371
sS'19168'
p7161
I104
sS'19169'
p7162
I410
sS'43017'
p7163
I427
sS'43016'
p7164
I390
sS'43543'
p7165
I46
sS'43544'
p7166
I389
sS'43546'
p7167
I91
sS'43019'
p7168
I15
sS'18334'
p7169
I457
sS'18335'
p7170
I508
sS'13474'
p7171
I258
sS'13477'
p7172
I230
sS'13470'
p7173
I194
sS'13473'
p7174
I247
sS'20317'
p7175
I363
sS'13478'
p7176
I153
sS'13479'
p7177
I212
sS'20316'
p7178
I361
sS'11658'
p7179
I172
sS'11659'
p7180
I164
sS'11653'
p7181
I62
sS'11656'
p7182
I131
sS'11657'
p7183
I83
sS'11654'
p7184
I22
sS'11655'
p7185
I40
sS'05172'
p7186
I173
sS'05173'
p7187
I111
sS'05170'
p7188
I459
sS'05171'
p7189
I124
sS'05176'
p7190
I174
sS'05177'
p7191
I128
sS'05174'
p7192
I155
sS'19345'
p7193
I153
sS'05178'
p7194
I189
sS'05179'
p7195
I125
sS'20450'
p7196
I360
sS'20451'
p7197
I130
sS'20452'
p7198
I358
sS'20453'
p7199
I130
sS'09309'
p7200
I21
sS'04559'
p7201
I884
sS'19340'
p7202
I354
sS'09307'
p7203
I21
sS'04554'
p7204
I884
sS'09301'
p7205
I82
sS'04551'
p7206
I884
sS'04550'
p7207
I900
sS'08658'
p7208
I397
sS'12738'
p7209
I607
sS'06547'
p7210
I30
sS'08651'
p7211
I248
sS'08652'
p7212
I397
sS'08653'
p7213
I371
sS'08655'
p7214
I399
sS'08656'
p7215
I350
sS'01168'
p7216
I173
sS'11902'
p7217
I97
sS'11903'
p7218
I64
sS'11900'
p7219
I86
sS'11901'
p7220
I97
sS'11906'
p7221
I74
sS'11907'
p7222
I72
sS'11904'
p7223
I64
sS'18418'
p7224
I389
sS'18417'
p7225
I418
sS'18416'
p7226
I267
sS'11908'
p7227
I79
sS'11909'
p7228
I79
sS'18413'
p7229
I275
sS'18412'
p7230
I418
sS'06543'
p7231
I53
sS'06541'
p7232
I49
sS'21505'
p7233
I263
sS'21507'
p7234
I285
sS'21506'
p7235
I282
sS'21501'
p7236
I230
sS'21500'
p7237
I222
sS'21503'
p7238
I231
sS'21509'
p7239
I417
sS'21508'
p7240
I278
sS'01086'
p7241
I37
sS'01087'
p7242
I41
sS'01084'
p7243
I48
sS'01085'
p7244
I34
sS'01082'
p7245
I42
sS'01083'
p7246
I43
sS'01080'
p7247
I51
sS'01081'
p7248
I56
sS'12737'
p7249
I607
sS'01088'
p7250
I40
sS'01089'
p7251
I61
sS'19292'
p7252
I475
sS'19293'
p7253
I159
sS'03026'
p7254
I51
sS'03024'
p7255
I0
sS'03025'
p7256
I53
sS'03022'
p7257
I64
sS'03023'
p7258
I389
sS'03021'
p7259
I184
sS'03108'
p7260
I57
sS'03246'
p7261
I86
sS'03245'
p7262
I85
sS'28252'
p7263
I466
sS'28253'
p7264
I438
sS'28250'
p7265
I473
sS'28251'
p7266
I452
sS'11018'
p7267
I24
sS'28257'
p7268
I489
sS'28254'
p7269
I473
sS'28255'
p7270
I414
sS'14534'
p7271
I308
sS'11015'
p7272
I19
sS'28258'
p7273
I489
sS'28259'
p7274
I251
sS'11010'
p7275
I45
sS'11011'
p7276
I20
sS'11012'
p7277
I22
sS'14533'
p7278
I295
sS'11333'
p7279
I20
sS'11335'
p7280
I18
sS'11334'
p7281
I28
sS'11337'
p7282
I20
sS'11339'
p7283
I127
sS'11338'
p7284
I18
sS'19102'
p7285
I387
sS'19103'
p7286
I383
sS'19100'
p7287
I411
sS'19101'
p7288
I461
sS'19106'
p7289
I396
sS'19107'
p7290
I394
sS'19104'
p7291
I435
sS'19105'
p7292
I512
sS'19108'
p7293
I375
sS'19109'
p7294
I518
sS'23345'
p7295
I183
sS'23344'
p7296
I142
sS'23347'
p7297
I174
sS'23346'
p7298
I188
sS'23341'
p7299
I151
sS'23340'
p7300
I171
sS'23343'
p7301
I150
sS'23342'
p7302
I147
sS'11487'
p7303
I57
sS'11486'
p7304
I40
sS'11485'
p7305
I45
sS'11484'
p7306
I34
sS'23349'
p7307
I163
sS'23348'
p7308
I160
sS'11481'
p7309
I29
sS'11480'
p7310
I17
sS'05713'
p7311
I170
sS'06960'
p7312
I535
sS'06961'
p7313
I21
sS'06962'
p7314
I20
sS'06963'
p7315
I16
sS'06964'
p7316
I30
sS'06965'
p7317
I62
sS'06966'
p7318
I25
sS'06967'
p7319
I33
sS'06968'
p7320
I53
sS'06969'
p7321
I343
sS'43483'
p7322
I354
sS'16590'
p7323
I150
sS'16591'
p7324
I251
sS'16592'
p7325
I155
sS'16593'
p7326
I185
sS'16594'
p7327
I96
sS'16596'
p7328
I219
sS'21080'
p7329
I219
sS'21082'
p7330
I226
sS'21083'
p7331
I141
sS'19818'
p7332
I387
sS'19819'
p7333
I392
sS'19814'
p7334
I381
sS'21089'
p7335
I308
sS'19816'
p7336
I387
sS'19817'
p7337
I380
sS'19810'
p7338
I536
sS'19811'
p7339
I536
sS'19812'
p7340
I381
sS'19813'
p7341
I381
sS'06216'
p7342
I77
sS'06217'
p7343
I65
sS'06214'
p7344
I89
sS'06215'
p7345
I56
sS'06212'
p7346
I49
sS'06213'
p7347
I73
sS'06210'
p7348
I66
sS'06211'
p7349
I92
sS'06218'
p7350
I56
sS'06219'
p7351
I55
sS'05099'
p7352
I195
sS'05098'
p7353
I179
sS'21268'
p7354
I350
sS'21269'
p7355
I223
sS'21264'
p7356
I209
sS'21265'
p7357
I183
sS'21266'
p7358
I179
sS'21267'
p7359
I183
sS'21260'
p7360
I229
sS'21261'
p7361
I206
sS'21262'
p7362
I189
sS'21263'
p7363
I225
sS'03870'
p7364
I99
sS'05327'
p7365
I263
sS'05326'
p7366
I252
sS'05324'
p7367
I287
sS'05323'
p7368
I292
sS'05320'
p7369
I242
sS'14059'
p7370
I64
sS'14058'
p7371
I359
sS'14052'
p7372
I250
sS'14051'
p7373
I231
sS'14050'
p7374
I231
sS'14057'
p7375
I160
sS'14056'
p7376
I62
sS'14055'
p7377
I368
sS'14054'
p7378
I50
sS'13228'
p7379
I201
sS'13227'
p7380
I128
sS'18996'
p7381
I254
sS'18997'
p7382
I250
sS'18994'
p7383
I443
sS'18995'
p7384
I258
sS'18992'
p7385
I487
sS'18993'
p7386
I423
sS'18990'
p7387
I484
sS'18991'
p7388
I515
sS'18998'
p7389
I239
sS'18999'
p7390
I293
sS'42285'
p7391
I406
sS'20029'
p7392
I112
sS'20028'
p7393
I376
sS'20020'
p7394
I362
sS'20023'
p7395
I334
sS'20022'
p7396
I370
sS'20025'
p7397
I355
sS'20024'
p7398
I348
sS'20027'
p7399
I381
sS'36633'
p7400
I293
sS'36632'
p7401
I122
sS'36631'
p7402
I121
sS'36630'
p7403
I121
sS'08225'
p7404
I379
sS'08228'
p7405
I371
sS'07022'
p7406
I316
sS'07020'
p7407
I153
sS'07021'
p7408
I273
sS'07026'
p7409
I239
sS'07027'
p7410
I180
sS'18198'
p7411
I450
sS'18199'
p7412
I461
sS'18196'
p7413
I426
sS'07028'
p7414
I100
sS'07029'
p7415
I163
sS'18192'
p7416
I514
sS'18193'
p7417
I542
sS'18190'
p7418
I478
sS'18191'
p7419
I401
sS'11894'
p7420
I60
sS'04055'
p7421
I884
sS'04053'
p7422
I884
sS'11895'
p7423
I11
sS'14604'
p7424
I1
sS'06546'
p7425
I65
sS'11897'
p7426
I114
sS'11890'
p7427
I21
sS'42286'
p7428
I51
sS'14601'
p7429
I1
sS'23648'
p7430
I154
sS'23649'
p7431
I179
sS'07978'
p7432
I271
sS'07979'
p7433
I284
sS'23138'
p7434
I210
sS'23139'
p7435
I196
sS'23640'
p7436
I94
sS'23137'
p7437
I205
sS'23134'
p7438
I296
sS'23135'
p7439
I303
sS'23132'
p7440
I207
sS'23133'
p7441
I200
sS'23646'
p7442
I142
sS'23647'
p7443
I193
sS'15010'
p7444
I95
sS'15011'
p7445
I229
sS'15012'
p7446
I264
sS'15013'
p7447
I98
sS'15014'
p7448
I177
sS'15015'
p7449
I82
sS'15016'
p7450
I105
sS'15017'
p7451
I105
sS'15018'
p7452
I290
sS'15019'
p7453
I69
sS'42280'
p7454
I121
sS'06545'
p7455
I70
sS'19833'
p7456
I416
sS'42283'
p7457
I469
sS'18279'
p7458
I305
sS'18278'
p7459
I285
sS'18275'
p7460
I293
sS'12116'
p7461
I357
sS'28115'
p7462
I455
sS'28114'
p7463
I479
sS'28117'
p7464
I455
sS'28116'
p7465
I471
sS'28111'
p7466
I490
sS'28110'
p7467
I489
sS'28113'
p7468
I452
sS'28112'
p7469
I502
sS'28119'
p7470
I470
sS'28118'
p7471
I467
sS'11094'
p7472
I29
sS'11096'
p7473
I22
sS'19034'
p7474
I387
sS'11090'
p7475
I34
sS'11092'
p7476
I26
sS'43566'
p7477
I465
sS'11093'
p7478
I28
sS'16161'
p7479
I55
sS'16160'
p7480
I145
sS'19315'
p7481
I400
sS'19314'
p7482
I115
sS'19313'
p7483
I409
sS'19312'
p7484
I100
sS'16167'
p7485
I588
sS'19310'
p7486
I325
sS'16168'
p7487
I63
sS'19319'
p7488
I115
sS'19318'
p7489
I367
sS'11098'
p7490
I43
sS'13413'
p7491
I206
sS'13410'
p7492
I223
sS'13411'
p7493
I185
sS'13416'
p7494
I171
sS'13417'
p7495
I162
sS'13414'
p7496
I169
sS'13415'
p7497
I167
sS'13418'
p7498
I163
sS'13419'
p7499
I166
sS'11670'
p7500
I40
sS'11671'
p7501
I81
sS'11672'
p7502
I268
sS'11674'
p7503
I93
sS'11675'
p7504
I105
sS'11676'
p7505
I43
sS'11677'
p7506
I72
sS'22918'
p7507
I221
sS'11566'
p7508
I16
sS'12095'
p7509
I153
sS'05159'
p7510
I123
sS'12097'
p7511
I213
sS'12096'
p7512
I239
sS'12093'
p7513
I224
sS'05150'
p7514
I133
sS'05151'
p7515
I158
sS'05152'
p7516
I110
sS'05153'
p7517
I181
sS'12099'
p7518
I374
sS'12098'
p7519
I196
sS'05156'
p7520
I134
sS'05157'
p7521
I192
sS'09328'
p7522
I165
sS'09322'
p7523
I239
sS'09321'
p7524
I94
sS'09320'
p7525
I96
sS'09326'
p7526
I30
sS'09325'
p7527
I86
sS'10039'
p7528
I231
sS'10038'
p7529
I209
sS'10035'
p7530
I217
sS'10034'
p7531
I193
sS'10037'
p7532
I242
sS'10036'
p7533
I170
sS'10031'
p7534
I254
sS'10030'
p7535
I231
sS'10033'
p7536
I222
sS'10032'
p7537
I143
sS'11928'
p7538
I40
sS'11929'
p7539
I108
sS'14250'
p7540
I56
sS'11921'
p7541
I133
sS'11922'
p7542
I21
sS'11923'
p7543
I81
sS'11924'
p7544
I125
sS'11925'
p7545
I20
sS'11926'
p7546
I101
sS'11927'
p7547
I82
sS'21523'
p7548
I275
sS'21522'
p7549
I304
sS'21521'
p7550
I65
sS'21520'
p7551
I343
sS'21527'
p7552
I242
sS'21526'
p7553
I249
sS'21525'
p7554
I343
sS'21524'
p7555
I222
sS'21249'
p7556
I280
sS'03711'
p7557
I112
sS'03005'
p7558
I81
sS'03007'
p7559
I124
sS'03000'
p7560
I409
sS'03001'
p7561
I347
sS'03002'
p7562
I81
sS'03003'
p7563
I81
sS'03008'
p7564
I97
sS'03009'
p7565
I97
sS'03265'
p7566
I46
sS'03267'
p7567
I52
sS'03268'
p7568
I41
sS'03269'
p7569
I46
sS'18037'
p7570
I236
sS'18036'
p7571
I288
sS'18030'
p7572
I319
sS'18033'
p7573
I271
sS'18032'
p7574
I290
sS'18039'
p7575
I269
sS'18038'
p7576
I259
sS'28278'
p7577
I451
sS'28279'
p7578
I465
sS'14558'
p7579
I89
sS'14559'
p7580
I0
sS'05160'
p7581
I294
sS'28270'
p7582
I469
sS'28271'
p7583
I463
sS'28272'
p7584
I473
sS'28273'
p7585
I477
sS'28274'
p7586
I445
sS'28275'
p7587
I463
sS'28276'
p7588
I478
sS'28277'
p7589
I469
sS'21397'
p7590
I268
sS'21390'
p7591
I226
sS'13786'
p7592
I180
sS'03815'
p7593
I64
sS'13788'
p7594
I185
sS'21393'
p7595
I259
sS'23587'
p7596
I194
sS'23586'
p7597
I188
sS'23585'
p7598
I133
sS'23584'
p7599
I127
sS'23583'
p7600
I148
sS'23582'
p7601
I134
sS'23581'
p7602
I254
sS'11318'
p7603
I38
sS'11317'
p7604
I98
sS'11316'
p7605
I124
sS'11313'
p7606
I78
sS'11312'
p7607
I77
sS'23589'
p7608
I177
sS'23588'
p7609
I170
sS'19128'
p7610
I165
sS'19129'
p7611
I234
sS'09113'
p7612
I37
sS'19120'
p7613
I535
sS'19121'
p7614
I105
sS'19122'
p7615
I101
sS'19123'
p7616
I105
sS'19124'
p7617
I426
sS'19125'
p7618
I541
sS'19126'
p7619
I519
sS'19127'
p7620
I390
sS'09116'
p7621
I33
sS'20445'
p7622
I130
sS'23363'
p7623
I121
sS'23362'
p7624
I116
sS'23361'
p7625
I124
sS'23360'
p7626
I121
sS'23367'
p7627
I143
sS'23366'
p7628
I139
sS'23365'
p7629
I116
sS'23364'
p7630
I124
sS'23369'
p7631
I143
sS'23368'
p7632
I135
sS'15205'
p7633
I118
sS'15204'
p7634
I119
sS'15207'
p7635
I204
sS'15206'
p7636
I102
sS'15201'
p7637
I201
sS'15200'
p7638
I134
sS'15203'
p7639
I97
sS'15202'
p7640
I190
sS'12529'
p7641
I567
sS'15208'
p7642
I250
sS'06988'
p7643
I55
sS'06989'
p7644
I51
sS'06986'
p7645
I47
sS'06987'
p7646
I56
sS'06984'
p7647
I4
sS'06985'
p7648
I39
sS'06982'
p7649
I441
sS'06983'
p7650
I439
sS'06980'
p7651
I98
sS'06981'
p7652
I438
sS'28304'
p7653
I257
sS'28305'
p7654
I269
sS'28306'
p7655
I297
sS'28307'
p7656
I291
sS'16579'
p7657
I155
sS'28300'
p7658
I398
sS'16570'
p7659
I133
sS'28301'
p7660
I523
sS'06182'
p7661
I52
sS'06183'
p7662
I7
sS'06180'
p7663
I46
sS'11141'
p7664
I42
sS'12663'
p7665
I446
sS'06188'
p7666
I6
sS'06189'
p7667
I89
sS'10804'
p7668
I133
sS'10805'
p7669
I221
sS'10802'
p7670
I149
sS'10803'
p7671
I265
sS'14075'
p7672
I0
sS'19878'
p7673
I161
sS'19879'
p7674
I196
sS'11148'
p7675
I20
sS'14074'
p7676
I0
sS'19873'
p7677
I21
sS'21064'
p7678
I180
sS'19871'
p7679
I124
sS'19876'
p7680
I173
sS'21063'
p7681
I191
sS'21060'
p7682
I206
sS'19875'
p7683
I162
sS'14076'
p7684
I0
sS'06239'
p7685
I64
sS'06234'
p7686
I72
sS'06235'
p7687
I69
sS'06236'
p7688
I77
sS'06237'
p7689
I56
sS'06230'
p7690
I61
sS'06231'
p7691
I104
sS'06232'
p7692
I72
sS'06233'
p7693
I72
sS'14073'
p7694
I0
sS'21209'
p7695
I151
sS'21202'
p7696
I256
sS'20545'
p7697
I130
sS'21207'
p7698
I147
sS'03857'
p7699
I64
sS'03856'
p7700
I127
sS'03855'
p7701
I65
sS'03854'
p7702
I131
sS'03853'
p7703
I522
sS'03852'
p7704
I510
sS'03851'
p7705
I127
sS'03850'
p7706
I65
sS'09408'
p7707
I60
sS'09409'
p7708
I53
sS'03859'
p7709
I64
sS'03858'
p7710
I522
sS'12061'
p7711
I579
sS'14031'
p7712
I5
sS'14030'
p7713
I44
sS'14033'
p7714
I385
sS'14035'
p7715
I405
sS'14034'
p7716
I371
sS'14037'
p7717
I231
sS'14036'
p7718
I49
sS'14038'
p7719
I15
sS'17045'
p7720
I281
sS'17044'
p7721
I346
sS'17047'
p7722
I132
sS'17046'
p7723
I279
sS'17041'
p7724
I210
sS'17040'
p7725
I283
sS'17043'
p7726
I260
sS'01188'
p7727
I276
sS'01187'
p7728
I112
sS'01186'
p7729
I105
sS'01185'
p7730
I370
sS'01184'
p7731
I43
sS'17049'
p7732
I200
sS'17048'
p7733
I279
sS'01180'
p7734
I74
sS'18422'
p7735
I481
sS'18423'
p7736
I363
sS'18420'
p7737
I432
sS'18421'
p7738
I467
sS'18426'
p7739
I434
sS'18427'
p7740
I502
sS'18424'
p7741
I390
sS'18208'
p7742
I472
sS'18209'
p7743
I502
sS'18206'
p7744
I489
sS'18204'
p7745
I464
sS'18205'
p7746
I436
sS'18202'
p7747
I531
sS'18200'
p7748
I449
sS'18201'
p7749
I535
sS'04690'
p7750
I339
sS'20006'
p7751
I123
sS'20005'
p7752
I352
sS'20004'
p7753
I354
sS'20003'
p7754
I357
sS'20002'
p7755
I102
sS'20001'
p7756
I371
sS'04697'
p7757
I542
sS'04698'
p7758
I900
sS'04699'
p7759
I900
sS'20009'
p7760
I346
sS'20008'
p7761
I343
sS'35088'
p7762
I104
sS'01078'
p7763
I64
sS'08206'
p7764
I389
sS'08204'
p7765
I405
sS'08202'
p7766
I390
sS'08200'
p7767
I334
sS'07008'
p7768
I308
sS'07001'
p7769
I173
sS'07002'
p7770
I277
sS'07003'
p7771
I238
sS'07004'
p7772
I230
sS'07005'
p7773
I379
sS'07006'
p7774
I301
sS'07007'
p7775
I299
sS'35081'
p7776
I199
sS'35080'
p7777
I116
sS'20016'
p7778
I361
sS'35083'
p7779
I125
sS'04073'
p7780
I719
sS'10905'
p7781
I117
sS'35082'
p7782
I282
sS'10904'
p7783
I200
sS'35085'
p7784
I870
sS'17300'
p7785
I138
sS'35084'
p7786
I900
sS'10906'
p7787
I149
sS'35087'
p7788
I900
sS'17306'
p7789
I195
sS'35086'
p7790
I465
sS'17307'
p7791
I215
sS'07918'
p7792
I426
sS'07919'
p7793
I235
sS'17304'
p7794
I132
sS'07912'
p7795
I223
sS'07913'
p7796
I396
sS'07910'
p7797
I341
sS'10902'
p7798
I159
sS'07916'
p7799
I301
sS'07917'
p7800
I296
sS'07914'
p7801
I149
sS'07915'
p7802
I259
sS'01073'
p7803
I318
sS'01072'
p7804
I264
sS'23114'
p7805
I241
sS'23115'
p7806
I229
sS'23116'
p7807
I275
sS'23117'
p7808
I284
sS'23110'
p7809
I172
sS'23111'
p7810
I133
sS'23112'
p7811
I127
sS'23113'
p7812
I236
sS'23118'
p7813
I261
sS'23119'
p7814
I220
sS'06537'
p7815
I53
sS'13326'
p7816
I191
sS'28133'
p7817
I495
sS'28132'
p7818
I475
sS'28131'
p7819
I469
sS'28130'
p7820
I477
sS'28137'
p7821
I466
sS'28136'
p7822
I496
sS'28135'
p7823
I479
sS'28134'
p7824
I483
sS'28139'
p7825
I476
sS'28138'
p7826
I460
sS'18399'
p7827
I484
sS'13328'
p7828
I92
sS'16049'
p7829
I333
sS'13329'
p7830
I120
sS'16046'
p7831
I142
sS'16149'
p7832
I650
sS'16047'
p7833
I345
sS'16147'
p7834
I177
sS'16146'
p7835
I114
sS'16145'
p7836
I124
sS'16144'
p7837
I358
sS'16044'
p7838
I82
sS'16045'
p7839
I336
sS'17238'
p7840
I290
sS'17239'
p7841
I342
sS'17236'
p7842
I279
sS'19090'
p7843
I222
sS'17234'
p7844
I261
sS'17235'
p7845
I284
sS'17232'
p7846
I185
sS'17233'
p7847
I217
sS'17230'
p7848
I209
sS'19091'
p7849
I384
sS'13438'
p7850
I190
sS'13439'
p7851
I211
sS'19092'
p7852
I347
sS'13430'
p7853
I216
sS'13432'
p7854
I200
sS'16041'
p7855
I149
sS'13436'
p7856
I207
sS'11698'
p7857
I24
sS'11696'
p7858
I15
sS'11697'
p7859
I65
sS'11695'
p7860
I16
sS'11693'
p7861
I32
sS'18170'
p7862
I348
sS'28369'
p7863
I240
sS'18171'
p7864
I378
sS'20630'
p7865
I366
sS'20634'
p7866
I363
sS'20635'
p7867
I363
sS'20636'
p7868
I363
sS'22932'
p7869
I67
sS'18174'
p7870
I500
sS'18175'
p7871
I365
sS'42235'
p7872
I74
sS'42236'
p7873
I400
sS'42237'
p7874
I371
sS'42230'
p7875
I329
sS'42231'
p7876
I884
sS'18177'
p7877
I430
sS'10019'
p7878
I175
sS'10018'
p7879
I119
sS'10013'
p7880
I209
sS'10012'
p7881
I182
sS'10011'
p7882
I211
sS'10010'
p7883
I136
sS'10017'
p7884
I232
sS'10016'
p7885
I193
sS'10015'
p7886
I165
sS'10014'
p7887
I120
sS'19416'
p7888
I386
sS'20126'
p7889
I372
sS'20127'
p7890
I130
sS'20120'
p7891
I371
sS'20121'
p7892
I158
sS'12665'
p7893
I607
sS'09340'
p7894
I42
sS'22899'
p7895
I77
sS'03062'
p7896
I60
sS'08567'
p7897
I356
sS'03061'
p7898
I59
sS'08562'
p7899
I360
sS'03067'
p7900
I51
sS'08560'
p7901
I379
sS'08561'
p7902
I367
sS'03068'
p7903
I66
sS'03069'
p7904
I55
sS'08568'
p7905
I353
sS'08569'
p7906
I356
sS'18640'
p7907
I241
sS'21305'
p7908
I291
sS'03289'
p7909
I62
sS'03286'
p7910
I36
sS'03287'
p7911
I57
sS'21304'
p7912
I244
sS'03282'
p7913
I36
sS'03283'
p7914
I32
sS'03280'
p7915
I67
sS'18013'
p7916
I319
sS'18012'
p7917
I270
sS'18011'
p7918
I335
sS'18010'
p7919
I428
sS'18017'
p7920
I263
sS'18016'
p7921
I353
sS'18015'
p7922
I324
sS'18014'
p7923
I307
sS'11058'
p7924
I16
sS'18019'
p7925
I326
sS'05196'
p7926
I229
sS'23105'
p7927
I227
sS'05190'
p7928
I244
sS'05623'
p7929
I103
sS'05621'
p7930
I134
sS'23104'
p7931
I187
sS'23569'
p7932
I232
sS'23568'
p7933
I250
sS'23565'
p7934
I230
sS'23564'
p7935
I204
sS'23567'
p7936
I215
sS'23566'
p7937
I214
sS'23561'
p7938
I174
sS'23560'
p7939
I193
sS'23563'
p7940
I217
sS'23562'
p7941
I176
sS'15195'
p7942
I153
sS'15194'
p7943
I109
sS'15197'
p7944
I250
sS'15196'
p7945
I239
sS'15191'
p7946
I187
sS'15190'
p7947
I115
sS'15193'
p7948
I112
sS'15192'
p7949
I85
sS'15199'
p7950
I109
sS'15198'
p7951
I111
sS'18641'
p7952
I273
sS'28393'
p7953
I296
sS'28392'
p7954
I269
sS'07954'
p7955
I405
sS'23309'
p7956
I129
sS'23308'
p7957
I130
sS'28390'
p7958
I256
sS'23301'
p7959
I627
sS'07952'
p7960
I298
sS'23303'
p7961
I131
sS'23302'
p7962
I151
sS'23305'
p7963
I199
sS'23304'
p7964
I206
sS'23307'
p7965
I160
sS'07953'
p7966
I438
sS'15223'
p7967
I172
sS'15222'
p7968
I122
sS'15221'
p7969
I130
sS'15220'
p7970
I132
sS'15227'
p7971
I115
sS'07950'
p7972
I290
sS'15225'
p7973
I187
sS'15224'
p7974
I123
sS'15229'
p7975
I158
sS'07951'
p7976
I213
sS'16554'
p7977
I161
sS'16555'
p7978
I232
sS'16556'
p7979
I221
sS'16557'
p7980
I197
sS'16551'
p7981
I158
sS'16552'
p7982
I168
sS'18185'
p7983
I473
sS'12644'
p7984
I715
sS'09503'
p7985
I57
sS'16088'
p7986
I318
sS'16089'
p7987
I599
sS'14164'
p7988
I57
sS'09502'
p7989
I58
sS'16082'
p7990
I351
sS'16083'
p7991
I341
sS'16080'
p7992
I347
sS'16081'
p7993
I105
sS'16086'
p7994
I118
sS'03936'
p7995
I63
sS'16084'
p7996
I105
sS'16085'
p7997
I352
sS'09500'
p7998
I59
sS'09507'
p7999
I63
sS'10868'
p8000
I131
sS'10869'
p8001
I122
sS'10862'
p8002
I468
sS'10863'
p8003
I157
sS'10860'
p8004
I548
sS'10861'
p8005
I476
sS'10866'
p8006
I95
sS'10867'
p8007
I128
sS'10864'
p8008
I898
sS'10865'
p8009
I121
sS'16331'
p8010
I124
sS'16333'
p8011
I127
sS'16335'
p8012
I121
sS'19856'
p8013
I81
sS'19857'
p8014
I498
sS'19858'
p8015
I474
sS'19859'
p8016
I486
sS'09429'
p8017
I45
sS'06252'
p8018
I57
sS'06253'
p8019
I60
sS'06250'
p8020
I82
sS'06251'
p8021
I41
sS'06256'
p8022
I61
sS'28241'
p8023
I491
sS'05126'
p8024
I237
sS'21225'
p8025
I260
sS'21226'
p8026
I276
sS'21227'
p8027
I271
sS'21228'
p8028
I264
sS'21229'
p8029
I307
sS'05057'
p8030
I172
sS'05056'
p8031
I209
sS'05051'
p8032
I300
sS'28243'
p8033
I513
sS'35063'
p8034
I61
sS'05052'
p8035
I258
sS'28245'
p8036
I511
sS'28244'
p8037
I500
sS'09428'
p8038
I111
sS'13596'
p8039
I137
sS'13595'
p8040
I132
sS'28247'
p8041
I503
sS'09420'
p8042
I92
sS'09421'
p8043
I277
sS'09422'
p8044
I147
sS'28246'
p8045
I500
sS'09426'
p8046
I322
sS'09427'
p8047
I69
sS'11735'
p8048
I28
sS'11734'
p8049
I44
sS'11737'
p8050
I25
sS'11736'
p8051
I27
sS'11731'
p8052
I28
sS'11730'
p8053
I33
sS'11733'
p8054
I28
sS'11732'
p8055
I28
sS'90560'
p8056
I90
sS'11739'
p8057
I28
sS'11738'
p8058
I62
sS'14019'
p8059
I110
sS'14017'
p8060
I174
sS'14016'
p8061
I38
sS'14015'
p8062
I237
sS'14013'
p8063
I27
sS'14010'
p8064
I186
sS'17063'
p8065
I305
sS'17062'
p8066
I277
sS'17061'
p8067
I186
sS'17060'
p8068
I223
sS'17067'
p8069
I586
sS'17066'
p8070
I640
sS'17065'
p8071
I206
sS'17064'
p8072
I128
sS'17069'
p8073
I256
sS'17068'
p8074
I183
sS'35060'
p8075
I156
sS'14153'
p8076
I41
sS'36418'
p8077
I156
sS'36413'
p8078
I103
sS'36412'
p8079
I174
sS'36411'
p8080
I186
sS'36410'
p8081
I232
sS'36417'
p8082
I185
sS'36416'
p8083
I462
sS'36415'
p8084
I219
sS'36414'
p8085
I74
sS'35067'
p8086
I430
sS'09288'
p8087
I105
sS'09289'
p8088
I339
sS'04678'
p8089
I884
sS'04679'
p8090
I792
sS'04676'
p8091
I47
sS'04677'
p8092
I605
sS'04674'
p8093
I337
sS'04675'
p8094
I158
sS'04673'
p8095
I583
sS'04670'
p8096
I884
sS'09283'
p8097
I63
sS'35066'
p8098
I150
sS'32022'
p8099
I131
sS'35065'
p8100
I266
sS'08583'
p8101
I381
sS'32020'
p8102
I334
sS'32021'
p8103
I125
sS'04018'
p8104
I250
sS'04013'
p8105
I64
sS'04011'
p8106
I334
sS'04016'
p8107
I443
sS'04017'
p8108
I379
sS'04014'
p8109
I84
sS'04015'
p8110
I355
sS'08481'
p8111
I398
sS'08484'
p8112
I342
sS'08487'
p8113
I443
sS'11873'
p8114
I20
sS'08489'
p8115
I368
sS'08488'
p8116
I365
sS'18224'
p8117
I407
sS'18225'
p8118
I481
sS'18226'
p8119
I334
sS'18227'
p8120
I381
sS'18220'
p8121
I390
sS'18221'
p8122
I389
sS'18222'
p8123
I374
sS'18223'
p8124
I446
sS'18228'
p8125
I418
sS'18229'
p8126
I510
sS'18529'
p8127
I430
sS'18528'
p8128
I431
sS'23481'
p8129
I175
sS'18524'
p8130
I460
sS'16337'
p8131
I81
sS'06730'
p8132
I76
sS'06733'
p8133
I61
sS'06734'
p8134
I50
sS'06736'
p8135
I99
sS'06739'
p8136
I53
sS'06738'
p8137
I140
sS'18651'
p8138
I305
sS'11779'
p8139
I34
sS'11778'
p8140
I131
sS'23172'
p8141
I268
sS'23173'
p8142
I198
sS'23170'
p8143
I291
sS'23171'
p8144
I212
sS'23176'
p8145
I215
sS'23177'
p8146
I162
sS'23174'
p8147
I206
sS'23175'
p8148
I154
sS'28335'
p8149
I493
sS'28334'
p8150
I515
sS'28337'
p8151
I248
sS'28336'
p8152
I320
sS'28331'
p8153
I463
sS'28330'
p8154
I435
sS'28333'
p8155
I541
sS'28332'
p8156
I474
sS'16173'
p8157
I144
sS'06084'
p8158
I63
sS'06082'
p8159
I71
sS'06081'
p8160
I198
sS'06080'
p8161
I267
sS'18308'
p8162
I260
sS'19114'
p8163
I187
sS'05004'
p8164
I234
sS'11775'
p8165
I94
sS'17242'
p8166
I244
sS'28159'
p8167
I483
sS'28158'
p8168
I472
sS'28151'
p8169
I463
sS'28150'
p8170
I502
sS'28153'
p8171
I492
sS'28152'
p8172
I466
sS'28155'
p8173
I424
sS'28154'
p8174
I465
sS'28157'
p8175
I482
sS'05005'
p8176
I216
sS'11508'
p8177
I90
sS'11506'
p8178
I41
sS'11507'
p8179
I86
sS'11504'
p8180
I20
sS'11505'
p8181
I42
sS'11502'
p8182
I93
sS'11503'
p8183
I19
sS'11501'
p8184
I93
sS'25028'
p8185
I497
sS'25026'
p8186
I535
sS'25027'
p8187
I531
sS'25024'
p8188
I345
sS'25025'
p8189
I385
sS'25022'
p8190
I496
sS'25023'
p8191
I491
sS'25020'
p8192
I386
sS'25021'
p8193
I403
sS'42256'
p8194
I534
sS'42258'
p8195
I240
sS'42259'
p8196
I500
sS'18406'
p8197
I275
sS'17214'
p8198
I101
sS'16103'
p8199
I90
sS'17216'
p8200
I98
sS'17217'
p8201
I129
sS'17210'
p8202
I152
sS'17211'
p8203
I234
sS'17212'
p8204
I182
sS'16102'
p8205
I121
sS'17218'
p8206
I101
sS'16101'
p8207
I343
sS'10071'
p8208
I292
sS'10070'
p8209
I236
sS'10073'
p8210
I230
sS'16100'
p8211
I428
sS'10075'
p8212
I235
sS'10074'
p8213
I193
sS'10077'
p8214
I120
sS'10076'
p8215
I317
sS'10079'
p8216
I228
sS'16107'
p8217
I255
sS'16106'
p8218
I311
sS'16055'
p8219
I222
sS'19336'
p8220
I389
sS'16054'
p8221
I71
sS'16057'
p8222
I164
sS'16056'
p8223
I378
sS'09367'
p8224
I83
sS'09362'
p8225
I42
sS'03048'
p8226
I82
sS'03049'
p8227
I82
sS'08549'
p8228
I373
sS'08018'
p8229
I331
sS'08019'
p8230
I370
sS'08544'
p8231
I384
sS'03041'
p8232
I48
sS'03042'
p8233
I48
sS'03043'
p8234
I77
sS'03044'
p8235
I61
sS'03045'
p8236
I59
sS'08010'
p8237
I398
sS'03047'
p8238
I63
sS'16050'
p8239
I139
sS'13019'
p8240
I674
sS'23127'
p8241
I287
sS'18079'
p8242
I395
sS'18078'
p8243
I305
sS'14599'
p8244
I0
sS'18071'
p8245
I274
sS'18070'
p8246
I290
sS'18073'
p8247
I285
sS'18075'
p8248
I252
sS'18077'
p8249
I278
sS'18076'
p8250
I306
sS'16052'
p8251
I341
sS'04639'
p8252
I430
sS'23099'
p8253
I291
sS'23098'
p8254
I219
sS'23549'
p8255
I216
sS'23091'
p8256
I186
sS'23090'
p8257
I191
sS'23541'
p8258
I255
sS'23540'
p8259
I220
sS'23547'
p8260
I160
sS'23094'
p8261
I124
sS'23545'
p8262
I265
sS'23096'
p8263
I222
sS'23120'
p8264
I225
sS'35166'
p8265
I206
sS'23327'
p8266
I125
sS'23326'
p8267
I120
sS'23123'
p8268
I131
sS'23324'
p8269
I124
sS'23323'
p8270
I248
sS'23322'
p8271
I405
sS'23321'
p8272
I317
sS'23320'
p8273
I392
sS'23329'
p8274
I121
sS'23328'
p8275
I128
sS'35167'
p8276
I141
sS'15241'
p8277
I168
sS'15240'
p8278
I141
sS'12563'
p8279
I598
sS'15242'
p8280
I72
sS'12565'
p8281
I607
sS'15244'
p8282
I79
sS'12567'
p8283
I607
sS'15246'
p8284
I79
sS'05724'
p8285
I115
sS'07974'
p8286
I253
sS'16532'
p8287
I261
sS'16533'
p8288
I251
sS'16531'
p8289
I143
sS'16536'
p8290
I196
sS'16534'
p8291
I211
sS'16535'
p8292
I346
sS'04027'
p8293
I232
sS'16538'
p8294
I220
sS'04026'
p8295
I717
sS'21022'
p8296
I286
sS'21023'
p8297
I264
sS'21020'
p8298
I338
sS'21021'
p8299
I228
sS'21026'
p8300
I272
sS'21024'
p8301
I340
sS'19524'
p8302
I498
sS'21028'
p8303
I163
sS'12198'
p8304
I570
sS'12193'
p8305
I318
sS'12195'
p8306
I614
sS'35049'
p8307
I103
sS'43398'
p8308
I376
sS'43396'
p8309
I67
sS'43390'
p8310
I208
sS'43391'
p8311
I170
sS'43392'
p8312
I115
sS'43393'
p8313
I339
sS'43541'
p8314
I251
sS'05079'
p8315
I220
sS'05078'
p8316
I184
sS'05073'
p8317
I155
sS'05072'
p8318
I195
sS'05071'
p8319
I116
sS'05070'
p8320
I204
sS'05077'
p8321
I254
sS'43015'
p8322
I542
sS'05075'
p8323
I214
sS'05074'
p8324
I169
sS'35048'
p8325
I55
sS'11713'
p8326
I33
sS'11712'
p8327
I11
sS'11711'
p8328
I19
sS'11710'
p8329
I32
sS'11717'
p8330
I103
sS'11716'
p8331
I105
sS'11715'
p8332
I71
sS'11714'
p8333
I123
sS'11719'
p8334
I78
sS'11718'
p8335
I19
sS'23325'
p8336
I127
sS'17009'
p8337
I120
sS'17008'
p8338
I243
sS'17001'
p8339
I267
sS'17000'
p8340
I134
sS'17003'
p8341
I134
sS'17002'
p8342
I294
sS'17005'
p8343
I665
sS'17004'
p8344
I206
sS'17007'
p8345
I201
sS'17006'
p8346
I586
sS'09401'
p8347
I42
sS'04654'
p8348
I884
sS'04655'
p8349
I628
sS'04656'
p8350
I884
sS'04657'
p8351
I884
sS'04650'
p8352
I884
sS'04651'
p8353
I884
sS'04652'
p8354
I884
sS'04653'
p8355
I884
sS'04658'
p8356
I884
sS'04659'
p8357
I884
sS'20510'
p8358
I138
sS'08711'
p8359
I356
sS'08710'
p8360
I369
sS'08712'
p8361
I344
sS'42117'
p8362
I390
sS'42116'
p8363
I160
sS'42119'
p8364
I89
sS'04030'
p8365
I389
sS'04031'
p8366
I884
sS'09004'
p8367
I48
sS'09005'
p8368
I53
sS'09002'
p8369
I23
sS'09003'
p8370
I52
sS'09001'
p8371
I32
sS'04038'
p8372
I884
sS'09008'
p8373
I67
sS'09009'
p8374
I346
sS'18242'
p8375
I407
sS'18243'
p8376
I465
sS'18240'
p8377
I254
sS'18241'
p8378
I414
sS'18246'
p8379
I371
sS'18247'
p8380
I430
sS'18244'
p8381
I403
sS'18245'
p8382
I374
sS'18248'
p8383
I434
sS'18249'
p8384
I452
sS'21097'
p8385
I282
sS'21096'
p8386
I310
sS'21095'
p8387
I285
sS'01235'
p8388
I104
sS'01237'
p8389
I331
sS'21094'
p8390
I282
sS'01231'
p8391
I86
sS'01230'
p8392
I62
sS'21093'
p8393
I251
sS'01239'
p8394
I240
sS'01238'
p8395
I237
sS'21092'
p8396
I308
sS'21090'
p8397
I270
sS'01236'
p8398
I222
sS'20086'
p8399
I405
sS'14434'
p8400
I0
sS'14437'
p8401
I0
sS'14436'
p8402
I53
sS'14431'
p8403
I47
sS'14430'
p8404
I201
sS'12029'
p8405
I567
sS'14432'
p8406
I0
sS'14439'
p8407
I0
sS'11158'
p8408
I20
sS'23158'
p8409
I210
sS'23159'
p8410
I218
sS'28319'
p8411
I255
sS'28318'
p8412
I239
sS'28313'
p8413
I269
sS'28312'
p8414
I269
sS'28311'
p8415
I526
sS'28310'
p8416
I451
sS'28317'
p8417
I205
sS'28316'
p8418
I188
sS'28315'
p8419
I253
sS'28314'
p8420
I437
sS'33866'
p8421
I494
sS'13809'
p8422
I244
sS'13808'
p8423
I349
sS'13805'
p8424
I277
sS'13804'
p8425
I331
sS'13807'
p8426
I265
sS'13806'
p8427
I289
sS'13800'
p8428
I245
sS'13803'
p8429
I251
sS'28177'
p8430
I391
sS'28176'
p8431
I390
sS'28175'
p8432
I391
sS'28174'
p8433
I373
sS'28173'
p8434
I393
sS'28172'
p8435
I390
sS'28171'
p8436
I394
sS'28170'
p8437
I401
sS'28179'
p8438
I390
sS'28178'
p8439
I391
sS'11525'
p8440
I44
sS'11526'
p8441
I44
sS'11527'
p8442
I23
sS'11520'
p8443
I42
sS'11521'
p8444
I24
sS'11522'
p8445
I11
sS'43098'
p8446
I53
sS'11529'
p8447
I18
sS'15260'
p8448
I138
sS'18425'
p8449
I421
sS'15092'
p8450
I124
sS'25004'
p8451
I396
sS'25005'
p8452
I422
sS'25006'
p8453
I343
sS'25007'
p8454
I463
sS'25000'
p8455
I402
sS'25001'
p8456
I424
sS'25003'
p8457
I359
sS'25008'
p8458
I378
sS'25009'
p8459
I415
sS'93600'
p8460
I89
sS'32035'
p8461
I155
sS'32034'
p8462
I136
sS'16277'
p8463
I80
sS'32036'
p8464
I328
sS'32031'
p8465
I149
sS'32030'
p8466
I106
sS'16273'
p8467
I92
sS'32032'
p8468
I324
sS'16279'
p8469
I59
sS'16278'
p8470
I43
sS'42278'
p8471
I69
sS'42279'
p8472
I64
sS'42270'
p8473
I54
sS'07971'
p8474
I281
sS'17272'
p8475
I266
sS'17273'
p8476
I282
sS'17270'
p8477
I521
sS'17271'
p8478
I208
sS'17276'
p8479
I113
sS'17277'
p8480
I191
sS'17274'
p8481
I248
sS'17275'
p8482
I218
sS'18316'
p8483
I260
sS'17278'
p8484
I108
sS'17279'
p8485
I177
sS'10059'
p8486
I204
sS'10058'
p8487
I174
sS'10057'
p8488
I195
sS'10056'
p8489
I129
sS'10055'
p8490
I230
sS'10054'
p8491
I222
sS'10053'
p8492
I234
sS'10052'
p8493
I168
sS'10051'
p8494
I206
sS'10050'
p8495
I186
sS'19015'
p8496
I471
sS'19016'
p8497
I495
sS'44260'
p8498
I350
sS'05718'
p8499
I127
sS'05719'
p8500
I115
sS'05716'
p8501
I118
sS'05717'
p8502
I116
sS'05714'
p8503
I380
sS'05715'
p8504
I414
sS'05712'
p8505
I112
sS'19921'
p8506
I368
sS'05710'
p8507
I114
sS'05711'
p8508
I136
sS'01008'
p8509
I376
sS'01009'
p8510
I404
sS'01006'
p8511
I334
sS'01007'
p8512
I300
sS'01004'
p8513
I353
sS'01005'
p8514
I371
sS'01002'
p8515
I718
sS'01003'
p8516
I876
sS'01001'
p8517
I717
sS'13386'
p8518
I372
sS'13387'
p8519
I331
sS'13384'
p8520
I216
sS'13382'
p8521
I253
sS'13383'
p8522
I231
sS'13380'
p8523
I306
sS'13381'
p8524
I288
sS'08045'
p8525
I376
sS'13388'
p8526
I238
sS'13389'
p8527
I253
sS'08047'
p8528
I381
sS'08046'
p8529
I394
sS'11898'
p8530
I36
sS'11899'
p8531
I47
sS'14608'
p8532
I4
sS'14609'
p8533
I4
sS'13327'
p8534
I175
sS'14607'
p8535
I4
sS'11896'
p8536
I37
sS'14605'
p8537
I22
sS'14602'
p8538
I83
sS'11891'
p8539
I20
sS'11892'
p8540
I29
sS'11893'
p8541
I34
sS'17111'
p8542
I251
sS'20014'
p8543
I365
sS'18057'
p8544
I207
sS'11095'
p8545
I28
sS'18055'
p8546
I217
sS'11097'
p8547
I33
sS'18053'
p8548
I203
sS'11091'
p8549
I35
sS'18051'
p8550
I210
sS'18050'
p8551
I239
sS'18486'
p8552
I399
sS'11099'
p8553
I36
sS'18059'
p8554
I243
sS'33878'
p8555
I86
sS'33872'
p8556
I501
sS'33873'
p8557
I500
sS'33870'
p8558
I470
sS'33871'
p8559
I512
sS'33876'
p8560
I66
sS'33877'
p8561
I510
sS'33874'
p8562
I66
sS'33875'
p8563
I67
sS'83110'
p8564
I305
sS'08034'
p8565
I402
sS'08035'
p8566
I374
sS'08037'
p8567
I489
sS'08030'
p8568
I375
sS'08031'
p8569
I350
sS'03712'
p8570
I86
sS'35183'
p8571
I419
sS'08038'
p8572
I361
sS'08039'
p8573
I376
sS'23521'
p8574
I159
sS'23523'
p8575
I227
sS'23525'
p8576
I200
sS'23528'
p8577
I216
sS'05175'
p8578
I140
sS'35184'
p8579
I386
sS'23291'
p8580
I199
sS'35185'
p8581
I309
sS'15267'
p8582
I80
sS'15266'
p8583
I70
sS'15265'
p8584
I136
sS'15264'
p8585
I158
sS'15262'
p8586
I128
sS'15261'
p8587
I96
sS'12540'
p8588
I617
sS'15269'
p8589
I84
sS'15268'
p8590
I72
sS'19018'
p8591
I341
sS'04556'
p8592
I884
sS'16518'
p8593
I219
sS'16519'
p8594
I219
sS'09306'
p8595
I103
sS'19098'
p8596
I482
sS'19099'
p8597
I373
sS'16048'
p8598
I144
sS'11172'
p8599
I67
sS'19094'
p8600
I145
sS'19095'
p8601
I207
sS'19096'
p8602
I126
sS'19097'
p8603
I144
sS'16042'
p8604
I347
sS'16043'
p8605
I143
sS'19720'
p8606
I265
sS'19093'
p8607
I531
sS'16316'
p8608
I91
sS'11170'
p8609
I61
sS'11177'
p8610
I74
sS'09302'
p8611
I52
sS'11176'
p8612
I79
sS'14415'
p8613
I327
sS'11174'
p8614
I72
sS'16317'
p8615
I130
sS'21008'
p8616
I342
sS'21009'
p8617
I371
sS'11178'
p8618
I88
sS'21002'
p8619
I274
sS'21003'
p8620
I305
sS'21004'
p8621
I233
sS'21005'
p8622
I312
sS'21006'
p8623
I277
sS'21007'
p8624
I301
sS'14066'
p8625
I352
sS'14067'
p8626
I388
sS'14064'
p8627
I21
sS'43404'
p8628
I19
sS'43405'
p8629
I374
sS'43406'
p8630
I185
sS'14065'
p8631
I45
sS'43401'
p8632
I509
sS'14062'
p8633
I105
sS'16315'
p8634
I132
sS'14063'
p8635
I373
sS'14060'
p8636
I62
sS'14061'
p8637
I4
sS'08659'
p8638
I387
sS'17399'
p8639
I192
sS'17398'
p8640
I208
sS'17391'
p8641
I115
sS'17390'
p8642
I196
sS'17393'
p8643
I264
sS'17392'
p8644
I151
sS'17395'
p8645
I143
sS'17394'
p8646
I199
sS'17397'
p8647
I147
sS'17396'
p8648
I173
sS'19894'
p8649
I136
sS'19895'
p8650
I151
sS'19896'
p8651
I495
sS'19897'
p8652
I573
sS'19890'
p8653
I242
sS'19891'
p8654
I72
sS'19892'
p8655
I49
sS'19893'
p8656
I201
sS'11771'
p8657
I61
sS'11770'
p8658
I96
sS'11773'
p8659
I79
sS'11772'
p8660
I72
sS'19898'
p8661
I216
sS'19899'
p8662
I237
sS'11777'
p8663
I94
sS'17027'
p8664
I216
sS'17026'
p8665
I143
sS'17025'
p8666
I309
sS'17024'
p8667
I316
sS'17023'
p8668
I310
sS'17022'
p8669
I204
sS'17021'
p8670
I134
sS'17020'
p8671
I292
sS'17029'
p8672
I372
sS'17028'
p8673
I202
sS'18069'
p8674
I266
sS'08657'
p8675
I333
sS'05011'
p8676
I119
sS'05010'
p8677
I219
sS'05013'
p8678
I190
sS'05012'
p8679
I219
sS'05015'
p8680
I349
sS'05014'
p8681
I177
sS'05017'
p8682
I502
sS'05016'
p8683
I394
sS'05019'
p8684
I363
sS'05018'
p8685
I454
sS'04633'
p8686
I175
sS'04630'
p8687
I424
sS'04631'
p8688
I44
sS'04636'
p8689
I47
sS'18419'
p8690
I423
sS'04634'
p8691
I175
sS'04635'
p8692
I132
sS'04638'
p8693
I119
sS'11905'
p8694
I71
sS'18414'
p8695
I274
sS'42131'
p8696
I167
sS'42137'
p8697
I564
sS'42136'
p8698
I431
sS'42135'
p8699
I224
sS'42139'
p8700
I536
sS'42138'
p8701
I333
sS'09028'
p8702
I83
sS'09029'
p8703
I96
sS'09024'
p8704
I48
sS'09025'
p8705
I49
sS'09026'
p8706
I63
sS'09027'
p8707
I83
sS'09020'
p8708
I68
sS'09021'
p8709
I48
sS'09022'
p8710
I27
sS'09023'
p8711
I22
sS'13823'
p8712
I172
sS'13822'
p8713
I190
sS'13820'
p8714
I318
sS'18268'
p8715
I213
sS'18269'
p8716
I229
sS'18260'
p8717
I235
sS'18261'
p8718
I255
sS'18262'
p8719
I240
sS'18263'
p8720
I276
sS'18264'
p8721
I223
sS'18265'
p8722
I243
sS'18266'
p8723
I203
sS'18267'
p8724
I221
sS'15098'
p8725
I126
sS'15099'
p8726
I97
sS'17339'
p8727
I193
sS'15090'
p8728
I105
sS'15091'
p8729
I97
sS'05082'
p8730
I174
sS'15093'
p8731
I104
sS'15094'
p8732
I197
sS'15095'
p8733
I130
sS'15096'
p8734
I228
sS'15097'
p8735
I108
sS'08192'
p8736
I395
sS'08191'
p8737
I352
sS'08194'
p8738
I413
sS'05083'
p8739
I185
sS'01212'
p8740
I496
sS'01211'
p8741
I61
sS'01210'
p8742
I555
sS'01217'
p8743
I102
sS'01216'
p8744
I99
sS'01215'
p8745
I240
sS'01214'
p8746
I135
sS'01219'
p8747
I105
sS'01218'
p8748
I95
sS'17441'
p8749
I122
sS'18061'
p8750
I284
sS'17440'
p8751
I174
sS'17443'
p8752
I136
sS'17442'
p8753
I184
sS'17445'
p8754
I215
sS'17444'
p8755
I136
sS'28371'
p8756
I298
sS'28370'
p8757
I310
sS'28373'
p8758
I329
sS'28372'
p8759
I309
sS'28375'
p8760
I248
sS'28374'
p8761
I215
sS'28377'
p8762
I257
sS'28376'
p8763
I471
sS'28379'
p8764
I286
sS'28378'
p8765
I300
sS'11179'
p8766
I81
sS'17110'
p8767
I162
sS'20015'
p8768
I224
sS'13829'
p8769
I365
sS'13828'
p8770
I352
sS'35092'
p8771
I592
sS'35093'
p8772
I122
sS'13821'
p8773
I183
sS'35091'
p8774
I107
sS'13827'
p8775
I322
sS'13826'
p8776
I351
sS'13825'
p8777
I337
sS'13824'
p8778
I306
sS'28199'
p8779
I469
sS'28198'
p8780
I457
sS'28195'
p8781
I490
sS'28194'
p8782
I487
sS'28197'
p8783
I500
sS'28196'
p8784
I515
sS'28191'
p8785
I406
sS'28190'
p8786
I401
sS'28193'
p8787
I398
sS'28192'
p8788
I393
sS'18065'
p8789
I313
s.