(dp0
Vred cabbage
p1
I1
sVmackerel
p2
I1
sVbaking chocolate
p3
I1
sVcrappie
p4
I1
sVhardtack
p5
I1
sVpinto bean
p6
I1
sVsieva bean
p7
I1
sVsalt pork
p8
I1
sVblackheart
p9
I1
sVjack
p10
I1
sVchocolate cake
p11
I1
sVbarbados gooseberry
p12
I1
sVmonkfish
p13
I1
sVbroiler
p14
I1
sVfruitcake
p15
I1
sVratafia
p16
I1
sVcourgette
p17
I1
sVorzo
p18
I1
sVfritter
p19
I1
sVbean
p20
I1
sVbully beef
p21
I1
sVbacon
p22
I1
sVpulse
p23
I1
sVjacket potato
p24
I1
sVfava bean
p25
I1
sVbelgian endive
p26
I1
sVfugu
p27
I1
sVoatcake
p28
I1
sVsalsify
p29
I1
sValmond cookie
p30
I1
sValbacore
p31
I1
sVmarmalade plum
p32
I1
sVlitchi
p33
I1
sVdelicatessen food
p34
I1
sVdahl
p35
I1
sVraisin-nut cookie
p36
I1
sVchine
p37
I1
sVglobe pepper
p38
I1
sVnew york strip
p39
I1
sVmozzarella
p40
I1
sVapricot bar
p41
I1
sVbullace grape
p42
I1
sVdate bread
p43
I1
sVchicken liver
p44
I1
sVcooking apple
p45
I1
sVsmoked haddock
p46
I1
sVhoney bun
p47
I1
sVcoho
p48
I1
sVroast veal
p49
I1
sVsoybean
p50
I1
sVlitchi nut
p51
I1
sVpound cake
p52
I1
sVhusk tomato
p53
I1
sVharicots verts
p54
I1
sVfrench pancake
p55
I1
sVdelicatessen
p56
I1
sVmush
p57
I1
sVwhite turnip
p58
I1
sVbialystoker
p59
I1
sVsausage meat
p60
I1
sVbean sprout
p61
I1
sVyellow squash
p62
I1
sVarmerican cheddar
p63
I1
sVblade
p64
I1
sVmuskellunge
p65
I1
sVgreen pea
p66
I1
sVspice cookie
p67
I1
sVgrated cheese
p68
I1
sVpork tenderloin
p69
I1
sVriver pear
p70
I1
sVbologna sausage
p71
I1
sVsugarloaf
p72
I1
sVjohnny cake
p73
I1
sVjumble
p74
I1
sVrib
p75
I1
sVhead cabbage
p76
I1
sVchuck short ribs
p77
I1
sVblood pudding
p78
I1
sVconfit
p79
I1
sVsalt cod
p80
I1
sVpopover
p81
I1
sVupside-down cake
p82
I1
sVbramley's seedling
p83
I1
sVwedding cake
p84
I1
sVbuffalofish
p85
I1
sVsponge cake
p86
I1
sVmolasses cookie
p87
I1
sVdark chocolate
p88
I1
sValligator pear
p89
I1
sVbeef tenderloin
p90
I1
sVilama
p91
I1
sVcroissant
p92
I1
sVdika bread
p93
I1
sVprocess cheese
p94
I1
sVgreen
p95
I1
sVgray sole
p96
I1
sVcheshire cheese
p97
I1
sVbanger
p98
I1
sVcalves' liver
p99
I1
sVmuffin
p100
I1
sVroquefort
p101
I1
sVblue crab
p102
I1
sVbeach plum
p103
I1
sVchinese celery
p104
I1
sVlima bean
p105
I1
sVavocado
p106
I1
sVlanset
p107
I1
sVlanseh
p108
I1
sVfig
p109
I1
sVjewish rye bread
p110
I1
sVfillet of sole
p111
I1
sVundercut
p112
I1
sVfrankfurter bun
p113
I1
sVonion bagel
p114
I1
sVsalt-rising bread
p115
I1
sVbream
p116
I1
sVweenie
p117
I1
sVbread
p118
I1
sVmeat
p119
I1
sVrambotan
p120
I1
sVlittleneck clam
p121
I1
sVchuck
p122
I1
sVswiss roll
p123
I1
sVsockeye salmon
p124
I1
sVentrecote
p125
I1
sVroast
p126
I1
sVmilk chocolate
p127
I1
sVspeckled trout
p128
I1
sVside
p129
I1
sVgiblets
p130
I1
sVdutch-processed cocoa
p131
I1
sVshepherd's pie
p132
I1
sVbavarian blue
p133
I1
sVprawn
p134
I1
sVwaffle
p135
I1
sVturnip
p136
I1
sVteacake
p137
I1
sVhackberry
p138
I1
sVcrepe suzette
p139
I1
sVhand cheese
p140
I1
sVswiss cheese
p141
I1
sVchop steak
p142
I1
sVhoney cake
p143
I1
sVmarang
p144
I1
sVleftovers
p145
I1
sVjaffa orange
p146
I1
sVleaf lettuce
p147
I1
sVmullet
p148
I1
sVgreengage
p149
I1
sVcinnamon toast
p150
I1
sVtabasco
p151
I1
sVvictoria sponge
p152
I1
sVtakeout
p153
I1
sVdark bread
p154
I1
sVbologna
p155
I1
sVloose-leaf lettuce
p156
I1
sVchitlins
p157
I1
sVveggie
p158
I1
sVtostada
p159
I1
sVlettuce
p160
I1
sVdelicious
p161
I1
sVtamarind
p162
I1
sVhasty pudding
p163
I1
sVcrown roast
p164
I1
sVspinach
p165
I1
sVgooseberry
p166
I1
sVbonito
p167
I1
sVperiwinkle
p168
I1
sVdewberry
p169
I1
sVtwister
p170
I1
sVkiwi
p171
I1
sVdanish
p172
I1
sVcereal
p173
I1
sVgenipap
p174
I1
sVscarlet runner
p175
I1
sVtoad in the hole
p176
I1
sVred currant
p177
I1
sVfrench fries
p178
I1
sVliver sausage
p179
I1
sVroast lamb
p180
I1
sVbloater
p181
I1
sVboeuf
p182
I1
sVnova lox
p183
I1
sVbuckwheat cake
p184
I1
sVbuttermilk biscuit
p185
I1
sVlansa
p186
I1
sVflank steak
p187
I1
sVrambutan
p188
I1
sVstring cheese
p189
I1
sVsapodilla plum
p190
I1
sVwatercress
p191
I1
sVcocoa plum
p192
I1
sVduckling
p193
I1
sVdog
p194
I1
sVbreakfast food
p195
I1
sVpineapple
p196
I1
sVstanding rib roast
p197
I1
sVlittleneck
p198
I1
sVbluepoint
p199
I1
sVfennel
p200
I1
sVcruller
p201
I1
sVtoast
p202
I1
sVshellfish
p203
I1
sVpineapple guava
p204
I1
sVcelery
p205
I1
sVpolenta
p206
I1
sVchipotle
p207
I1
sVcodfish
p208
I1
sVplate
p209
I1
sVchopsteak
p210
I1
sVkidney bean
p211
I1
sVwildfowl
p212
I1
sVwatermelon
p213
I1
sVyellow granadilla
p214
I1
sVmuscat grape
p215
I1
sVruggelach
p216
I1
sVstring bean
p217
I1
sVbap
p218
I1
sVsmoked eel
p219
I1
sVpretzel
p220
I1
sVapplesauce cake
p221
I1
sVpickled herring
p222
I1
sVsinker
p223
I1
sVroast pork
p224
I1
sVsteak
p225
I1
sVoatmeal cookie
p226
I1
sVbleu
p227
I1
sVsugarberry
p228
I1
sVemmentaler
p229
I1
sVcos lettuce
p230
I1
sVfrijole
p231
I1
sVvienna sausage
p232
I1
sVcoconut macaroon
p233
I1
sVkey lime
p234
I1
sVwienerwurst
p235
I1
sVyogurt
p236
I1
sVrugulah
p237
I1
sVshell bean
p238
I1
sVstaff of life
p239
I1
sVscrag
p240
I1
sVmcintosh
p241
I1
sVhorseflesh
p242
I1
sVmahimahi
p243
I1
sVforeshank
p244
I1
sVbosc
p245
I1
sVcos
p246
I1
sVspiny lobster
p247
I1
sVbrat
p248
I1
sVloaf of bread
p249
I1
sVcod
p250
I1
sVcherry
p251
I1
sVpita
p252
I1
sVchicory escarole
p253
I1
sVsmoked herring
p254
I1
sVsweet roll
p255
I1
sVbeetroot
p256
I1
sVcohoe
p257
I1
sVbeef
p258
I1
sVpulasan
p259
I1
sVflorence fennel
p260
I1
sVfowl
p261
I1
sVbeet
p262
I1
sVbroccoli raab
p263
I1
sVmushroom
p264
I1
sVorange toast
p265
I1
sVgrimes' golden
p266
I1
sVchile
p267
I1
sVchili
p268
I1
sVugli
p269
I1
sVcrab legs
p270
I1
sValewife
p271
I1
sVcracker
p272
I1
sVlychee
p273
I1
sVscarlet runner bean
p274
I1
sVclarified butter
p275
I1
sVsouse
p276
I1
sVboston lettuce
p277
I1
sVdumplings
p278
I1
sVchallah
p279
I1
sVcasaba melon
p280
I1
sVshoofly pie
p281
I1
sVwheatflake
p282
I1
sVash cake
p283
I1
sVbeef tongue
p284
I1
sVbran flake
p285
I1
sVsea bream
p286
I1
sVpot roast
p287
I1
sVsalad green
p288
I1
sVhominy grits
p289
I1
sVdried fruit
p290
I1
sVfrench sorrel
p291
I1
sVstriped bass
p292
I1
sVvegetable
p293
I1
sVlasagna
p294
I1
sVdevil's food cake
p295
I1
sVsugar snap pea
p296
I1
sVmad apple
p297
I1
sVwinesap
p298
I1
sVpapaya
p299
I1
sVcrumb cake
p300
I1
sVside of beef
p301
I1
sVwild plum
p302
I1
sVleaf beet
p303
I1
sVtuna
p304
I1
sVbutter
p305
I1
sVsnow pea
p306
I1
sVspaghetti squash
p307
I1
sVdate bar
p308
I1
sVcrabapple
p309
I1
sVlimburger
p310
I1
sVsugar apple
p311
I1
sVdark meat
p312
I1
sVkale
p313
I1
sVsoya bean
p314
I1
sVbagel
p315
I1
sVsugar cookie
p316
I1
sVham
p317
I1
sVapple pie
p318
I1
sVveal roast
p319
I1
sVroast beef
p320
I1
sVcortland
p321
I1
sVcarambola
p322
I1
sVacorn squash
p323
I1
sVaubergine
p324
I1
sVginger nut
p325
I1
sVcheckerberry
p326
I1
sVhot pepper
p327
I1
sVpartridge
p328
I1
sVneck sweetbread
p329
I1
sVboysenberry
p330
I1
sVshoulder
p331
I1
sVchinese jujube
p332
I1
sVsmoked mackerel
p333
I1
sVacerola
p334
I1
sVshad roe
p335
I1
sVfinocchio
p336
I1
sVpinwheel roll
p337
I1
sVsnap bean
p338
I1
sVcinnamon bread
p339
I1
sVwhite cake
p340
I1
sVspinach beet
p341
I1
sVtomatillo
p342
I1
sVbaked potato
p343
I1
sVjimmies
p344
I1
sVvirginia ham
p345
I1
sVsoursop
p346
I1
sVcut of meat
p347
I1
sVokra
p348
I1
sVclover-leaf roll
p349
I1
sVdry cereal
p350
I1
sVcut of lamb
p351
I1
sVflounder
p352
I1
sVlemonade mix
p353
I1
sVplantain
p354
I1
sVpigeon pea
p355
I1
sVbaklava
p356
I1
sVsirloin tip
p357
I1
sVmuscatel
p358
I1
sVbermuda onion
p359
I1
sVhot cross bun
p360
I1
sVdeep-dish pie
p361
I1
sVoreo
p362
I1
sVchitterlings
p363
I1
sVsplit pea
p364
I1
sVcoral
p365
I1
sVfinnan haddock
p366
I1
sVblack bean
p367
I1
sVclementine
p368
I1
sVchocolate eclair
p369
I1
sVconvenience food
p370
I1
sVgingerbread
p371
I1
sVoctopus
p372
I1
sVsaveloy
p373
I1
sVflatbread
p374
I1
sVoxheart cherry
p375
I1
sVspring onion
p376
I1
sVhard-shell clam
p377
I1
sVrockfish
p378
I1
sVloin
p379
I1
sVdessert apple
p380
I1
sVvolaille
p381
I1
sVsoy
p382
I1
sVbroccoli rabe
p383
I1
sVblue cheese
p384
I1
sVpollock
p385
I1
sVvol au vent
p386
I1
sVhome fries
p387
I1
sVceriman
p388
I1
sVsally lunn
p389
I1
sVsea bass
p390
I1
sVschrod
p391
I1
sVgerman pancake
p392
I1
sVbread stick
p393
I1
sVpoitrine d'agneau
p394
I1
sVblueberry
p395
I1
sVsour cherry
p396
I1
sVrum baba
p397
I1
sVshin
p398
I1
sVdamson
p399
I1
sVgenoise
p400
I1
sVcobbler
p401
I1
sVpitahaya
p402
I1
sVsour orange
p403
I1
sVnonpareil
p404
I1
sVbaguette
p405
I1
sVsmelt
p406
I1
sVvenison
p407
I1
sVrock cornish hen
p408
I1
sVroll
p409
I1
sVtunny
p410
I1
sVnavy bean
p411
I1
sVmelon ball
p412
I1
sVcalf's tongue
p413
I1
sVready mix
p414
I1
sVleafy vegetable
p415
I1
sVpotato
p416
I1
sVjamaica apple
p417
I1
sVfox grape
p418
I1
sVmilt
p419
I1
sVbran muffin
p420
I1
sVmountain cranberry
p421
I1
sVbutter cookie
p422
I1
sVroe
p423
I1
sVguava
p424
I1
sVangel cake
p425
I1
sVsimnel
p426
I1
sVgrape
p427
I1
sVmuscadine
p428
I1
sVveg
p429
I1
sVtournedos
p430
I1
sVtourtiere
p431
I1
sVcouscous
p432
I1
sVcooking chocolate
p433
I1
sVgreengage plum
p434
I1
sVjerk
p435
I1
sVbrownie
p436
I1
sVbanana bread
p437
I1
sVsteak and kidney pie
p438
I1
sVlinguica
p439
I1
sVpea bean
p440
I1
sVwhite potato
p441
I1
sVedam
p442
I1
sVloganberry
p443
I1
sVeclair
p444
I1
sVharicot
p445
I1
sVtop round
p446
I1
sVround
p447
I1
sVoreo cookie
p448
I1
sVpork
p449
I1
sVmudcat
p450
I1
sVporc
p451
I1
sVcurrant
p452
I1
sVbamboo shoot
p453
I1
sVcrab apple
p454
I1
sVfrankfurter
p455
I1
sVgnocchi
p456
I1
sVgarlic bread
p457
I1
sVpotato pancake
p458
I1
sVmonkey bread
p459
I1
sVfillet
p460
I1
sVpin bone
p461
I1
sVflame tokay
p462
I1
sVwhortleberry
p463
I1
sVgingersnap
p464
I1
sVblack bread
p465
I1
sVegg noodle
p466
I1
sVblackheart cherry
p467
I1
sVflapjack
p468
I1
sVcelery root
p469
I1
sVstrudel
p470
I1
sVcaramel bun
p471
I1
sVpuffer
p472
I1
sVchateaubriand
p473
I1
sVradish
p474
I1
sVsoft pretzel
p475
I1
sVtakeout food
p476
I1
sVonion roll
p477
I1
sVrabbit food
p478
I1
sVsaltwater fish
p479
I1
sVsaltine
p480
I1
sVgarden pea
p481
I1
sVpapaw
p482
I1
sVcitrous fruit
p483
I1
sVyoghurt
p484
I1
sVwhole wheat bread
p485
I1
sVbutternut squash
p486
I1
sVleg of lamb
p487
I1
sVplum tomato
p488
I1
sVchocolate
p489
I1
sVsparerib
p490
I1
sVcatawba
p491
I1
sVrolled biscuit
p492
I1
sVnorwegian lobster
p493
I1
sVleechee
p494
I1
sVsoft-shelled crab
p495
I1
sVlingonberry
p496
I1
sVscuppernong
p497
I1
sVjumbal
p498
I1
sVbouchee
p499
I1
sVbluefin tuna
p500
I1
sVslipskin grape
p501
I1
sVheart
p502
I1
sVjambon
p503
I1
sVgranola bar
p504
I1
sVmatzo
p505
I1
sVpie shell
p506
I1
sVred salmon
p507
I1
sVbreast of lamb
p508
I1
sVsavoy
p509
I1
sVcollards
p510
I1
sVquahaug
p511
I1
sVbittersweet chocolate
p512
I1
sVflank
p513
I1
sVspud
p514
I1
sVchocolate candy
p515
I1
sVgarden cress
p516
I1
sVeggfruit
p517
I1
sVproduce
p518
I1
sVdate
p519
I1
sVdove
p520
I1
sVcinnamon bun
p521
I1
sVserviceberry
p522
I1
sVcrepe
p523
I1
sVneck
p524
I1
sVpullet
p525
I1
sVmombin
p526
I1
sVnorthern spy
p527
I1
sVmango
p528
I1
sVpigs' feet
p529
I1
sVpecan pie
p530
I1
sVgraham cracker
p531
I1
sVsailfish
p532
I1
sVfatback
p533
I1
sVbrain
p534
I1
sVcherry tomato
p535
I1
sVkippered salmon
p536
I1
sVsunfish
p537
I1
sVlamb chop
p538
I1
sVfastnacht
p539
I1
sVstayman winesap
p540
I1
sVananas
p541
I1
sVharicot vert
p542
I1
sVbarbados cherry
p543
I1
sVlegume
p544
I1
sValfalfa sprout
p545
I1
sVangel food cake
p546
I1
sValmond crescent
p547
I1
sVgrouse
p548
I1
sVsavarin
p549
I1
sVmacaroni
p550
I1
sVmeat loaf
p551
I1
sVlane's prince albert
p552
I1
sVgoose
p553
I1
sVmexican black cherry
p554
I1
sVmexican husk tomato
p555
I1
sVblue point
p556
I1
sVcut of mutton
p557
I1
sVsavoy cabbage
p558
I1
sVquandong
p559
I1
sVkiwi fruit
p560
I1
sVlinguini
p561
I1
sVnutmeg melon
p562
I1
sVlinguine
p563
I1
sVporterhouse
p564
I1
sVdanish blue
p565
I1
sVcross bun
p566
I1
sVcarp
p567
I1
sVlimpa
p568
I1
sVquark
p569
I1
sVside of bacon
p570
I1
sVsweet pepper
p571
I1
sVjapanese crab
p572
I1
sVpepperoni
p573
I1
sVirish soda bread
p574
I1
sVcheese
p575
I1
sVblini
p576
I1
sVscollop
p577
I1
sVtwinkie
p578
I1
sVbliny
p579
I1
sVsoft roe
p580
I1
sVpetit four
p581
I1
sVground beef
p582
I1
sVgreen bean
p583
I1
sVswedish rye
p584
I1
sVyellow delicious
p585
I1
sVlingcod
p586
I1
sVyoghourt
p587
I1
sVvermicelli
p588
I1
sVpompano
p589
I1
sVred herring
p590
I1
sVshadberry
p591
I1
sVmatzo ball
p592
I1
sVknackwurst
p593
I1
sViceberg
p594
I1
sVmarble cake
p595
I1
sVbreadstick
p596
I1
sVpork pie
p597
I1
sVsurinam cherry
p598
I1
sVspareribs
p599
I1
sVcockle
p600
I1
sVpablum
p601
I1
sVcinnamon roll
p602
I1
sVwinkle
p603
I1
sVfruit bar
p604
I1
sVcoconut
p605
I1
sVsalad burnet
p606
I1
sVbeef jerky
p607
I1
sVpastry
p608
I1
sVliederkranz
p609
I1
sVcoco plum
p610
I1
sVred pepper
p611
I1
sVfresh bean
p612
I1
sVsquab
p613
I1
sVbirthday cake
p614
I1
sVbok choy
p615
I1
sVchocolate bar
p616
I1
sVcheesecake
p617
I1
sVred rockfish
p618
I1
sVhubbard squash
p619
I1
sVhoneydew
p620
I1
sVbok choi
p621
I1
sVlichi
p622
I1
sVmatzoh ball
p623
I1
sVseafood
p624
I1
sVliverwurst
p625
I1
sVmacaroon
p626
I1
sVradicchio
p627
I1
sVvalencia orange
p628
I1
sVflapcake
p629
I1
sVperch
p630
I1
sVfrench-fried potatoes
p631
I1
sVcalamary
p632
I1
sVswedish turnip
p633
I1
sVquandang
p634
I1
sVcalamari
p635
I1
sVnetted melon
p636
I1
sVslop
p637
I1
sVnectarine
p638
I1
sVanadama bread
p639
I1
sVsea squab
p640
I1
sVsloe
p641
I1
sVcoconut meat
p642
I1
sVcruciferous vegetable
p643
I1
sVsprout
p644
I1
sVquark cheese
p645
I1
sVpumpkin
p646
I1
sVpastrami
p647
I1
sVgruyere
p648
I1
sVgoat cheese
p649
I1
sVcherrystone clam
p650
I1
sVtv dinner
p651
I1
sVbeluga caviar
p652
I1
sVgem
p653
I1
sVprima
p654
I1
sVbeef loin
p655
I1
sVspanish lime
p656
I1
sVmedlar
p657
I1
sVfish loaf
p658
I1
sVgammon
p659
I1
sVtortilla
p660
I1
sVfinnan haddie
p661
I1
sVstockfish
p662
I1
sVstew meat
p663
I1
sVgrissino
p664
I1
sVchitlings
p665
I1
sVmutton
p666
I1
sVcauliflower
p667
I1
sVcrawfish
p668
I1
sVdried apricot
p669
I1
sVtimbale case
p670
I1
sVmandarin
p671
I1
sVturbot
p672
I1
sVcoffee ring
p673
I1
sVcantaloupe
p674
I1
sVsoft roll
p675
I1
sValaskan king crab
p676
I1
sVwest indian cherry
p677
I1
sVbrook trout
p678
I1
sVberry
p679
I1
sVchorizo
p680
I1
sVsweet cherry
p681
I1
sVshortbread cookie
p682
I1
sVraw vegetable
p683
I1
sVpicnic shoulder
p684
I1
sVribier
p685
I1
sVturkey
p686
I1
sVside of meat
p687
I1
sVdoughboy
p688
I1
sVcamembert
p689
I1
sVjerked meat
p690
I1
sVdouble cream
p691
I1
sVjerky
p692
I1
sVkentucky wonder
p693
I1
sVravioli
p694
I1
sVcake mix
p695
I1
sVtangelo
p696
I1
sVsquash
p697
I1
sVyellow mombin
p698
I1
sVrump roast
p699
I1
sVbismark
p700
I1
sVblowfish
p701
I1
sVscup
p702
I1
sVmouton
p703
I1
sVriver prawn
p704
I1
sVscrapple
p705
I1
sVocean perch
p706
I1
sVvidalia onion
p707
I1
sVthompson seedless
p708
I1
sVcroaker
p709
I1
sVlobster tail
p710
I1
sVpuffed wheat
p711
I1
sVtartlet
p712
I1
sVcoho salmon
p713
I1
sVflageolet
p714
I1
sVcatfish
p715
I1
sVsapodilla
p716
I1
sVtwice-baked bread
p717
I1
sVnewtown wonder
p718
I1
sVcanistel
p719
I1
sVcold cereal
p720
I1
sVlemon
p721
I1
sVdrop biscuit
p722
I1
sVrock salmon
p723
I1
sVrack of lamb
p724
I1
sVtriple cream
p725
I1
sVfordhooks
p726
I1
sVveau
p727
I1
sVbiltong
p728
I1
sVveal
p729
I1
sVshortbread
p730
I1
sVbutterhead lettuce
p731
I1
sVcornbread
p732
I1
sVcream puff
p733
I1
sVbridecake
p734
I1
sVsteamer
p735
I1
sVjellyroll
p736
I1
sVbaldwin
p737
I1
sVfish steak
p738
I1
sVsmallmouth bass
p739
I1
sVcayenne
p740
I1
sVedible fruit
p741
I1
sVfrench endive
p742
I1
sVcottage cheese
p743
I1
sVashcake
p744
I1
sVendive
p745
I1
sVchocolate kiss
p746
I1
sVfryer
p747
I1
sVclam
p748
I1
sVwater biscuit
p749
I1
sVcouverture
p750
I1
sVleek
p751
I1
sVblackberry
p752
I1
sVpatty shell
p753
I1
sVseed cake
p754
I1
sVnorthern lobster
p755
I1
sVcisco
p756
I1
sVbreadfruit
p757
I1
sVnaan
p758
I1
sVbowtie pasta
p759
I1
sVlobster
p760
I1
sVchristmas cake
p761
I1
sVbluefish
p762
I1
sVcrouton
p763
I1
sVpascal celery
p764
I1
sVdasheen
p765
I1
sVshrimp
p766
I1
sVchop
p767
I1
sVhindquarter
p768
I1
sVeuropean lobster
p769
I1
sVchou
p770
I1
sVwild spinach
p771
I1
sVlonganberry
p772
I1
sVbay scallop
p773
I1
sVmadeira sponge
p774
I1
sVred onion
p775
I1
sVsweet cup
p776
I1
sVceleriac
p777
I1
sVcarbonado
p778
I1
sVbuttercup squash
p779
I1
sVdate-nut bread
p780
I1
sVwinter melon
p781
I1
sVbelgian waffle
p782
I1
sVlox
p783
I1
sVfish
p784
I1
sVsorrel
p785
I1
sVbreast of veal
p786
I1
sVscorzonera
p787
I1
sVcardoon
p788
I1
sVskillet corn bread
p789
I1
sVking crab
p790
I1
sVgray mullet
p791
I1
sVcurly endive
p792
I1
sVbutter bean
p793
I1
sVrusk
p794
I1
sVporkchop
p795
I1
sVtripe
p796
I1
sVbuttermilk pancake
p797
I1
sVstrawberry
p798
I1
sVnova scotia salmon
p799
I1
sVedible bean
p800
I1
sVgumbo
p801
I1
sVfreestone
p802
I1
sVspaghettini
p803
I1
sVlichee
p804
I1
sVmangel wurzel
p805
I1
sVtagliatelle
p806
I1
sVbear claw
p807
I1
sVaitchbone
p808
I1
sVcornish pasty
p809
I1
sVpear
p810
I1
sVgoa bean
p811
I1
sVamerican lobster
p812
I1
sVsardine
p813
I1
sVhindshank
p814
I1
sVblood sausage
p815
I1
sVred snapper
p816
I1
sVtuna fish
p817
I1
sVblintz
p818
I1
sVpheasant
p819
I1
sVred delicious
p820
I1
sVparmesan
p821
I1
sVmascarpone
p822
I1
sVcuke
p823
I1
sVwhiting
p824
I1
sVswedish rye bread
p825
I1
sVdumpling
p826
I1
sVcayenne pepper
p827
I1
sVnapoleon
p828
I1
sVsugar pea
p829
I1
sVwhite bread
p830
I1
sVcress
p831
I1
sVoffal
p832
I1
sVham hock
p833
I1
sVturnip greens
p834
I1
sVparker house roll
p835
I1
sVporgy
p836
I1
sVsea scallop
p837
I1
sVeating apple
p838
I1
sVprosciutto
p839
I1
sVdodger
p840
I1
sVdog biscuit
p841
I1
sVgoose liver
p842
I1
sVbeurre noisette
p843
I1
sVswiss chard
p844
I1
sVtoll house cookie
p845
I1
sVseville orange
p846
I1
sVwinter flounder
p847
I1
sVspanish mackerel
p848
I1
sVbuttercrunch
p849
I1
sVnut bread
p850
I1
sVceltuce
p851
I1
sVscandinavian lox
p852
I1
sVgreen groceries
p853
I1
sVlamb roast
p854
I1
sVspice cake
p855
I1
sVknockwurst
p856
I1
sVtomalley
p857
I1
sVpumpernickel
p858
I1
sVfrangipane
p859
I1
sVanjou
p860
I1
sVlake trout
p861
I1
sVmatzoh
p862
I1
sVrib roast
p863
I1
sVlasagne
p864
I1
sVwinter crookneck squash
p865
I1
sVbacon strip
p866
I1
sVhot cake
p867
I1
sVhershey bar
p868
I1
sVleaf mustard
p869
I1
sVblack cherry
p870
I1
sVhushpuppy
p871
I1
sVherring
p872
I1
sVnatal plum
p873
I1
sVspoon bread
p874
I1
sVseckel
p875
I1
sVapricot
p876
I1
sVamerican cheese
p877
I1
sVwinter squash
p878
I1
sVemmental
p879
I1
sVcoffee roll
p880
I1
sVsaddle of lamb
p881
I1
sVmelon
p882
I1
sVstick
p883
I1
sVloquat
p884
I1
sVguinea hen
p885
I1
sVhog plum
p886
I1
sVraisin cookie
p887
I1
sVking salmon
p888
I1
sVpollack
p889
I1
sVmatzah ball
p890
I1
sVcorned beef
p891
I1
sVhamburger
p892
I1
sVcochon de lait
p893
I1
sVraisin
p894
I1
sVfarmer's cheese
p895
I1
sVsoft-shell crab
p896
I1
sVrefrigerator cookie
p897
I1
sVcalf's liver
p898
I1
sVpone
p899
I1
sVdurian
p900
I1
sVpot cheese
p901
I1
sVhuitre
p902
I1
sVchinese cabbage
p903
I1
sVwhole meal bread
p904
I1
sVcling
p905
I1
sVlemon butter
p906
I1
sVdragon's eye
p907
I1
sVtamarindo
p908
I1
sVapple tart
p909
I1
sVseckel pear
p910
I1
sVvictoria plum
p911
I1
sVhalibut
p912
I1
sVdanish pastry
p913
I1
sVplaice
p914
I1
sVmaine lobster
p915
I1
sVbeignet
p916
I1
sVscrod
p917
I1
sVwiener
p918
I1
sVsirloin steak
p919
I1
sVfrench bean
p920
I1
sVbaguet
p921
I1
sVredfish
p922
I1
sVbrie
p923
I1
sVdelmonico steak
p924
I1
sVcracked-wheat bread
p925
I1
sVbullock's heart
p926
I1
sVcappelletti
p927
I1
sVcorn dodger
p928
I1
sVpickerel
p929
I1
sVsucker
p930
I1
sVrome beauty
p931
I1
sVcupcake
p932
I1
sVgigot
p933
I1
sVmuskmelon
p934
I1
sVspanish onion
p935
I1
sVlimpet
p936
I1
sVfedelline
p937
I1
sVcoffeecake
p938
I1
sVgranadilla
p939
I1
sVkentucky wonder bean
p940
I1
sVcut of pork
p941
I1
sVcooky
p942
I1
sVsoya
p943
I1
sVcoffee cake
p944
I1
sVbitter chocolate
p945
I1
sVhare
p946
I1
sVhoneycomb tripe
p947
I1
sVgraham bread
p948
I1
sVfarfalle
p949
I1
sVdamson plum
p950
I1
sVskillet bread
p951
I1
sVvariety meat
p952
I1
sVgranola
p953
I1
sVquince
p954
I1
sVbass
p955
I1
sVavocado pear
p956
I1
sVcherimoya
p957
I1
sVcookie
p958
I1
sVgreen soybean
p959
I1
sVmorello
p960
I1
sVchinook salmon
p961
I1
sVpilot bread
p962
I1
sVjulienne vegetable
p963
I1
sVfrench loaf
p964
I1
sVfry bread
p965
I1
sVmangosteen
p966
I1
sVcut of veal
p967
I1
sVcrape
p968
I1
sVlambchop
p969
I1
sVbatter bread
p970
I1
sVedda
p971
I1
sVbrisket
p972
I1
sVsapsago
p973
I1
sVscallion
p974
I1
sVsour gourd
p975
I1
sVcommon bean
p976
I1
sVcelery cabbage
p977
I1
sVbanana
p978
I1
sVgenipap fruit
p979
I1
sVsausage roll
p980
I1
sVstone crab
p981
I1
sVturnip cabbage
p982
I1
sVforequarter
p983
I1
sVtortellini
p984
I1
sVspiceberry
p985
I1
sVhaddock
p986
I1
sVfilet mignon
p987
I1
sVbell apple
p988
I1
sVbaba au rhum
p989
I1
sVyak butter
p990
I1
sVgenip
p991
I1
sVhallah
p992
I1
sVeuropean blueberry
p993
I1
sVpoulet
p994
I1
sVjunk food
p995
I1
sVorgans
p996
I1
sVgiblet
p997
I1
sVseedless raisin
p998
I1
sVzucchini
p999
I1
sVeater
p1000
I1
sVsalmon
p1001
I1
sVjuneberry
p1002
I1
sVfriedcake
p1003
I1
sVchard
p1004
I1
sVoyster
p1005
I1
sVirish potato
p1006
I1
sVsoft-shell clam
p1007
I1
sVratafia biscuit
p1008
I1
sVsolanaceous vegetable
p1009
I1
sVjaboticaba
p1010
I1
sVfrozen yogurt
p1011
I1
sVcustard apple
p1012
I1
sVboston brown bread
p1013
I1
sVsockeye
p1014
I1
sVkitembilla
p1015
I1
sVgolden delicious
p1016
I1
sVchapatti
p1017
I1
sVwhite bean
p1018
I1
sVhorsemeat
p1019
I1
sVchop-suey greens
p1020
I1
sVjulienne
p1021
I1
sVcrabmeat
p1022
I1
sVecrevisse
p1023
I1
sVgarden truck
p1024
I1
sVthroat sweetbread
p1025
I1
sVmutton chop
p1026
I1
sVjalapeno pepper
p1027
I1
sVmince pie
p1028
I1
sVquiche
p1029
I1
sVgouda
p1030
I1
sVchopped steak
p1031
I1
sVanchovy pear
p1032
I1
sVladyfinger
p1033
I1
sVmeuniere butter
p1034
I1
sVcajan pea
p1035
I1
sVelderberry
p1036
I1
sVmonstera
p1037
I1
sVbaked goods
p1038
I1
sVsole
p1039
I1
sVconcord grape
p1040
I1
sVsilver salmon
p1041
I1
sVsweet potato
p1042
I1
sVsprat
p1043
I1
sVsummer crookneck
p1044
I1
sVwater lemon
p1045
I1
sVcanadian bacon
p1046
I1
sVwhitebait
p1047
I1
sVsaskatoon
p1048
I1
sVeggplant
p1049
I1
sVshortcake
p1050
I1
sVpatty
p1051
I1
sVloaf
p1052
I1
sVcivet bean
p1053
I1
sVwhelk
p1054
I1
sVscallop
p1055
I1
sVstrip steak
p1056
I1
sVrat cheese
p1057
I1
sVmuesli
p1058
I1
sVpanfish
p1059
I1
sVenglish runner bean
p1060
I1
sVpurple onion
p1061
I1
sVprofiterole
p1062
I1
sVcasaba
p1063
I1
sVdrop scone
p1064
I1
sVwinter cress
p1065
I1
sVvelveeta
p1066
I1
sVlong-neck clam
p1067
I1
sVgingerbread man
p1068
I1
sVheadcheese
p1069
I1
sVkaiser roll
p1070
I1
sVpolony
p1071
I1
sVliver
p1072
I1
sVsweetbread
p1073
I1
sVmatzah
p1074
I1
sVfreshwater bass
p1075
I1
sVfettuccine alfredo
p1076
I1
sVsemi-sweet chocolate
p1077
I1
sVsquash pie
p1078
I1
sVyellow turnip
p1079
I1
sVjapanese plum
p1080
I1
sVhuckleberry
p1081
I1
sVanchovy
p1082
I1
sVquail
p1083
I1
sVmuenster
p1084
I1
sVpocket bread
p1085
I1
sVhard roe
p1086
I1
sVbrown butter
p1087
I1
sVvegetable oyster
p1088
I1
sVstayman
p1089
I1
sVcorn tash
p1090
I1
sVchipolata
p1091
I1
sVvienna roll
p1092
I1
sVchicory
p1093
I1
sVshad
p1094
I1
sVbrownie mix
p1095
I1
sVweakfish
p1096
I1
sVtorte
p1097
I1
sVsnail
p1098
I1
sVpomegranate
p1099
I1
sVpieplant
p1100
I1
sVziti
p1101
I1
sVcitrange
p1102
I1
sVcucumber
p1103
I1
sVpimento
p1104
I1
sVbartlett
p1105
I1
sVcorn muffin
p1106
I1
sVnoodle
p1107
I1
sVraisin bran
p1108
I1
sVfresh foods
p1109
I1
sVcrayfish
p1110
I1
sVhotdog
p1111
I1
sVroaster
p1112
I1
sVsweetsop
p1113
I1
sVcheddar
p1114
I1
sVmarrowfat pea
p1115
I1
sVpork loin
p1116
I1
sVdoughnut
p1117
I1
sVpimiento
p1118
I1
sVcut
p1119
I1
sVgrapefruit
p1120
I1
sVturban squash
p1121
I1
sVsnap
p1122
I1
sVkumquat
p1123
I1
sVflatbrod
p1124
I1
sVbutterbean
p1125
I1
sVelver
p1126
I1
sVmammee apple
p1127
I1
sVrigatoni
p1128
I1
sVgame
p1129
I1
sVspatchcock
p1130
I1
sVjackfruit
p1131
I1
sVbeef roast
p1132
I1
sVeel
p1133
I1
sVgriddlecake
p1134
I1
sVturtle bean
p1135
I1
sVdouble gloucester
p1136
I1
sVcrawdad
p1137
I1
sVpandowdy
p1138
I1
sVpilchard
p1139
I1
sVwintergreen
p1140
I1
sVround clam
p1141
I1
sVescargot
p1142
I1
sVbrisling
p1143
I1
sVbrick cheese
p1144
I1
sVjerusalem artichoke
p1145
I1
sVrock cake
p1146
I1
sVcapon
p1147
I1
sVrugelach
p1148
I1
sVvictoria sandwich
p1149
I1
sVrose apple
p1150
I1
sVstar fruit
p1151
I1
sVpea
p1152
I1
sVsweet orange
p1153
I1
sVitalian bread
p1154
I1
sVsour bread
p1155
I1
sValaska crab
p1156
I1
sVbrussels biscuit
p1157
I1
sVraspberry
p1158
I1
sVmuscat
p1159
I1
sVbeefsteak
p1160
I1
sVbrioche
p1161
I1
sVrollmops
p1162
I1
sVpicnic ham
p1163
I1
sVfricandeau
p1164
I1
sVrye bread
p1165
I1
sVsourdough bread
p1166
I1
sVskillet cake
p1167
I1
sVfortune cookie
p1168
I1
sVtea biscuit
p1169
I1
sVparsnip
p1170
I1
sVcrisphead lettuce
p1171
I1
sVchapati
p1172
I1
sVbattercake
p1173
I1
sVfilet
p1174
I1
sVmurphy
p1175
I1
sVbluefin
p1176
I1
sVnova scotia lox
p1177
I1
sVmulberry
p1178
I1
sVicaco
p1179
I1
sVcheddar cheese
p1180
I1
sVboxberry
p1181
I1
sVfries
p1182
I1
sVfrier
p1183
I1
sVcorn beef
p1184
I1
sVoysters rockefeller
p1185
I1
sVseeded raisin
p1186
I1
sVstore cheese
p1187
I1
sVlight bread
p1188
I1
sVsatsuma
p1189
I1
sVtaro
p1190
I1
sVpeach
p1191
I1
sVgrouper
p1192
I1
sVblueberry pie
p1193
I1
sVnan
p1194
I1
sVsweetbreads
p1195
I1
sVkippered herring
p1196
I1
sVtart
p1197
I1
sVmustard
p1198
I1
sVatlantic salmon
p1199
I1
sVmamey
p1200
I1
sVnative peach
p1201
I1
sVswede
p1202
I1
sVsapote
p1203
I1
sVwonton
p1204
I1
sVsapota
p1205
I1
sVjalapeno
p1206
I1
sVwafer
p1207
I1
sVfarm cheese
p1208
I1
sVjujube
p1209
I1
sVpigweed
p1210
I1
sVoyster plant
p1211
I1
sVsoda biscuit
p1212
I1
sVbuffalo
p1213
I1
sVartichoke heart
p1214
I1
sVrabbit
p1215
I1
sVbell pepper
p1216
I1
sVgreen pepper
p1217
I1
sVflannel cake
p1218
I1
sVpassion fruit
p1219
I1
sVmeat pie
p1220
I1
sVpaschal celery
p1221
I1
sVjelly doughnut
p1222
I1
sVsowbelly
p1223
I1
sVdevil's food
p1224
I1
sVfield soybean
p1225
I1
sVindian mustard
p1226
I1
sVblueberry yogurt
p1227
I1
sVamarelle
p1228
I1
sVasparagus
p1229
I1
sVlowbush cranberry
p1230
I1
sVquahog
p1231
I1
sVrack
p1232
I1
sVcorn fritter
p1233
I1
sVbroad bean
p1234
I1
sVsultana
p1235
I1
sVhamburger bun
p1236
I1
sVboston cream pie
p1237
I1
sVspaghetti
p1238
I1
sVblack pudding
p1239
I1
sVbrussels sprouts
p1240
I1
sVsausage
p1241
I1
sVdowdy
p1242
I1
sVdandelion green
p1243
I1
sVcrookneck squash
p1244
I1
sVpotherb
p1245
I1
sVbeigel
p1246
I1
sVbird
p1247
I1
sVcornmeal mush
p1248
I1
sVcocoa powder
p1249
I1
sVleg
p1250
I1
sVcalves' feet
p1251
I1
sVfield pea
p1252
I1
sVpancake
p1253
I1
sVchinese date
p1254
I1
sVgarambulla
p1255
I1
sVluncheon meat
p1256
I1
sVgrey mullet
p1257
I1
sVrainbow trout
p1258
I1
sVchocolate chip cookie
p1259
I1
sVsalad greens
p1260
I1
sVmussel
p1261
I1
sVapple
p1262
I1
sVcrumpet
p1263
I1
sVyorkshire pudding
p1264
I1
sVsuckling pig
p1265
I1
sVpersian melon
p1266
I1
sVapple fritter
p1267
I1
sVduck
p1268
I1
sVlime
p1269
I1
sVlansat
p1270
I1
sVrutabaga
p1271
I1
sVstomach sweetbread
p1272
I1
sVheart cherry
p1273
I1
sVcrab
p1274
I1
sVjonathan
p1275
I1
sVbaba
p1276
I1
sVsea trout
p1277
I1
sVcorn dab
p1278
I1
sVtangerine
p1279
I1
sVlatke
p1280
I1
sVaguacate
p1281
I1
sVcinnamon snail
p1282
I1
sVchoc
p1283
I1
sVsorb
p1284
I1
sVkasha
p1285
I1
sVraised doughnut
p1286
I1
sVbreadstuff
p1287
I1
sVgherkin
p1288
I1
sVquantong
p1289
I1
sVbaking-powder biscuit
p1290
I1
sVblade roast
p1291
I1
sVcut of beef
p1292
I1
sVmostaccioli
p1293
I1
sVcitrus fruit
p1294
I1
sVdonut
p1295
I1
sVscone
p1296
I1
sVannon
p1297
I1
sVchinook
p1298
I1
sVmammee
p1299
I1
sVcaraway seed bread
p1300
I1
sVblack salsify
p1301
I1
sVlobster tart
p1302
I1
sVsweet calabash
p1303
I1
sVcarrot
p1304
I1
sVkai apple
p1305
I1
sVlamb
p1306
I1
sVrhubarb
p1307
I1
sVberlin doughnut
p1308
I1
sVbeet green
p1309
I1
sVearthnut
p1310
I1
sVbeef patty
p1311
I1
sVsorb apple
p1312
I1
sVflat bone
p1313
I1
sVlunch meat
p1314
I1
sVfinnan
p1315
I1
sVprocessed cheese
p1316
I1
sVkohlrabi
p1317
I1
sVgluten bread
p1318
I1
sVround steak
p1319
I1
sVcommon sorrel
p1320
I1
sVdolphinfish
p1321
I1
sVcabbage
p1322
I1
sVtomato
p1323
I1
sVtakeaway
p1324
I1
sVshaddock
p1325
I1
sVquick bread
p1326
I1
sVoyster cracker
p1327
I1
sVhake
p1328
I1
sVgranny smith
p1329
I1
sVkingfish
p1330
I1
sVpemican
p1331
I1
sVmelba toast
p1332
I1
sVartichoke
p1333
I1
sVpawpaw
p1334
I1
sVroot vegetable
p1335
I1
sVorange
p1336
I1
sVricotta
p1337
I1
sVloin of lamb
p1338
I1
sVcitrus
p1339
I1
sVswordfish
p1340
I1
sVanise cookie
p1341
I1
sVpfannkuchen
p1342
I1
sVcushaw
p1343
I1
sVbartlett pear
p1344
I1
sVkiss
p1345
I1
sVwax bean
p1346
I1
sVpork roast
p1347
I1
sVgreens
p1348
I1
sVtea bread
p1349
I1
sVtimbale
p1350
I1
sVloaf sugar
p1351
I1
sVwhite chocolate
p1352
I1
sVnet melon
p1353
I1
sVmacoun
p1354
I1
sVtemple orange
p1355
I1
sVuruguay potato
p1356
I1
sVbeef neck
p1357
I1
sVblack currant
p1358
I1
sVescarole
p1359
I1
sVcrescent roll
p1360
I1
sVlentil
p1361
I1
sVlargemouth bass
p1362
I1
sVnavel orange
p1363
I1
sVwhitefish
p1364
I1
sVteaberry
p1365
I1
sVplum
p1366
I1
sVcrookneck
p1367
I1
sVsummer squash
p1368
I1
sVgrits
p1369
I1
sVscampo
p1370
I1
sVkidney pie
p1371
I1
sVfrank
p1372
I1
sVcornpone
p1373
I1
sVackee
p1374
I1
sVpilot biscuit
p1375
I1
sVsalami
p1376
I1
sVcollard greens
p1377
I1
sVclingstone
p1378
I1
sVchilli
p1379
I1
sVkipper
p1380
I1
sVbialy
p1381
I1
sVzwieback
p1382
I1
sVcorn flake
p1383
I1
sVchilly
p1384
I1
sVenglish sole
p1385
I1
sVunleavened bread
p1386
I1
sVgrey sole
p1387
I1
sVbabka
p1388
I1
sVemmenthaler
p1389
I1
sVugli fruit
p1390
I1
sVvegetable marrow
p1391
I1
sVmarrow
p1392
I1
sVscotch pancake
p1393
I1
sVblintze
p1394
I1
sVfrench bread
p1395
I1
sVprickly pear
p1396
I1
sVtaro root
p1397
I1
sVdungeness crab
p1398
I1
sVblade apple
p1399
I1
sVgobbet
p1400
I1
sVhot cereal
p1401
I1
sVamerican smelt
p1402
I1
sVoven stuffer roaster
p1403
I1
sVshallot
p1404
I1
sValimentary paste
p1405
I1
sVhome-fried potatoes
p1406
I1
sVjewish rye
p1407
I1
sVtokay
p1408
I1
sVhen
p1409
I1
sVprune
p1410
I1
sVcowberry
p1411
I1
sVbilberry
p1412
I1
sVsteamer clam
p1413
I1
sVcalf's brain
p1414
I1
sVenglish muffin
p1415
I1
sVhalal
p1416
I1
sVpork belly
p1417
I1
sVcaviare
p1418
I1
sVred meat
p1419
I1
sVhoecake
p1420
I1
sVsprinkles
p1421
I1
sVrosefish
p1422
I1
sVbibb lettuce
p1423
I1
sVcarissa plum
p1424
I1
sVgateau
p1425
I1
sVpuffed rice
p1426
I1
sVcold cuts
p1427
I1
sVbitter orange
p1428
I1
sVfrumenty
p1429
I1
sVcherrystone
p1430
I1
sVcox's orange pippin
p1431
I1
sVyellow bean
p1432
I1
sVromaine
p1433
I1
sVporterhouse steak
p1434
I1
sVdrawn butter
p1435
I1
sVhot dog
p1436
I1
sVcocoyam
p1437
I1
sVwitloof
p1438
I1
sVsoda cracker
p1439
I1
sVbratwurst
p1440
I1
sVchocolate liquor
p1441
I1
sVfrench pastry
p1442
I1
sVchevre
p1443
I1
sVchicken
p1444
I1
sVketembilla
p1445
I1
sVgouda cheese
p1446
I1
sVcherimolla
p1447
I1
sValaska king crab
p1448
I1
sVjak
p1449
I1
sVbottom round
p1450
I1
sVbear paw
p1451
I1
sVfreshwater fish
p1452
I1
sVstriper
p1453
I1
sVlangouste
p1454
I1
sVjoint
p1455
I1
sVbeefsteak tomato
p1456
I1
sVrunner bean
p1457
I1
sVeccles cake
p1458
I1
sVakee
p1459
I1
sVsmoked salmon
p1460
I1
sVchips
p1461
I1
sVwon ton
p1462
I1
sVcocozelle
p1463
I1
sVpie crust
p1464
I1
sVchickpea
p1465
I1
sVbannock
p1466
I1
sVraw meat
p1467
I1
sVsalmon trout
p1468
I1
sVsunchoke
p1469
I1
sVglobe artichoke
p1470
I1
sVfresh food
p1471
I1
sVmashed potato
p1472
I1
sVcoconut cake
p1473
I1
sVlamb's quarter
p1474
I1
sVmanicotti
p1475
I1
sVguanabana
p1476
I1
sVcole
p1477
I1
sVhoneydew melon
p1478
I1
sVwindfall
p1479
I1
sVclub steak
p1480
I1
sVchili pepper
p1481
I1
sVflitch
p1482
I1
sVpemmican
p1483
I1
sVtriple creme
p1484
I1
sVside of pork
p1485
I1
sVgarbanzo
p1486
I1
sVbroccoli
p1487
I1
sVpulassan
p1488
I1
sVvinifera grape
p1489
I1
sVtater
p1490
I1
sVchinese gooseberry
p1491
I1
sVpuff
p1492
I1
sVschnecken
p1493
I1
sVsticky bun
p1494
I1
sVwedge bone
p1495
I1
sVeuropean smelt
p1496
I1
sVpigs' knuckles
p1497
I1
sViceberg lettuce
p1498
I1
sVminute steak
p1499
I1
sVyam
p1500
I1
sVrump
p1501
I1
sVpond apple
p1502
I1
sVstilton
p1503
I1
sVblack-eyed pea
p1504
I1
sVt-bone steak
p1505
I1
sVstreusel
p1506
I1
sVonion bread
p1507
I1
sVhush puppy
p1508
I1
sVjohnnycake
p1509
I1
sVlitchee
p1510
I1
sVsquid
p1511
I1
sVfreshwater bream
p1512
I1
sVseedcake
p1513
I1
sVlemon meringue pie
p1514
I1
sVsand dab
p1515
I1
sVgreen goods
p1516
I1
sVhaslet
p1517
I1
sVnova style salmon
p1518
I1
sVhotdog bun
p1519
I1
sVrainbow smelt
p1520
I1
sVlake herring
p1521
I1
sVpork sausage
p1522
I1
sVjourney cake
p1523
I1
sVpumpkin pie
p1524
I1
sVpoultry
p1525
I1
sVcocoa butter
p1526
I1
sVgreen onion
p1527
I1
sVlangoustine
p1528
I1
sVatole
p1529
I1
sVsweet melon
p1530
I1
sVcusk
p1531
I1
sVbrown bread
p1532
I1
sVbarmbrack
p1533
I1
sVghee
p1534
I1
sVpersimmon
p1535
I1
sVoven stuffer
p1536
I1
sVoxheart
p1537
I1
sVcantaloup
p1538
I1
sVmadeira cake
p1539
I1
sVromaine lettuce
p1540
I1
sVpearmain
p1541
I1
sVonion
p1542
I1
sVchiffon cake
p1543
I1
sVshin bone
p1544
I1
sVfettuccini
p1545
I1
sVsparling
p1546
I1
sVfettuccine
p1547
I1
sVcowpea
p1548
I1
sVcopra
p1549
I1
sVescallop
p1550
I1
sVempire
p1551
I1
sVmeatloaf
p1552
I1
sVfrench fritter
p1553
I1
sVsalmon loaf
p1554
I1
sVsea biscuit
p1555
I1
sVscrag end
p1556
I1
sVginger snap
p1557
I1
sVtruffle
p1558
I1
sVtrout
p1559
I1
sVpasty
p1560
I1
sVmandarin orange
p1561
I1
sVpepper
p1562
I1
sVbutterfish
p1563
I1
sVraisin bread
p1564
I1
sVsnapper
p1565
I1
sVpomelo
p1566
I1
sVhost
p1567
I1
sVpasta
p1568
I1
sVshort ribs
p1569
I1
sVpike
p1570
I1
sVbing cherry
p1571
I1
sVsaddle
p1572
I1
sVbiscuit
p1573
I1
sVemmenthal
p1574
I1
sVcranberry
p1575
I1
sVsugar beet
p1576
I1
sVtongue
p1577
I1
sVemperor
p1578
I1
sVbrandysnap
p1579
I1
sVcitron
p1580
I1
sVhotcake
p1581
I1
sVtenderloin
p1582
I1
sVplumcot
p1583
I1
sVliver pudding
p1584
I1
sVcaviar
p1585
I1
sVcapulin
p1586
I1
sVhealth food
p1587
I1
sVpufferfish
p1588
I1
sVshank
p1589
I1
sVship biscuit
p1590
I1
sVnova salmon
p1591
I1
sVbun
p1592
I1
sVcorn cake
p1593
I1
sVrump steak
p1594
I1
sVhamburger steak
p1595
I1
sVpippin
p1596
I1
sVcake
p1597
I1
sVsugar loaf
p1598
I1
sVyellowtail flounder
p1599
I1
sVhamburger roll
p1600
I1
sVsirloin
p1601
I1
sVpie
p1602
I1
sVpenne
p1603
I1
sVrock lobster
p1604
I1
sVrhubarb pie
p1605
I1
sVhard roll
p1606
I1
sVpattypan squash
p1607
I1
sVcream cheese
p1608
I1
sVshawnee cake
p1609
I1
sVquiche lorraine
p1610
I1
sVkitambilla
p1611
I1
sVfeijoa
p1612
I1
sVgorgonzola
p1613
I1
sVlayer cake
p1614
I1
sVlemon sole
p1615
I1
sVmustard greens
p1616
I1
sVflatfish
p1617
I1
sVkail
p1618
I1
sVprune cake
p1619
I1
s.