(dp0
S'35236'
p1
S'American Indian/Alaska Native Foods'
p2
sS'35237'
p3
g2
sS'35234'
p4
g2
sS'35235'
p5
g2
sS'35232'
p6
g2
sS'35233'
p7
g2
sS'35230'
p8
g2
sS'35231'
p9
g2
sS'19719'
p10
S'Sweets'
p11
sS'21094'
p12
S'Fast Foods'
p13
sS'35239'
p14
g2
sS'11540'
p15
S'Vegetables and Vegetable Products'
p16
sS'11546'
p17
g16
sS'11547'
p18
g16
sS'11548'
p19
g16
sS'11549'
p20
g16
sS'19393'
p21
g11
sS'06590'
p22
S'Soups, Sauces, and Gravies'
p23
sS'06592'
p24
g23
sS'06595'
p25
g23
sS'06594'
p26
g23
sS'06597'
p27
g23
sS'06596'
p28
g23
sS'06599'
p29
g23
sS'06598'
p30
g23
sS'25062'
p31
S'Snacks'
p32
sS'25063'
p33
g32
sS'25060'
p34
g32
sS'19710'
p35
g11
sS'25066'
p36
g32
sS'25067'
p37
g32
sS'25064'
p38
g32
sS'25065'
p39
g32
sS'25068'
p40
g32
sS'35238'
p41
g2
sS'16253'
p42
S'Legumes and Legume Products'
p43
sS'16252'
p44
g43
sS'16251'
p45
g43
sS'16250'
p46
g43
sS'16257'
p47
g43
sS'16256'
p48
g43
sS'16255'
p49
g43
sS'16254'
p50
g43
sS'16259'
p51
g43
sS'16258'
p52
g43
sS'18188'
p53
S'Baked Products'
p54
sS'06334'
p55
g23
sS'06337'
p56
g23
sS'06336'
p57
g23
sS'06331'
p58
g23
sS'06330'
p59
g23
sS'06333'
p60
g23
sS'06332'
p61
g23
sS'12014'
p62
S'Nut and Seed Products'
p63
sS'12016'
p64
g63
sS'06339'
p65
g23
sS'06338'
p66
g23
sS'12013'
p67
g63
sS'12012'
p68
g63
sS'17258'
p69
S'Lamb, Veal, and Game Products'
p70
sS'17259'
p71
g70
sS'18184'
p72
g54
sS'17250'
p73
g70
sS'17251'
p74
g70
sS'17252'
p75
g70
sS'17253'
p76
g70
sS'17254'
p77
g70
sS'17255'
p78
g70
sS'17256'
p79
g70
sS'17257'
p80
g70
sS'21611'
p81
g13
sS'21610'
p82
g13
sS'05734'
p83
S'Poultry Products'
p84
sS'05735'
p85
g84
sS'05736'
p86
g84
sS'05737'
p87
g84
sS'05730'
p88
g84
sS'05732'
p89
g84
sS'05733'
p90
g84
sS'05738'
p91
g84
sS'05739'
p92
g84
sS'01024'
p93
S'Dairy and Egg Products'
p94
sS'01025'
p95
g94
sS'01026'
p96
g94
sS'01027'
p97
g94
sS'01020'
p98
g94
sS'01021'
p99
g94
sS'01022'
p100
g94
sS'01023'
p101
g94
sS'05220'
p102
g84
sS'01028'
p103
g94
sS'05227'
p104
g84
sS'14625'
p105
S'Beverages'
p106
sS'14626'
p107
g106
sS'14627'
p108
g106
sS'14620'
p109
g106
sS'14621'
p110
g106
sS'14622'
p111
g106
sS'14623'
p112
g106
sS'14628'
p113
g106
sS'14629'
p114
g106
sS'13055'
p115
S'Beef Products'
p116
sS'08500'
p117
S'Breakfast Cereals'
p118
sS'08501'
p119
g118
sS'08050'
p120
g118
sS'08504'
p121
g118
sS'08505'
p122
g118
sS'08054'
p123
g118
sS'08507'
p124
g118
sS'08508'
p125
g118
sS'08509'
p126
g118
sS'08058'
p127
g118
sS'08059'
p128
g118
sS'19331'
p129
g11
sS'23059'
p130
g116
sS'23058'
p131
g116
sS'23509'
p132
g116
sS'23508'
p133
g116
sS'23055'
p134
g116
sS'23054'
p135
g116
sS'23057'
p136
g116
sS'23056'
p137
g116
sS'23051'
p138
g116
sS'22959'
p139
S'Meals, Entrees, and Side Dishes'
p140
sS'23053'
p141
g116
sS'23052'
p142
g116
sS'22958'
p143
g140
sS'19330'
p144
g11
sS'19333'
p145
g11
sS'22957'
p146
g140
sS'22956'
p147
g140
sS'23129'
p148
g116
sS'19332'
p149
g11
sS'23128'
p150
g116
sS'03197'
p151
S'Baby Foods'
p152
sS'03194'
p153
g152
sS'03195'
p154
g152
sS'03192'
p155
g152
sS'03193'
p156
g152
sS'03190'
p157
g152
sS'03191'
p158
g152
sS'23658'
p159
g116
sS'03198'
p160
g152
sS'03199'
p161
g152
sS'23125'
p162
g116
sS'23656'
p163
g116
sS'19335'
p164
g11
sS'23127'
p165
g116
sS'23126'
p166
g116
sS'23653'
p167
g116
sS'23652'
p168
g116
sS'10884'
p169
S'Pork Products'
p170
sS'10885'
p171
g170
sS'10886'
p172
g170
sS'10887'
p173
g170
sS'10880'
p174
g170
sS'10881'
p175
g170
sS'10882'
p176
g170
sS'10883'
p177
g170
sS'23650'
p178
g116
sS'10888'
p179
g170
sS'10889'
p180
g170
sS'06101'
p181
g23
sS'21470'
p182
g13
sS'11289'
p183
g16
sS'11288'
p184
g16
sS'19706'
p185
g11
sS'16067'
p186
g43
sS'16060'
p187
g43
sS'16061'
p188
g43
sS'16062'
p189
g43
sS'16063'
p190
g43
sS'11281'
p191
g16
sS'11280'
p192
g16
sS'11283'
p193
g16
sS'11282'
p194
g16
sS'11285'
p195
g16
sS'11284'
p196
g16
sS'11287'
p197
g16
sS'11286'
p198
g16
sS'21473'
p199
g13
sS'11018'
p200
g16
sS'28257'
p201
g54
sS'11757'
p202
g16
sS'11756'
p203
g16
sS'11755'
p204
g16
sS'11754'
p205
g16
sS'11753'
p206
g16
sS'11752'
p207
g16
sS'11751'
p208
g16
sS'11750'
p209
g16
sS'11759'
p210
g16
sS'11758'
p211
g16
sS'16392'
p212
g43
sS'16390'
p213
g43
sS'16396'
p214
g43
sS'16397'
p215
g43
sS'16394'
p216
g43
sS'16398'
p217
g43
sS'16399'
p218
g43
sS'28258'
p219
g54
sS'21475'
p220
g13
sS'28259'
p221
g54
sS'11010'
p222
g16
sS'11011'
p223
g16
sS'14163'
p224
g106
sS'11012'
p225
g16
sS'11990'
p226
g16
sS'13285'
p227
g116
sS'13284'
p228
g116
sS'14161'
p229
g106
sS'21474'
p230
g13
sS'11992'
p231
g16
sS'11995'
p232
g16
sS'22997'
p233
g140
sS'14166'
p234
g106
sS'21282'
p235
g13
sS'21283'
p236
g13
sS'21280'
p237
g13
sS'21281'
p238
g13
sS'21286'
p239
g13
sS'21287'
p240
g13
sS'05039'
p241
g84
sS'05038'
p242
g84
sS'05037'
p243
g84
sS'05036'
p244
g84
sS'05035'
p245
g84
sS'05034'
p246
g84
sS'05033'
p247
g84
sS'05032'
p248
g84
sS'05031'
p249
g84
sS'05030'
p250
g84
sS'04618'
p251
S'Fats and Oils'
p252
sS'09228'
p253
S'Fruits and Fruit Juices'
p254
sS'09229'
p255
g254
sS'09226'
p256
g254
sS'04611'
p257
g252
sS'04612'
p258
g252
sS'04613'
p259
g252
sS'04614'
p260
g252
sS'04615'
p261
g252
sS'09220'
p262
g254
sS'04617'
p263
g252
sS'22120'
p264
g43
sS'32013'
p265
g140
sS'32012'
p266
g140
sS'32011'
p267
g140
sS'42158'
p268
g252
sS'32010'
p269
g140
sS'12220'
p270
g63
sS'42151'
p271
g252
sS'32017'
p272
g140
sS'42153'
p273
g252
sS'42155'
p274
g94
sS'42157'
p275
g252
sS'32016'
p276
g140
sS'09048'
p277
g254
sS'22994'
p278
g140
sS'09042'
p279
g254
sS'09043'
p280
g254
sS'09040'
p281
g254
sS'09041'
p282
g254
sS'09046'
p283
g254
sS'09044'
p284
g254
sS'32019'
p285
g140
sS'05693'
p286
g84
sS'05692'
p287
g84
sS'05691'
p288
g84
sS'05690'
p289
g84
sS'05697'
p290
g84
sS'05696'
p291
g84
sS'05695'
p292
g84
sS'05694'
p293
g84
sS'05699'
p294
g84
sS'05698'
p295
g84
sS'18938'
p296
g54
sS'18939'
p297
g54
sS'21428'
p298
g13
sS'21429'
p299
g13
sS'11848'
p300
g16
sS'03690'
p301
g152
sS'03693'
p302
g152
sS'03694'
p303
g152
sS'03696'
p304
g152
sS'18533'
p305
g54
sS'18535'
p306
g54
sS'01278'
p307
g94
sS'19036'
p308
g32
sS'01271'
p309
g94
sS'01270'
p310
g94
sS'18537'
p311
g54
sS'01275'
p312
g94
sS'22990'
p313
g140
sS'01276'
p314
g94
sS'08314'
p315
g118
sS'08316'
p316
g118
sS'12011'
p317
g63
sS'08319'
p318
g118
sS'08318'
p319
g118
sS'23659'
p320
g116
sS'18313'
p321
g54
sS'18314'
p322
g54
sS'11119'
p323
g16
sS'11118'
p324
g16
sS'14341'
p325
g106
sS'28359'
p326
g54
sS'28358'
p327
g54
sS'28357'
p328
g54
sS'11110'
p329
g16
sS'11113'
p330
g16
sS'11112'
p331
g16
sS'11115'
p332
g16
sS'11114'
p333
g16
sS'11117'
p334
g16
sS'14476'
p335
g106
sS'18319'
p336
g54
sS'13841'
p337
g116
sS'13840'
p338
g116
sS'13843'
p339
g116
sS'13842'
p340
g116
sS'13845'
p341
g116
sS'13844'
p342
g116
sS'13847'
p343
g116
sS'13846'
p344
g116
sS'13849'
p345
g116
sS'13848'
p346
g116
sS'19035'
p347
g32
sS'23657'
p348
g116
sS'16389'
p349
g43
sS'19033'
p350
g32
sS'23655'
p351
g116
sS'35211'
p352
g2
sS'11568'
p353
g16
sS'11569'
p354
g16
sS'23264'
p355
g116
sS'23265'
p356
g116
sS'23262'
p357
g116
sS'23263'
p358
g116
sS'23260'
p359
g116
sS'23261'
p360
g116
sS'11563'
p361
g16
sS'11564'
p362
g16
sS'11565'
p363
g16
sS'11566'
p364
g16
sS'11567'
p365
g16
sS'23654'
p366
g116
sS'22247'
p367
g140
sS'25048'
p368
g32
sS'25040'
p369
g32
sS'25041'
p370
g32
sS'25043'
p371
g32
sS'25045'
p372
g32
sS'25046'
p373
g32
sS'22999'
p374
g140
sS'22998'
p375
g140
sS'23651'
p376
g116
sS'16239'
p377
g43
sS'16238'
p378
g43
sS'16231'
p379
g43
sS'16230'
p380
g43
sS'19913'
p381
g11
sS'19912'
p382
g11
sS'16235'
p383
g43
sS'19914'
p384
g11
sS'16237'
p385
g43
sS'16236'
p386
g43
sS'06312'
p387
g23
sS'06311'
p388
g23
sS'12038'
p389
g63
sS'06317'
p390
g23
sS'06316'
p391
g23
sS'06315'
p392
g23
sS'06314'
p393
g23
sS'12033'
p394
g63
sS'12032'
p395
g63
sS'06319'
p396
g23
sS'06318'
p397
g23
sS'12037'
p398
g63
sS'12036'
p399
g63
sS'12034'
p400
g63
sS'23345'
p401
g116
sS'19094'
p402
g11
sS'23344'
p403
g116
sS'35064'
p404
g2
sS'23347'
p405
g116
sS'90480'
p406
g11
sS'43144'
p407
g16
sS'23346'
p408
g116
sS'43143'
p409
g16
sS'43142'
p410
g16
sS'23341'
p411
g116
sS'23340'
p412
g116
sS'05200'
p413
g84
sS'19095'
p414
g11
sS'02041'
p415
S'Spices and Herbs'
p416
sS'23342'
p417
g116
sS'01042'
p418
g94
sS'01043'
p419
g94
sS'01040'
p420
g94
sS'01041'
p421
g94
sS'01046'
p422
g94
sS'01047'
p423
g94
sS'01044'
p424
g94
sS'01045'
p425
g94
sS'01048'
p426
g94
sS'01049'
p427
g94
sS'19096'
p428
g11
sS'21291'
p429
g13
sS'21290'
p430
g13
sS'23349'
p431
g116
sS'21293'
p432
g13
sS'23348'
p433
g116
sS'21292'
p434
g13
sS'11481'
p435
g16
sS'21295'
p436
g13
sS'11480'
p437
g16
sS'19097'
p438
g11
sS'21294'
p439
g13
sS'14640'
p440
g106
sS'14641'
p441
g106
sS'14646'
p442
g106
sS'14647'
p443
g106
sS'14644'
p444
g106
sS'14645'
p445
g106
sS'18544'
p446
g54
sS'14648'
p447
g106
sS'14649'
p448
g106
sS'18541'
p449
g54
sS'18540'
p450
g54
sS'21298'
p451
g13
sS'19090'
p452
g11
sS'13070'
p453
g116
sS'09064'
p454
g254
sS'19091'
p455
g11
sS'18092'
p456
g54
sS'18090'
p457
g54
sS'18097'
p458
g54
sS'18096'
p459
g54
sS'18095'
p460
g54
sS'48052'
p461
S'Cereal Grains and Pasta'
p462
sS'19092'
p463
g11
sS'10185'
p464
g170
sS'10184'
p465
g170
sS'10187'
p466
g170
sS'10186'
p467
g170
sS'10181'
p468
g170
sS'10180'
p469
g170
sS'10183'
p470
g170
sS'10182'
p471
g170
sS'10189'
p472
g170
sS'10188'
p473
g170
sS'08078'
p474
g118
sS'19093'
p475
g11
sS'08071'
p476
g118
sS'08073'
p477
g118
sS'08074'
p478
g118
sS'08077'
p479
g118
sS'23079'
p480
g116
sS'23078'
p481
g116
sS'23073'
p482
g116
sS'23072'
p483
g116
sS'23071'
p484
g116
sS'23070'
p485
g116
sS'23077'
p486
g116
sS'23076'
p487
g116
sS'23075'
p488
g116
sS'23074'
p489
g116
sS'15119'
p490
S'Finfish and Shellfish Products'
p491
sS'15118'
p492
g491
sS'15115'
p493
g491
sS'15114'
p494
g491
sS'15117'
p495
g491
sS'09232'
p496
g254
sS'15111'
p497
g491
sS'15110'
p498
g491
sS'15113'
p499
g491
sS'15112'
p500
g491
sS'05228'
p501
g84
sS'12588'
p502
g63
sS'12586'
p503
g63
sS'12585'
p504
g63
sS'01029'
p505
g94
sS'21411'
p506
g13
sS'06124'
p507
g23
sS'06125'
p508
g23
sS'06126'
p509
g23
sS'06127'
p510
g23
sS'06120'
p511
g23
sS'06121'
p512
g23
sS'06122'
p513
g23
sS'06123'
p514
g23
sS'06128'
p515
g23
sS'19256'
p516
g11
sS'13985'
p517
g116
sS'13980'
p518
g116
sS'13981'
p519
g116
sS'13982'
p520
g116
sS'13983'
p521
g116
sS'23381'
p522
g116
sS'23380'
p523
g116
sS'23383'
p524
g116
sS'23382'
p525
g116
sS'23385'
p526
g116
sS'23384'
p527
g116
sS'23387'
p528
g116
sS'23386'
p529
g116
sS'23389'
p530
g116
sS'23388'
p531
g116
sS'21416'
p532
g13
sS'43449'
p533
g43
sS'43441'
p534
g54
sS'43331'
p535
g252
sS'16002'
p536
g43
sS'16003'
p537
g43
sS'16001'
p538
g43
sS'16006'
p539
g43
sS'16007'
p540
g43
sS'16004'
p541
g43
sS'16005'
p542
g43
sS'16008'
p543
g43
sS'16009'
p544
g43
sS'17359'
p545
g70
sS'17358'
p546
g70
sS'17355'
p547
g70
sS'17354'
p548
g70
sS'17357'
p549
g70
sS'17356'
p550
g70
sS'17351'
p551
g70
sS'17350'
p552
g70
sS'17353'
p553
g70
sS'17352'
p554
g70
sS'13519'
p555
g116
sS'32004'
p556
g140
sS'18345'
p557
g54
sS'32005'
p558
g140
sS'03154'
p559
g152
sS'32006'
p560
g140
sS'42316'
p561
g152
sS'32000'
p562
g140
sS'42171'
p563
g252
sS'42179'
p564
S'Sausages and Luncheon Meats'
p565
sS'42178'
p566
g252
sS'12204'
p567
g63
sS'12205'
p568
g63
sS'12206'
p569
g63
sS'12200'
p570
g63
sS'12201'
p571
g63
sS'12202'
p572
g63
sS'12203'
p573
g63
sS'32001'
p574
g140
sS'18952'
p575
g54
sS'18953'
p576
g54
sS'18950'
p577
g54
sS'18951'
p578
g54
sS'18956'
p579
g54
sS'18957'
p580
g54
sS'18954'
p581
g54
sS'18955'
p582
g54
sS'21404'
p583
g13
sS'21405'
p584
g13
sS'18958'
p585
g54
sS'18959'
p586
g54
sS'21400'
p587
g13
sS'21401'
p588
g13
sS'21402'
p589
g13
sS'21403'
p590
g13
sS'09205'
p591
g254
sS'09206'
p592
g254
sS'04367'
p593
g252
sS'09200'
p594
g254
sS'09201'
p595
g254
sS'09202'
p596
g254
sS'09203'
p597
g254
sS'09209'
p598
g254
sS'32003'
p599
g140
sS'21436'
p600
g13
sS'14189'
p601
g106
sS'01256'
p602
g94
sS'01255'
p603
g94
sS'01254'
p604
g94
sS'01253'
p605
g94
sS'01252'
p606
g94
sS'01251'
p607
g94
sS'01250'
p608
g94
sS'14181'
p609
g106
sS'14180'
p610
g106
sS'14183'
p611
g106
sS'14182'
p612
g106
sS'14185'
p613
g106
sS'01259'
p614
g94
sS'01258'
p615
g94
sS'09060'
p616
g254
sS'09061'
p617
g254
sS'09062'
p618
g254
sS'09063'
p619
g254
sS'08546'
p620
g32
sS'09065'
p621
g254
sS'09066'
p622
g254
sS'09067'
p623
g254
sS'09068'
p624
g254
sS'19819'
p625
g32
sS'11137'
p626
g16
sS'11136'
p627
g16
sS'11135'
p628
g16
sS'11134'
p629
g16
sS'18372'
p630
g54
sS'18373'
p631
g54
sS'11131'
p632
g16
sS'11130'
p633
g16
sS'18378'
p634
g54
sS'11138'
p635
g16
sS'19817'
p636
g32
sS'19810'
p637
g32
sS'19812'
p638
g32
sS'19441'
p639
g32
sS'31008'
p640
g16
sS'13869'
p641
g116
sS'13868'
p642
g116
sS'13867'
p643
g116
sS'13866'
p644
g116
sS'13865'
p645
g116
sS'13864'
p646
g116
sS'13863'
p647
g116
sS'13862'
p648
g116
sS'13861'
p649
g116
sS'13860'
p650
g116
sS'17447'
p651
g70
sS'43241'
p652
g118
sS'17446'
p653
g70
sS'23248'
p654
g116
sS'23249'
p655
g116
sS'23244'
p656
g116
sS'23245'
p657
g116
sS'23246'
p658
g116
sS'23247'
p659
g116
sS'23240'
p660
g116
sS'23241'
p661
g116
sS'23242'
p662
g116
sS'23243'
p663
g116
sS'27008'
p664
g23
sS'27009'
p665
g23
sS'27007'
p666
g23
sS'27002'
p667
g23
sS'27000'
p668
g23
sS'27001'
p669
g23
sS'19314'
p670
g11
sS'16216'
p671
g43
sS'16215'
p672
g43
sS'16214'
p673
g43
sS'16213'
p674
g43
sS'16212'
p675
g43
sS'16211'
p676
g43
sS'16210'
p677
g43
sS'19249'
p678
g11
sS'19248'
p679
g11
sS'16219'
p680
g43
sS'19313'
p681
g11
sS'12059'
p682
g63
sS'12058'
p683
g63
sS'06379'
p684
g23
sS'06373'
p685
g23
sS'06375'
p686
g23
sS'06374'
p687
g23
sS'06377'
p688
g23
sS'01068'
p689
g94
sS'01069'
p690
g94
sS'17164'
p691
g70
sS'17165'
p692
g70
sS'17162'
p693
g70
sS'17163'
p694
g70
sS'17160'
p695
g70
sS'17161'
p696
g70
sS'01060'
p697
g94
sS'01061'
p698
g94
sS'21266'
p699
g13
sS'17168'
p700
g70
sS'01067'
p701
g94
sS'21267'
p702
g13
sS'21260'
p703
g13
sS'21261'
p704
g13
sS'21262'
p705
g13
sS'21263'
p706
g13
sS'08057'
p707
g118
sS'08506'
p708
g118
sS'11836'
p709
g16
sS'11837'
p710
g16
sS'11834'
p711
g16
sS'11835'
p712
g16
sS'11832'
p713
g16
sS'11833'
p714
g16
sS'11830'
p715
g16
sS'11831'
p716
g16
sS'13098'
p717
g116
sS'13096'
p718
g116
sS'13097'
p719
g116
sS'13095'
p720
g116
sS'44203'
p721
g106
sS'23403'
p722
g116
sS'06393'
p723
g23
sS'04133'
p724
g252
sS'04135'
p725
g252
sS'06391'
p726
g23
sS'23268'
p727
g116
sS'23507'
p728
g116
sS'23506'
p729
g116
sS'23503'
p730
g116
sS'23050'
p731
g116
sS'42205'
p732
g94
sS'15139'
p733
g491
sS'15138'
p734
g491
sS'23501'
p735
g116
sS'42204'
p736
g32
sS'15133'
p737
g491
sS'15132'
p738
g491
sS'15131'
p739
g491
sS'15130'
p740
g491
sS'15137'
p741
g491
sS'15136'
p742
g491
sS'15135'
p743
g491
sS'15134'
p744
g491
sS'42200'
p745
g43
sS'23343'
p746
g116
sS'19370'
p747
g11
sS'28091'
p748
g54
sS'28092'
p749
g54
sS'28093'
p750
g54
sS'28094'
p751
g54
sS'28095'
p752
g54
sS'28096'
p753
g54
sS'04541'
p754
g252
sS'28098'
p755
g54
sS'04542'
p756
g252
sS'06142'
p757
g23
sS'06143'
p758
g23
sS'04543'
p759
g252
sS'06146'
p760
g23
sS'06147'
p761
g23
sS'06145'
p762
g23
sS'09312'
p763
g254
sS'06149'
p764
g23
sS'04545'
p765
g252
sS'04546'
p766
g252
sS'14408'
p767
g106
sS'28367'
p768
g54
sS'14405'
p769
g106
sS'28368'
p770
g54
sS'14407'
p771
g106
sS'13650'
p772
g116
sS'43311'
p773
g16
sS'43312'
p774
g16
sS'11249'
p775
g16
sS'11248'
p776
g16
sS'11245'
p777
g16
sS'11244'
p778
g16
sS'11247'
p779
g16
sS'11246'
p780
g16
sS'11241'
p781
g16
sS'11240'
p782
g16
sS'11243'
p783
g16
sS'11242'
p784
g16
sS'16028'
p785
g43
sS'16029'
p786
g43
sS'19038'
p787
g32
sS'19039'
p788
g32
sS'16020'
p789
g43
sS'16021'
p790
g43
sS'16022'
p791
g43
sS'16023'
p792
g43
sS'16024'
p793
g43
sS'16025'
p794
g43
sS'16026'
p795
g43
sS'16027'
p796
g43
sS'17379'
p797
g70
sS'17378'
p798
g70
sS'17373'
p799
g70
sS'17372'
p800
g70
sS'17371'
p801
g70
sS'17370'
p802
g70
sS'17377'
p803
g70
sS'17376'
p804
g70
sS'17375'
p805
g70
sS'17374'
p806
g70
sS'11799'
p807
g16
sS'11798'
p808
g16
sS'11793'
p809
g16
sS'11792'
p810
g16
sS'11791'
p811
g16
sS'11790'
p812
g16
sS'11797'
p813
g16
sS'11796'
p814
g16
sS'11795'
p815
g16
sS'11794'
p816
g16
sS'18400'
p817
g54
sS'18401'
p818
g54
sS'18402'
p819
g54
sS'18403'
p820
g54
sS'42196'
p821
g11
sS'42190'
p822
g565
sS'42193'
p823
g252
sS'42192'
p824
g252
sS'17081'
p825
g70
sS'17080'
p826
g70
sS'17083'
p827
g70
sS'17082'
p828
g70
sS'17085'
p829
g70
sS'17084'
p830
g70
sS'17087'
p831
g70
sS'17086'
p832
g70
sS'17089'
p833
g70
sS'17088'
p834
g70
sS'18407'
p835
g54
sS'18996'
p836
g54
sS'18997'
p837
g54
sS'18994'
p838
g54
sS'18995'
p839
g54
sS'18992'
p840
g54
sS'18978'
p841
g54
sS'10923'
p842
g170
sS'21468'
p843
g13
sS'21469'
p844
g13
sS'22993'
p845
g140
sS'18990'
p846
g54
sS'22991'
p847
g140
sS'10922'
p848
g170
sS'18970'
p849
g54
sS'18971'
p850
g54
sS'18972'
p851
g54
sS'18973'
p852
g54
sS'18974'
p853
g54
sS'18975'
p854
g54
sS'18976'
p855
g54
sS'18977'
p856
g54
sS'09262'
p857
g254
sS'09263'
p858
g254
sS'09260'
p859
g254
sS'09261'
p860
g254
sS'09266'
p861
g254
sS'09267'
p862
g254
sS'09264'
p863
g254
sS'09265'
p864
g254
sS'09268'
p865
g254
sS'09269'
p866
g254
sS'08683'
p867
g118
sS'08682'
p868
g118
sS'08681'
p869
g118
sS'08680'
p870
g118
sS'08687'
p871
g118
sS'08686'
p872
g118
sS'08685'
p873
g118
sS'08684'
p874
g118
sS'08689'
p875
g118
sS'08688'
p876
g118
sS'03303'
p877
g152
sS'03302'
p878
g152
sS'03301'
p879
g152
sS'08132'
p880
g118
sS'18998'
p881
g54
sS'18999'
p882
g54
sS'10929'
p883
g170
sS'10928'
p884
g170
sS'09088'
p885
g254
sS'09089'
p886
g254
sS'09086'
p887
g254
sS'09087'
p888
g254
sS'09084'
p889
g254
sS'09085'
p890
g254
sS'09082'
p891
g254
sS'09083'
p892
g254
sS'09081'
p893
g254
sS'17452'
p894
g70
sS'17453'
p895
g70
sS'08351'
p896
g118
sS'08353'
p897
g118
sS'08352'
p898
g118
sS'08355'
p899
g118
sS'08354'
p900
g118
sS'14303'
p901
g106
sS'21309'
p902
g13
sS'17451'
p903
g70
sS'18358'
p904
g54
sS'14305'
p905
g106
sS'18354'
p906
g54
sS'17456'
p907
g70
sS'14309'
p908
g106
sS'18357'
p909
g54
sS'18350'
p910
g54
sS'18351'
p911
g54
sS'18352'
p912
g54
sS'17457'
p913
g70
sS'17454'
p914
g70
sS'17455'
p915
g70
sS'21284'
p916
g13
sS'31029'
p917
g16
sS'31028'
p918
g16
sS'31023'
p919
g16
sS'31022'
p920
g16
sS'31021'
p921
g16
sS'31020'
p922
g16
sS'31027'
p923
g16
sS'31026'
p924
g16
sS'31025'
p925
g16
sS'31024'
p926
g16
sS'20075'
p927
g462
sS'28285'
p928
g54
sS'28284'
p929
g54
sS'28287'
p930
g54
sS'28286'
p931
g54
sS'28281'
p932
g54
sS'28280'
p933
g54
sS'28283'
p934
g54
sS'28282'
p935
g54
sS'28289'
p936
g54
sS'28288'
p937
g54
sS'23228'
p938
g116
sS'23229'
p939
g116
sS'27021'
p940
g23
sS'27022'
p941
g23
sS'27023'
p942
g23
sS'23222'
p943
g116
sS'23223'
p944
g116
sS'23220'
p945
g116
sS'23221'
p946
g116
sS'23226'
p947
g116
sS'23227'
p948
g116
sS'23224'
p949
g116
sS'23225'
p950
g116
sS'36633'
p951
S'Restaurant Foods'
p952
sS'36632'
p953
g952
sS'21140'
p954
g13
sS'35074'
p955
g2
sS'35075'
p956
g2
sS'35070'
p957
g2
sS'35071'
p958
g2
sS'35072'
p959
g2
sS'35073'
p960
g2
sS'35078'
p961
g2
sS'35079'
p962
g2
sS'19263'
p963
g11
sS'19260'
p964
g11
sS'23273'
p965
g116
sS'19265'
p966
g11
sS'19269'
p967
g32
sS'19268'
p968
g11
sS'06357'
p969
g23
sS'06355'
p970
g23
sS'06354'
p971
g23
sS'06353'
p972
g23
sS'06351'
p973
g23
sS'12078'
p974
g63
sS'12077'
p975
g63
sS'06429'
p976
g23
sS'06428'
p977
g23
sS'06359'
p978
g23
sS'06358'
p979
g23
sS'18198'
p980
g54
sS'18199'
p981
g54
sS'28397'
p982
g54
sS'11476'
p983
g16
sS'11477'
p984
g16
sS'11474'
p985
g16
sS'11475'
p986
g16
sS'11473'
p987
g16
sS'11471'
p988
g16
sS'43100'
p989
g32
sS'11478'
p990
g16
sS'11479'
p991
g16
sS'17148'
p992
g70
sS'17149'
p993
g70
sS'17418'
p994
g70
sS'17419'
p995
g70
sS'17144'
p996
g70
sS'17145'
p997
g70
sS'17146'
p998
g70
sS'17147'
p999
g70
sS'17140'
p1000
g70
sS'17141'
p1001
g70
sS'17142'
p1002
g70
sS'17143'
p1003
g70
sS'20109'
p1004
g462
sS'20106'
p1005
g462
sS'20105'
p1006
g462
sS'22946'
p1007
g140
sS'22947'
p1008
g140
sS'04114'
p1009
g252
sS'21493'
p1010
g13
sS'21492'
p1011
g13
sS'21491'
p1012
g13
sS'21490'
p1013
g13
sS'21497'
p1014
g13
sS'21496'
p1015
g13
sS'11814'
p1016
g16
sS'11815'
p1017
g16
sS'11816'
p1018
g16
sS'11817'
p1019
g16
sS'11810'
p1020
g16
sS'11811'
p1021
g16
sS'11812'
p1022
g16
sS'11813'
p1023
g16
sS'11818'
p1024
g16
sS'11819'
p1025
g16
sS'15151'
p1026
g491
sS'15150'
p1027
g491
sS'15153'
p1028
g491
sS'15152'
p1029
g491
sS'15155'
p1030
g491
sS'15154'
p1031
g491
sS'15157'
p1032
g491
sS'15156'
p1033
g491
sS'15159'
p1034
g491
sS'15158'
p1035
g491
sS'28395'
p1036
g54
sS'23136'
p1037
g116
sS'23039'
p1038
g116
sS'01216'
p1039
g94
sS'23037'
p1040
g116
sS'23036'
p1041
g116
sS'23035'
p1042
g116
sS'23034'
p1043
g116
sS'23033'
p1044
g116
sS'23032'
p1045
g116
sS'23031'
p1046
g116
sS'23030'
p1047
g116
sS'06168'
p1048
g23
sS'06169'
p1049
g23
sS'23135'
p1050
g116
sS'23132'
p1051
g116
sS'06164'
p1052
g23
sS'06165'
p1053
g23
sS'06166'
p1054
g23
sS'06167'
p1055
g23
sS'23130'
p1056
g116
sS'23131'
p1057
g116
sS'12169'
p1058
g63
sS'18497'
p1059
g54
sS'43373'
p1060
g152
sS'18494'
p1061
g54
sS'43378'
p1062
g170
sS'43379'
p1063
g94
sS'19014'
p1064
g11
sS'16064'
p1065
g43
sS'11269'
p1066
g16
sS'11268'
p1067
g16
sS'19010'
p1068
g32
sS'16065'
p1069
g43
sS'11263'
p1070
g16
sS'11261'
p1071
g16
sS'11260'
p1072
g16
sS'11267'
p1073
g16
sS'11266'
p1074
g16
sS'11265'
p1075
g16
sS'11264'
p1076
g16
sS'19701'
p1077
g11
sS'19702'
p1078
g11
sS'19703'
p1079
g11
sS'16068'
p1080
g43
sS'16069'
p1081
g43
sS'14541'
p1082
g106
sS'28266'
p1083
g54
sS'14543'
p1084
g106
sS'43597'
p1085
g94
sS'14542'
p1086
g106
sS'28263'
p1087
g54
sS'43598'
p1088
g252
sS'28262'
p1089
g54
sS'17425'
p1090
g70
sS'17311'
p1091
g70
sS'17310'
p1092
g70
sS'17313'
p1093
g70
sS'17312'
p1094
g70
sS'17315'
p1095
g70
sS'17314'
p1096
g70
sS'17317'
p1097
g70
sS'17316'
p1098
g70
sS'17319'
p1099
g70
sS'17318'
p1100
g70
sS'16402'
p1101
g43
sS'16403'
p1102
g43
sS'16409'
p1103
g43
sS'32008'
p1104
g140
sS'32009'
p1105
g140
sS'05183'
p1106
g84
sS'05182'
p1107
g84
sS'05181'
p1108
g84
sS'05180'
p1109
g84
sS'05187'
p1110
g84
sS'05186'
p1111
g84
sS'05185'
p1112
g84
sS'05184'
p1113
g84
sS'05188'
p1114
g84
sS'05631'
p1115
g84
sS'05630'
p1116
g84
sS'21338'
p1117
g13
sS'05632'
p1118
g84
sS'32007'
p1119
g140
sS'22979'
p1120
g140
sS'22978'
p1121
g140
sS'22975'
p1122
g140
sS'22974'
p1123
g140
sS'22977'
p1124
g140
sS'22976'
p1125
g140
sS'22971'
p1126
g140
sS'22970'
p1127
g140
sS'22973'
p1128
g140
sS'22972'
p1129
g140
sS'09248'
p1130
g254
sS'03926'
p1131
g152
sS'03925'
p1132
g152
sS'09240'
p1133
g254
sS'09241'
p1134
g254
sS'09242'
p1135
g254
sS'09243'
p1136
g254
sS'09244'
p1137
g254
sS'09245'
p1138
g254
sS'09530'
p1139
g254
sS'09531'
p1140
g254
sS'44018'
p1141
g11
sS'08113'
p1142
g118
sS'08116'
p1143
g118
sS'14149'
p1144
g106
sS'14148'
p1145
g106
sS'14145'
p1146
g106
sS'14144'
p1147
g106
sS'14147'
p1148
g106
sS'14146'
p1149
g106
sS'14140'
p1150
g106
sS'14143'
p1151
g106
sS'14142'
p1152
g106
sS'01298'
p1153
g94
sS'12008'
p1154
g63
sS'01293'
p1155
g94
sS'01292'
p1156
g94
sS'01291'
p1157
g94
sS'01290'
p1158
g94
sS'01297'
p1159
g94
sS'01295'
p1160
g94
sS'01294'
p1161
g94
sS'14350'
p1162
g106
sS'14352'
p1163
g106
sS'14368'
p1164
g106
sS'18338'
p1165
g54
sS'14353'
p1166
g106
sS'18332'
p1167
g54
sS'18333'
p1168
g54
sS'12001'
p1169
g63
sS'18336'
p1170
g54
sS'18337'
p1171
g54
sS'14367'
p1172
g106
sS'14366'
p1173
g106
sS'20310'
p1174
g462
sS'04588'
p1175
g252
sS'04589'
p1176
g252
sS'20315'
p1177
g462
sS'20314'
p1178
g462
sS'04584'
p1179
g252
sS'04585'
p1180
g252
sS'04586'
p1181
g252
sS'04587'
p1182
g252
sS'04581'
p1183
g252
sS'04582'
p1184
g252
sS'04583'
p1185
g252
sS'17305'
p1186
g70
sS'08376'
p1187
g118
sS'08370'
p1188
g118
sS'23200'
p1189
g116
sS'23201'
p1190
g116
sS'23202'
p1191
g116
sS'27042'
p1192
g23
sS'27043'
p1193
g23
sS'27046'
p1194
g23
sS'27047'
p1195
g23
sS'27044'
p1196
g23
sS'27045'
p1197
g23
sS'19720'
p1198
g11
sS'27048'
p1199
g23
sS'27049'
p1200
g23
sS'35012'
p1201
g2
sS'35013'
p1202
g2
sS'35010'
p1203
g2
sS'35011'
p1204
g2
sS'35016'
p1205
g2
sS'35017'
p1206
g2
sS'35014'
p1207
g2
sS'35015'
p1208
g2
sS'19209'
p1209
g11
sS'19208'
p1210
g11
sS'19201'
p1211
g11
sS'19203'
p1212
g11
sS'19202'
p1213
g11
sS'19205'
p1214
g11
sS'19204'
p1215
g11
sS'19207'
p1216
g11
sS'19206'
p1217
g11
sS'06403'
p1218
g23
sS'06402'
p1219
g23
sS'06401'
p1220
g23
sS'06400'
p1221
g23
sS'06406'
p1222
g23
sS'06405'
p1223
g23
sS'06404'
p1224
g23
sS'06409'
p1225
g23
sS'06408'
p1226
g23
sS'22401'
p1227
g140
sS'22402'
p1228
g140
sS'21603'
p1229
g13
sS'43299'
p1230
g43
sS'43297'
p1231
g170
sS'23356'
p1232
g116
sS'43125'
p1233
g43
sS'19920'
p1234
g11
sS'11499'
p1235
g16
sS'23354'
p1236
g116
sS'43128'
p1237
g43
sS'23355'
p1238
g116
sS'11458'
p1239
g16
sS'11459'
p1240
g16
sS'11454'
p1241
g16
sS'23352'
p1242
g116
sS'11457'
p1243
g16
sS'11450'
p1244
g16
sS'11451'
p1245
g16
sS'11452'
p1246
g16
sS'11453'
p1247
g16
sS'17434'
p1248
g70
sS'17435'
p1249
g70
sS'17436'
p1250
g70
sS'17437'
p1251
g70
sS'17430'
p1252
g70
sS'17431'
p1253
g70
sS'17432'
p1254
g70
sS'17433'
p1255
g70
sS'17438'
p1256
g70
sS'17439'
p1257
g70
sS'13324'
p1258
g116
sS'13325'
p1259
g116
sS'17128'
p1260
g70
sS'17129'
p1261
g70
sS'13320'
p1262
g116
sS'13321'
p1263
g116
sS'13322'
p1264
g116
sS'13323'
p1265
g116
sS'17122'
p1266
g70
sS'17123'
p1267
g70
sS'17120'
p1268
g70
sS'17121'
p1269
g70
sS'17126'
p1270
g70
sS'17127'
p1271
g70
sS'17124'
p1272
g70
sS'17125'
p1273
g70
sS'19922'
p1274
g11
sS'23358'
p1275
g116
sS'23359'
p1276
g116
sS'19923'
p1277
g11
sS'20124'
p1278
g462
sS'20125'
p1279
g462
sS'09185'
p1280
g254
sS'09184'
p1281
g254
sS'09183'
p1282
g254
sS'20121'
p1283
g462
sS'09181'
p1284
g254
sS'21285'
p1285
g13
sS'20129'
p1286
g462
sS'19924'
p1287
g11
sS'21288'
p1288
g13
sS'21289'
p1289
g13
sS'05740'
p1290
g84
sS'05743'
p1291
g84
sS'08588'
p1292
g118
sS'08589'
p1293
g118
sS'20089'
p1294
g462
sS'08580'
p1295
g118
sS'08582'
p1296
g118
sS'08583'
p1297
g118
sS'08584'
p1298
g118
sS'08586'
p1299
g118
sS'08587'
p1300
g118
sS'11872'
p1301
g16
sS'04610'
p1302
g252
sS'11870'
p1303
g16
sS'11871'
p1304
g16
sS'11876'
p1305
g16
sS'11877'
p1306
g16
sS'11874'
p1307
g16
sS'11875'
p1308
g16
sS'18527'
p1309
g54
sS'11878'
p1310
g16
sS'11879'
p1311
g16
sS'18522'
p1312
g54
sS'20084'
p1313
g462
sS'15179'
p1314
g491
sS'15178'
p1315
g491
sS'15177'
p1316
g491
sS'15176'
p1317
g491
sS'15175'
p1318
g491
sS'15174'
p1319
g491
sS'15173'
p1320
g491
sS'15172'
p1321
g491
sS'15171'
p1322
g491
sS'09223'
p1323
g254
sS'20081'
p1324
g462
sS'09221'
p1325
g254
sS'21427'
p1326
g13
sS'01174'
p1327
g94
sS'01175'
p1328
g94
sS'01172'
p1329
g94
sS'01173'
p1330
g94
sS'01171'
p1331
g94
sS'01178'
p1332
g94
sS'01179'
p1333
g94
sS'03118'
p1334
g152
sS'03119'
p1335
g152
sS'03116'
p1336
g152
sS'03117'
p1337
g152
sS'03114'
p1338
g152
sS'03115'
p1339
g152
sS'03112'
p1340
g152
sS'28054'
p1341
g54
sS'28055'
p1342
g54
sS'28056'
p1343
g54
sS'28057'
p1344
g54
sS'28050'
p1345
g54
sS'28051'
p1346
g54
sS'28052'
p1347
g54
sS'28053'
p1348
g54
sS'28058'
p1349
g54
sS'28059'
p1350
g54
sS'13928'
p1351
g116
sS'13929'
p1352
g116
sS'13926'
p1353
g116
sS'13927'
p1354
g116
sS'13924'
p1355
g116
sS'13925'
p1356
g116
sS'13922'
p1357
g116
sS'13923'
p1358
g116
sS'13920'
p1359
g116
sS'13921'
p1360
g116
sS'35197'
p1361
g2
sS'35196'
p1362
g2
sS'35195'
p1363
g2
sS'11201'
p1364
g16
sS'11200'
p1365
g16
sS'11203'
p1366
g16
sS'11202'
p1367
g16
sS'11205'
p1368
g16
sS'11204'
p1369
g16
sS'11207'
p1370
g16
sS'11206'
p1371
g16
sS'11209'
p1372
g16
sS'11208'
p1373
g16
sS'43352'
p1374
g94
sS'43355'
p1375
g252
sS'35192'
p1376
g2
sS'19070'
p1377
g11
sS'19071'
p1378
g11
sS'19076'
p1379
g11
sS'19077'
p1380
g11
sS'19074'
p1381
g11
sS'19075'
p1382
g11
sS'19078'
p1383
g11
sS'19079'
p1384
g11
sS'23415'
p1385
g116
sS'23414'
p1386
g116
sS'23417'
p1387
g116
sS'23416'
p1388
g116
sS'23411'
p1389
g116
sS'23410'
p1390
g116
sS'23413'
p1391
g116
sS'23412'
p1392
g116
sS'23419'
p1393
g116
sS'23418'
p1394
g116
sS'08010'
p1395
g118
sS'21425'
p1396
g13
sS'23636'
p1397
g116
sS'19315'
p1398
g11
sS'10916'
p1399
g170
sS'10917'
p1400
g170
sS'10914'
p1401
g170
sS'10915'
p1402
g170
sS'10912'
p1403
g170
sS'10913'
p1404
g170
sS'10910'
p1405
g170
sS'17338'
p1406
g70
sS'17337'
p1407
g70
sS'17336'
p1408
g70
sS'17335'
p1409
g70
sS'17334'
p1410
g70
sS'17333'
p1411
g70
sS'17332'
p1412
g70
sS'17331'
p1413
g70
sS'17330'
p1414
g70
sS'19310'
p1415
g11
sS'16428'
p1416
g43
sS'16429'
p1417
g43
sS'16424'
p1418
g43
sS'16425'
p1419
g43
sS'16426'
p1420
g43
sS'16427'
p1421
g43
sS'16420'
p1422
g43
sS'16422'
p1423
g43
sS'09103'
p1424
g254
sS'21319'
p1425
g13
sS'28256'
p1426
g54
sS'21314'
p1427
g13
sS'21315'
p1428
g13
sS'21316'
p1429
g13
sS'21310'
p1430
g13
sS'21311'
p1431
g13
sS'21313'
p1432
g13
sS'09514'
p1433
g254
sS'09515'
p1434
g254
sS'09516'
p1435
g254
sS'09517'
p1436
g254
sS'09510'
p1437
g254
sS'09511'
p1438
g254
sS'09512'
p1439
g254
sS'09513'
p1440
g254
sS'22953'
p1441
g140
sS'22952'
p1442
g140
sS'22951'
p1443
g140
sS'22950'
p1444
g140
sS'09518'
p1445
g254
sS'09519'
p1446
g254
sS'22955'
p1447
g140
sS'22954'
p1448
g140
sS'03949'
p1449
g152
sS'03948'
p1450
g152
sS'09233'
p1451
g254
sS'03941'
p1452
g152
sS'03940'
p1453
g152
sS'03943'
p1454
g152
sS'03942'
p1455
g152
sS'03945'
p1456
g152
sS'03944'
p1457
g152
sS'03947'
p1458
g152
sS'03946'
p1459
g152
sS'18934'
p1460
g54
sS'18935'
p1461
g54
sS'18936'
p1462
g54
sS'11998'
p1463
g16
sS'14169'
p1464
g106
sS'14168'
p1465
g106
sS'11991'
p1466
g16
sS'14162'
p1467
g106
sS'11993'
p1468
g16
sS'14160'
p1469
g106
sS'14167'
p1470
g106
sS'11994'
p1471
g16
sS'14165'
p1472
g106
sS'11996'
p1473
g16
sS'18932'
p1474
g54
sS'18933'
p1475
g54
sS'11191'
p1476
g16
sS'11190'
p1477
g16
sS'18312'
p1478
g54
sS'11192'
p1479
g16
sS'11195'
p1480
g16
sS'11197'
p1481
g16
sS'11196'
p1482
g16
sS'11199'
p1483
g16
sS'11198'
p1484
g16
sS'08173'
p1485
g118
sS'08172'
p1486
g118
sS'08177'
p1487
g118
sS'04706'
p1488
g252
sS'04707'
p1489
g252
sS'04704'
p1490
g252
sS'04705'
p1491
g252
sS'04702'
p1492
g252
sS'04703'
p1493
g252
sS'04700'
p1494
g252
sS'04701'
p1495
g252
sS'04708'
p1496
g252
sS'04709'
p1497
g252
sS'08390'
p1498
g118
sS'08393'
p1499
g118
sS'27068'
p1500
g23
sS'27060'
p1501
g23
sS'27061'
p1502
g23
sS'27062'
p1503
g23
sS'27063'
p1504
g23
sS'27064'
p1505
g23
sS'27065'
p1506
g23
sS'27066'
p1507
g23
sS'27067'
p1508
g23
sS'11224'
p1509
g16
sS'35038'
p1510
g2
sS'35039'
p1511
g2
sS'35030'
p1512
g2
sS'35034'
p1513
g2
sS'19199'
p1514
g11
sS'19198'
p1515
g11
sS'19191'
p1516
g11
sS'19190'
p1517
g11
sS'19193'
p1518
g11
sS'19440'
p1519
g32
sS'19195'
p1520
g11
sS'19194'
p1521
g11
sS'19445'
p1522
g32
sS'19444'
p1523
g32
sS'06468'
p1524
g23
sS'06399'
p1525
g23
sS'06398'
p1526
g23
sS'06461'
p1527
g23
sS'06392'
p1528
g23
sS'06463'
p1529
g23
sS'06462'
p1530
g23
sS'06465'
p1531
g23
sS'06396'
p1532
g23
sS'06395'
p1533
g23
sS'06466'
p1534
g23
sS'19227'
p1535
g11
sS'19226'
p1536
g11
sS'11438'
p1537
g16
sS'11439'
p1538
g16
sS'19223'
p1539
g11
sS'19222'
p1540
g11
sS'19221'
p1541
g11
sS'19220'
p1542
g11
sS'11432'
p1543
g16
sS'11430'
p1544
g16
sS'11431'
p1545
g16
sS'11436'
p1546
g16
sS'11437'
p1547
g16
sS'11435'
p1548
g16
sS'17100'
p1549
g70
sS'17101'
p1550
g70
sS'17102'
p1551
g70
sS'17103'
p1552
g70
sS'17104'
p1553
g70
sS'17105'
p1554
g70
sS'17106'
p1555
g70
sS'17107'
p1556
g70
sS'17108'
p1557
g70
sS'17109'
p1558
g70
sS'17458'
p1559
g70
sS'17459'
p1560
g70
sS'13342'
p1561
g116
sS'13343'
p1562
g116
sS'13340'
p1563
g116
sS'13341'
p1564
g116
sS'13346'
p1565
g116
sS'13347'
p1566
g116
sS'13344'
p1567
g116
sS'13345'
p1568
g116
sS'13348'
p1569
g565
sS'13349'
p1570
g116
sS'21213'
p1571
g13
sS'21214'
p1572
g13
sS'20142'
p1573
g462
sS'20143'
p1574
g462
sS'20140'
p1575
g462
sS'20141'
p1576
g462
sS'09165'
p1577
g254
sS'09164'
p1578
g254
sS'09167'
p1579
g254
sS'09161'
p1580
g254
sS'09160'
p1581
g254
sS'09163'
p1582
g254
sS'12167'
p1583
g63
sS'12166'
p1584
g63
sS'12160'
p1585
g63
sS'12163'
p1586
g63
sS'05282'
p1587
g84
sS'05284'
p1588
g84
sS'05285'
p1589
g84
sS'05286'
p1590
g84
sS'22122'
p1591
g43
sS'10109'
p1592
g170
sS'10105'
p1593
g170
sS'10104'
p1594
g170
sS'10107'
p1595
g170
sS'10106'
p1596
g170
sS'10101'
p1597
g170
sS'10100'
p1598
g170
sS'10103'
p1599
g170
sS'10102'
p1600
g170
sS'12095'
p1601
g63
sS'22121'
p1602
g43
sS'05159'
p1603
g84
sS'22126'
p1604
g43
sS'11858'
p1605
g16
sS'11859'
p1606
g16
sS'23511'
p1607
g116
sS'11850'
p1608
g16
sS'11851'
p1609
g16
sS'11852'
p1610
g16
sS'11853'
p1611
g16
sS'11854'
p1612
g16
sS'11855'
p1613
g16
sS'11856'
p1614
g16
sS'11857'
p1615
g16
sS'23513'
p1616
g116
sS'23514'
p1617
g116
sS'23515'
p1618
g116
sS'23516'
p1619
g116
sS'23517'
p1620
g116
sS'12099'
p1621
g63
sS'12098'
p1622
g63
sS'01159'
p1623
g94
sS'01154'
p1624
g94
sS'01155'
p1625
g94
sS'01156'
p1626
g94
sS'01157'
p1627
g94
sS'01151'
p1628
g94
sS'01152'
p1629
g94
sS'01153'
p1630
g94
sS'03134'
p1631
g152
sS'03135'
p1632
g152
sS'03136'
p1633
g152
sS'03137'
p1634
g152
sS'03130'
p1635
g152
sS'03131'
p1636
g152
sS'03132'
p1637
g152
sS'03133'
p1638
g152
sS'03139'
p1639
g152
sS'05333'
p1640
g84
sS'14041'
p1641
g106
sS'28032'
p1642
g54
sS'28033'
p1643
g54
sS'28030'
p1644
g54
sS'28031'
p1645
g54
sS'28036'
p1646
g54
sS'28037'
p1647
g54
sS'28034'
p1648
g54
sS'28035'
p1649
g54
sS'28038'
p1650
g54
sS'28039'
p1651
g54
sS'19704'
p1652
g11
sS'13904'
p1653
g116
sS'13905'
p1654
g116
sS'13906'
p1655
g116
sS'13907'
p1656
g116
sS'13900'
p1657
g116
sS'13901'
p1658
g116
sS'13902'
p1659
g116
sS'13903'
p1660
g116
sS'13908'
p1661
g116
sS'13909'
p1662
g116
sS'35199'
p1663
g2
sS'35198'
p1664
g2
sS'18105'
p1665
g54
sS'18104'
p1666
g54
sS'18107'
p1667
g54
sS'18106'
p1668
g54
sS'18101'
p1669
g54
sS'18103'
p1670
g54
sS'18102'
p1671
g54
sS'19705'
p1672
g11
sS'18108'
p1673
g54
sS'28370'
p1674
g54
sS'19708'
p1675
g11
sS'28356'
p1676
g54
sS'28355'
p1677
g54
sS'28373'
p1678
g54
sS'28354'
p1679
g54
sS'14475'
p1680
g106
sS'28352'
p1681
g54
sS'07254'
p1682
g565
sS'28351'
p1683
g54
sS'11228'
p1684
g16
sS'11226'
p1685
g16
sS'11225'
p1686
g16
sS'11116'
p1687
g16
sS'11223'
p1688
g16
sS'11222'
p1689
g16
sS'11221'
p1690
g16
sS'11220'
p1691
g16
sS'19058'
p1692
g32
sS'19059'
p1693
g32
sS'19050'
p1694
g32
sS'19051'
p1695
g32
sS'19052'
p1696
g32
sS'19053'
p1697
g32
sS'19056'
p1698
g32
sS'19057'
p1699
g32
sS'23433'
p1700
g116
sS'23432'
p1701
g116
sS'23431'
p1702
g116
sS'23430'
p1703
g116
sS'23437'
p1704
g116
sS'23436'
p1705
g116
sS'23435'
p1706
g116
sS'23434'
p1707
g116
sS'28374'
p1708
g54
sS'23439'
p1709
g116
sS'23438'
p1710
g116
sS'19709'
p1711
g11
sS'28376'
p1712
g54
sS'06076'
p1713
g23
sS'06075'
p1714
g23
sS'06072'
p1715
g23
sS'06070'
p1716
g23
sS'06071'
p1717
g23
sS'10938'
p1718
g170
sS'10939'
p1719
g170
sS'10934'
p1720
g170
sS'10935'
p1721
g170
sS'10936'
p1722
g170
sS'10937'
p1723
g170
sS'10931'
p1724
g170
sS'10932'
p1725
g170
sS'10933'
p1726
g170
sS'21158'
p1727
g13
sS'21159'
p1728
g13
sS'21156'
p1729
g13
sS'21157'
p1730
g13
sS'21154'
p1731
g13
sS'21155'
p1732
g13
sS'21152'
p1733
g13
sS'21153'
p1734
g13
sS'21150'
p1735
g13
sS'21151'
p1736
g13
sS'19909'
p1737
g11
sS'05671'
p1738
g84
sS'05670'
p1739
g84
sS'05673'
p1740
g84
sS'05672'
p1741
g84
sS'05675'
p1742
g84
sS'05674'
p1743
g84
sS'05677'
p1744
g84
sS'05676'
p1745
g84
sS'05679'
p1746
g84
sS'05678'
p1747
g84
sS'21488'
p1748
g13
sS'22931'
p1749
g140
sS'22930'
p1750
g140
sS'21378'
p1751
g13
sS'21379'
p1752
g13
sS'22937'
p1753
g140
sS'22939'
p1754
g140
sS'18219'
p1755
g54
sS'21376'
p1756
g13
sS'21377'
p1757
g13
sS'18218'
p1758
g54
sS'03967'
p1759
g152
sS'03966'
p1760
g152
sS'03965'
p1761
g152
sS'03964'
p1762
g152
sS'03963'
p1763
g152
sS'03961'
p1764
g152
sS'03960'
p1765
g152
sS'03968'
p1766
g152
sS'13488'
p1767
g116
sS'13481'
p1768
g116
sS'13483'
p1769
g116
sS'13482'
p1770
g116
sS'13485'
p1771
g116
sS'13484'
p1772
g116
sS'13487'
p1773
g116
sS'13486'
p1774
g116
sS'14101'
p1775
g106
sS'14100'
p1776
g106
sS'14103'
p1777
g106
sS'14102'
p1778
g106
sS'14105'
p1779
g106
sS'14107'
p1780
g106
sS'14106'
p1781
g106
sS'14109'
p1782
g106
sS'14108'
p1783
g106
sS'13156'
p1784
g116
sS'13150'
p1785
g116
sS'13158'
p1786
g116
sS'36053'
p1787
g952
sS'36052'
p1788
g952
sS'36051'
p1789
g952
sS'36050'
p1790
g952
sS'36057'
p1791
g952
sS'36056'
p1792
g952
sS'36055'
p1793
g952
sS'36054'
p1794
g952
sS'36059'
p1795
g952
sS'36058'
p1796
g952
sS'28231'
p1797
g54
sS'20421'
p1798
g462
sS'20420'
p1799
g462
sS'20422'
p1800
g462
sS'08629'
p1801
g118
sS'08628'
p1802
g118
sS'08159'
p1803
g118
sS'44055'
p1804
g16
sS'08157'
p1805
g118
sS'08156'
p1806
g118
sS'08627'
p1807
g118
sS'20033'
p1808
g462
sS'13378'
p1809
g116
sS'20035'
p1810
g462
sS'03093'
p1811
g152
sS'03092'
p1812
g152
sS'03091'
p1813
g152
sS'03090'
p1814
g152
sS'03096'
p1815
g152
sS'19907'
p1816
g11
sS'03099'
p1817
g152
sS'03098'
p1818
g152
sS'23266'
p1819
g116
sS'23267'
p1820
g116
sS'06447'
p1821
g23
sS'06446'
p1822
g23
sS'06444'
p1823
g23
sS'06443'
p1824
g23
sS'06442'
p1825
g23
sS'06441'
p1826
g23
sS'06440'
p1827
g23
sS'06449'
p1828
g23
sS'06448'
p1829
g23
sS'19421'
p1830
g32
sS'19420'
p1831
g32
sS'19423'
p1832
g32
sS'19422'
p1833
g32
sS'19424'
p1834
g32
sS'23269'
p1835
g116
sS'11410'
p1836
g16
sS'11411'
p1837
g16
sS'11412'
p1838
g16
sS'11413'
p1839
g16
sS'11414'
p1840
g16
sS'11416'
p1841
g16
sS'11417'
p1842
g16
sS'11418'
p1843
g16
sS'11419'
p1844
g16
sS'31007'
p1845
g16
sS'21484'
p1846
g13
sS'21485'
p1847
g13
sS'23162'
p1848
g116
sS'21486'
p1849
g13
sS'13368'
p1850
g116
sS'13369'
p1851
g116
sS'21487'
p1852
g13
sS'13361'
p1853
g116
sS'13362'
p1854
g116
sS'13363'
p1855
g116
sS'13364'
p1856
g116
sS'13365'
p1857
g116
sS'13366'
p1858
g116
sS'13367'
p1859
g116
sS'21482'
p1860
g13
sS'21483'
p1861
g13
sS'42074'
p1862
g11
sS'09149'
p1863
g254
sS'09148'
p1864
g254
sS'09143'
p1865
g254
sS'42289'
p1866
g252
sS'09140'
p1867
g254
sS'09147'
p1868
g254
sS'09146'
p1869
g254
sS'09145'
p1870
g254
sS'09144'
p1871
g254
sS'12143'
p1872
g63
sS'12142'
p1873
g63
sS'12141'
p1874
g63
sS'12140'
p1875
g63
sS'12147'
p1876
g63
sS'12145'
p1877
g63
sS'12144'
p1878
g63
sS'12149'
p1879
g63
sS'10128'
p1880
g170
sS'22938'
p1881
g140
sS'10123'
p1882
g170
sS'10122'
p1883
g170
sS'10121'
p1884
g170
sS'10120'
p1885
g170
sS'14347'
p1886
g106
sS'21358'
p1887
g13
sS'01138'
p1888
g94
sS'01139'
p1889
g94
sS'01132'
p1890
g94
sS'01133'
p1891
g94
sS'01130'
p1892
g94
sS'01131'
p1893
g94
sS'01136'
p1894
g94
sS'01137'
p1895
g94
sS'01134'
p1896
g94
sS'01135'
p1897
g94
sS'03152'
p1898
g152
sS'03153'
p1899
g152
sS'03150'
p1900
g152
sS'03151'
p1901
g152
sS'08452'
p1902
g118
sS'08453'
p1903
g118
sS'08450'
p1904
g118
sS'08451'
p1905
g118
sS'21359'
p1906
g13
sS'03158'
p1907
g152
sS'03159'
p1908
g152
sS'08459'
p1909
g118
sS'18295'
p1910
g54
sS'18294'
p1911
g54
sS'18297'
p1912
g54
sS'18291'
p1913
g54
sS'18290'
p1914
g54
sS'18293'
p1915
g54
sS'18292'
p1916
g54
sS'18299'
p1917
g54
sS'28018'
p1918
g54
sS'28019'
p1919
g54
sS'28010'
p1920
g54
sS'28011'
p1921
g54
sS'28012'
p1922
g54
sS'28013'
p1923
g54
sS'28014'
p1924
g54
sS'28015'
p1925
g54
sS'28016'
p1926
g54
sS'28017'
p1927
g54
sS'23103'
p1928
g116
sS'23102'
p1929
g116
sS'13963'
p1930
g116
sS'13961'
p1931
g116
sS'35179'
p1932
g2
sS'13967'
p1933
g116
sS'13965'
p1934
g116
sS'35175'
p1935
g2
sS'23107'
p1936
g116
sS'13968'
p1937
g116
sS'13969'
p1938
g116
sS'35171'
p1939
g2
sS'35170'
p1940
g2
sS'35173'
p1941
g2
sS'23106'
p1942
g116
sS'18121'
p1943
g54
sS'18120'
p1944
g54
sS'18127'
p1945
g54
sS'18126'
p1946
g54
sS'07091'
p1947
g565
sS'07090'
p1948
g565
sS'18128'
p1949
g54
sS'18481'
p1950
g54
sS'18482'
p1951
g54
sS'23183'
p1952
g116
sS'23182'
p1953
g116
sS'23181'
p1954
g116
sS'23180'
p1955
g116
sS'23187'
p1956
g116
sS'23186'
p1957
g116
sS'23185'
p1958
g116
sS'23184'
p1959
g116
sS'23635'
p1960
g116
sS'23634'
p1961
g116
sS'23189'
p1962
g116
sS'07278'
p1963
g565
sS'23631'
p1964
g116
sS'23630'
p1965
g116
sS'23633'
p1966
g116
sS'23632'
p1967
g116
sS'15065'
p1968
g491
sS'15064'
p1969
g491
sS'15067'
p1970
g491
sS'15066'
p1971
g491
sS'15061'
p1972
g491
sS'15060'
p1973
g491
sS'15063'
p1974
g491
sS'15062'
p1975
g491
sS'18487'
p1976
g54
sS'15069'
p1977
g491
sS'15068'
p1978
g491
sS'18488'
p1979
g54
sS'18489'
p1980
g54
sS'28279'
p1981
g54
sS'23459'
p1982
g116
sS'11292'
p1983
g16
sS'16018'
p1984
g43
sS'23451'
p1985
g116
sS'23450'
p1986
g116
sS'23453'
p1987
g116
sS'23452'
p1988
g116
sS'23455'
p1989
g116
sS'23454'
p1990
g116
sS'23457'
p1991
g116
sS'23456'
p1992
g116
sS'28270'
p1993
g54
sS'28271'
p1994
g54
sS'28272'
p1995
g54
sS'16606'
p1996
g43
sS'16607'
p1997
g43
sS'16600'
p1998
g43
sS'16601'
p1999
g43
sS'16602'
p2000
g43
sS'16603'
p2001
g43
sS'16608'
p2002
g43
sS'16609'
p2003
g43
sS'28275'
p2004
g54
sS'28277'
p2005
g54
sS'10115'
p2006
g170
sS'06058'
p2007
g23
sS'06054'
p2008
g23
sS'06056'
p2009
g23
sS'06057'
p2010
g23
sS'06050'
p2011
g23
sS'06051'
p2012
g23
sS'06053'
p2013
g23
sS'10958'
p2014
g170
sS'10959'
p2015
g170
sS'10952'
p2016
g170
sS'10953'
p2017
g170
sS'10950'
p2018
g170
sS'10951'
p2019
g170
sS'10956'
p2020
g170
sS'10957'
p2021
g170
sS'10954'
p2022
g170
sS'10955'
p2023
g170
sS'19919'
p2024
g11
sS'19918'
p2025
g11
sS'43060'
p2026
g11
sS'21350'
p2027
g13
sS'05129'
p2028
g84
sS'05128'
p2029
g84
sS'21356'
p2030
g13
sS'05658'
p2031
g84
sS'05657'
p2032
g84
sS'05124'
p2033
g84
sS'05655'
p2034
g84
sS'05126'
p2035
g84
sS'05121'
p2036
g84
sS'05120'
p2037
g84
sS'05651'
p2038
g84
sS'05650'
p2039
g84
sS'19911'
p2040
g11
sS'22919'
p2041
g140
sS'19910'
p2042
g11
sS'22917'
p2043
g140
sS'22916'
p2044
g140
sS'22915'
p2045
g140
sS'22914'
p2046
g140
sS'22912'
p2047
g140
sS'22911'
p2048
g140
sS'22910'
p2049
g140
sS'03989'
p2050
g152
sS'03988'
p2051
g152
sS'03985'
p2052
g152
sS'03984'
p2053
g152
sS'03987'
p2054
g152
sS'03986'
p2055
g152
sS'03981'
p2056
g152
sS'03980'
p2057
g152
sS'03983'
p2058
g152
sS'03982'
p2059
g152
sS'11605'
p2060
g16
sS'11604'
p2061
g16
sS'11601'
p2062
g16
sS'19917'
p2063
g11
sS'11603'
p2064
g16
sS'11602'
p2065
g16
sS'19916'
p2066
g11
sS'11609'
p2067
g16
sS'11959'
p2068
g16
sS'11958'
p2069
g16
sS'11955'
p2070
g16
sS'14126'
p2071
g106
sS'11957'
p2072
g16
sS'14124'
p2073
g106
sS'11951'
p2074
g16
sS'12039'
p2075
g63
sS'14121'
p2076
g106
sS'14120'
p2077
g106
sS'21297'
p2078
g13
sS'23586'
p2079
g116
sS'36039'
p2080
g952
sS'36038'
p2081
g952
sS'36031'
p2082
g952
sS'36030'
p2083
g952
sS'36033'
p2084
g952
sS'36032'
p2085
g952
sS'36035'
p2086
g952
sS'36034'
p2087
g952
sS'36037'
p2088
g952
sS'21296'
p2089
g13
sS'18608'
p2090
g54
sS'18609'
p2091
g54
sS'18603'
p2092
g54
sS'14381'
p2093
g106
sS'11318'
p2094
g16
sS'14385'
p2095
g106
sS'14384'
p2096
g106
sS'04528'
p2097
g252
sS'04529'
p2098
g252
sS'20409'
p2099
g462
sS'04520'
p2100
g252
sS'11312'
p2101
g16
sS'08608'
p2102
g118
sS'23589'
p2103
g116
sS'08603'
p2104
g118
sS'08602'
p2105
g118
sS'23588'
p2106
g116
sS'44074'
p2107
g152
sS'33863'
p2108
g152
sS'19121'
p2109
g11
sS'21395'
p2110
g13
sS'33862'
p2111
g152
sS'12540'
p2112
g63
sS'06601'
p2113
g23
sS'06600'
p2114
g23
sS'06603'
p2115
g23
sS'06602'
p2116
g23
sS'06605'
p2117
g23
sS'06604'
p2118
g23
sS'06609'
p2119
g23
sS'03215'
p2120
g152
sS'03214'
p2121
g152
sS'03217'
p2122
g152
sS'03216'
p2123
g152
sS'03211'
p2124
g152
sS'03213'
p2125
g152
sS'03212'
p2126
g152
sS'28209'
p2127
g54
sS'28208'
p2128
g54
sS'28205'
p2129
g54
sS'28204'
p2130
g54
sS'28207'
p2131
g54
sS'28206'
p2132
g54
sS'28201'
p2133
g54
sS'28200'
p2134
g54
sS'28203'
p2135
g54
sS'28202'
p2136
g54
sS'06932'
p2137
g23
sS'06931'
p2138
g23
sS'06930'
p2139
g23
sS'19800'
p2140
g32
sS'11380'
p2141
g16
sS'11381'
p2142
g16
sS'11382'
p2143
g16
sS'11383'
p2144
g16
sS'11384'
p2145
g16
sS'11385'
p2146
g16
sS'11386'
p2147
g16
sS'11387'
p2148
g16
sS'43273'
p2149
g94
sS'43276'
p2150
g94
sS'43275'
p2151
g94
sS'43274'
p2152
g94
sS'19159'
p2153
g11
sS'19409'
p2154
g11
sS'19408'
p2155
g32
sS'19155'
p2156
g11
sS'19154'
p2157
g11
sS'19157'
p2158
g11
sS'19156'
p2159
g11
sS'19151'
p2160
g11
sS'19150'
p2161
g11
sS'19153'
p2162
g11
sS'19152'
p2163
g11
sS'08625'
p2164
g118
sS'02036'
p2165
g416
sS'02037'
p2166
g416
sS'02034'
p2167
g416
sS'02035'
p2168
g416
sS'02032'
p2169
g416
sS'02033'
p2170
g416
sS'02030'
p2171
g416
sS'02031'
p2172
g416
sS'02038'
p2173
g416
sS'02039'
p2174
g416
sS'03140'
p2175
g152
sS'42055'
p2176
g106
sS'80200'
p2177
g491
sS'43146'
p2178
g16
sS'12129'
p2179
g63
sS'12128'
p2180
g63
sS'12121'
p2181
g63
sS'12120'
p2182
g63
sS'12122'
p2183
g63
sS'12127'
p2184
g63
sS'10141'
p2185
g170
sS'10140'
p2186
g170
sS'10142'
p2187
g170
sS'10146'
p2188
g170
sS'10149'
p2189
g170
sS'12529'
p2190
g63
sS'28315'
p2191
g54
sS'09121'
p2192
g254
sS'09120'
p2193
g254
sS'09123'
p2194
g254
sS'09125'
p2195
g254
sS'09124'
p2196
g254
sS'09127'
p2197
g254
sS'09126'
p2198
g254
sS'09129'
p2199
g254
sS'09128'
p2200
g254
sS'20092'
p2201
g462
sS'08290'
p2202
g118
sS'28314'
p2203
g54
sS'20093'
p2204
g462
sS'20094'
p2205
g462
sS'20095'
p2206
g462
sS'05356'
p2207
g84
sS'05357'
p2208
g84
sS'05354'
p2209
g84
sS'05352'
p2210
g84
sS'05353'
p2211
g84
sS'05351'
p2212
g84
sS'20097'
p2213
g462
sS'05358'
p2214
g84
sS'05359'
p2215
g84
sS'01110'
p2216
g94
sS'01111'
p2217
g94
sS'01112'
p2218
g94
sS'01113'
p2219
g94
sS'01114'
p2220
g94
sS'01115'
p2221
g94
sS'01116'
p2222
g94
sS'01117'
p2223
g94
sS'01118'
p2224
g94
sS'01119'
p2225
g94
sS'03178'
p2226
g152
sS'03179'
p2227
g152
sS'08478'
p2228
g118
sS'03170'
p2229
g152
sS'03171'
p2230
g152
sS'03172'
p2231
g152
sS'03173'
p2232
g152
sS'03174'
p2233
g152
sS'03175'
p2234
g152
sS'03176'
p2235
g152
sS'03177'
p2236
g152
sS'14246'
p2237
g106
sS'14247'
p2238
g106
sS'14245'
p2239
g106
sS'14242'
p2240
g106
sS'14243'
p2241
g106
sS'14240'
p2242
g106
sS'14241'
p2243
g106
sS'14248'
p2244
g106
sS'13948'
p2245
g116
sS'13949'
p2246
g116
sS'35158'
p2247
g2
sS'13940'
p2248
g116
sS'35152'
p2249
g2
sS'35151'
p2250
g2
sS'13943'
p2251
g116
sS'35157'
p2252
g2
sS'35156'
p2253
g2
sS'13946'
p2254
g116
sS'35154'
p2255
g2
sS'18148'
p2256
g54
sS'07078'
p2257
g565
sS'07075'
p2258
g565
sS'07074'
p2259
g565
sS'07077'
p2260
g565
sS'18142'
p2261
g54
sS'07071'
p2262
g565
sS'07070'
p2263
g565
sS'07073'
p2264
g565
sS'07072'
p2265
g565
sS'35180'
p2266
g2
sS'35181'
p2267
g2
sS'35182'
p2268
g2
sS'23619'
p2269
g116
sS'23618'
p2270
g116
sS'23613'
p2271
g116
sS'23612'
p2272
g116
sS'23611'
p2273
g116
sS'07212'
p2274
g565
sS'23617'
p2275
g116
sS'23616'
p2276
g116
sS'23615'
p2277
g116
sS'23614'
p2278
g116
sS'15043'
p2279
g491
sS'15042'
p2280
g491
sS'15041'
p2281
g491
sS'15040'
p2282
g491
sS'15047'
p2283
g491
sS'15046'
p2284
g491
sS'15045'
p2285
g491
sS'15044'
p2286
g491
sS'15049'
p2287
g491
sS'15048'
p2288
g491
sS'35188'
p2289
g2
sS'23477'
p2290
g116
sS'23476'
p2291
g116
sS'23475'
p2292
g116
sS'23474'
p2293
g116
sS'23473'
p2294
g116
sS'23472'
p2295
g116
sS'23471'
p2296
g116
sS'23470'
p2297
g116
sS'23479'
p2298
g116
sS'23478'
p2299
g116
sS'28210'
p2300
g54
sS'43514'
p2301
g11
sS'28211'
p2302
g54
sS'19366'
p2303
g11
sS'19367'
p2304
g11
sS'19364'
p2305
g11
sS'19365'
p2306
g11
sS'19362'
p2307
g11
sS'19363'
p2308
g11
sS'19360'
p2309
g11
sS'19361'
p2310
g11
sS'19368'
p2311
g11
sS'19369'
p2312
g11
sS'19300'
p2313
g11
sS'06038'
p2314
g23
sS'06039'
p2315
g23
sS'10974'
p2316
g170
sS'10975'
p2317
g170
sS'10976'
p2318
g170
sS'10977'
p2319
g170
sS'06032'
p2320
g23
sS'10979'
p2321
g170
sS'06030'
p2322
g23
sS'06037'
p2323
g23
sS'19303'
p2324
g11
sS'18547'
p2325
g54
sS'21112'
p2326
g13
sS'21113'
p2327
g13
sS'21110'
p2328
g13
sS'21111'
p2329
g13
sS'19306'
p2330
g11
sS'21114'
p2331
g13
sS'21115'
p2332
g13
sS'21118'
p2333
g13
sS'21119'
p2334
g13
sS'11595'
p2335
g16
sS'11594'
p2336
g16
sS'11597'
p2337
g16
sS'11596'
p2338
g16
sS'11591'
p2339
g16
sS'11590'
p2340
g16
sS'11593'
p2341
g16
sS'43046'
p2342
g11
sS'11599'
p2343
g16
sS'05109'
p2344
g84
sS'05108'
p2345
g84
sS'05103'
p2346
g84
sS'05102'
p2347
g84
sS'05101'
p2348
g84
sS'05100'
p2349
g84
sS'05107'
p2350
g84
sS'05106'
p2351
g84
sS'05105'
p2352
g84
sS'05104'
p2353
g84
sS'17283'
p2354
g70
sS'17282'
p2355
g70
sS'17281'
p2356
g70
sS'17280'
p2357
g70
sS'17287'
p2358
g70
sS'17286'
p2359
g70
sS'17285'
p2360
g70
sS'17284'
p2361
g70
sS'17289'
p2362
g70
sS'17288'
p2363
g70
sS'13449'
p2364
g116
sS'13448'
p2365
g116
sS'13445'
p2366
g116
sS'13444'
p2367
g116
sS'13447'
p2368
g116
sS'13446'
p2369
g116
sS'13441'
p2370
g116
sS'13440'
p2371
g116
sS'13443'
p2372
g116
sS'13442'
p2373
g116
sS'11623'
p2374
g16
sS'11622'
p2375
g16
sS'11621'
p2376
g16
sS'11620'
p2377
g16
sS'11626'
p2378
g16
sS'11625'
p2379
g16
sS'11624'
p2380
g16
sS'11979'
p2381
g16
sS'11978'
p2382
g16
sS'21412'
p2383
g13
sS'11973'
p2384
g16
sS'11972'
p2385
g16
sS'11970'
p2386
g16
sS'11977'
p2387
g16
sS'11976'
p2388
g16
sS'11975'
p2389
g16
sS'11974'
p2390
g16
sS'21410'
p2391
g13
sS'20649'
p2392
g462
sS'20648'
p2393
g462
sS'20645'
p2394
g462
sS'18945'
p2395
g54
sS'20647'
p2396
g462
sS'20646'
p2397
g462
sS'20641'
p2398
g462
sS'20640'
p2399
g462
sS'18944'
p2400
g54
sS'36017'
p2401
g952
sS'36016'
p2402
g952
sS'36015'
p2403
g952
sS'36014'
p2404
g952
sS'36013'
p2405
g952
sS'21415'
p2406
g13
sS'36011'
p2407
g952
sS'36010'
p2408
g952
sS'36019'
p2409
g952
sS'36018'
p2410
g952
sS'18949'
p2411
g54
sS'18948'
p2412
g54
sS'21419'
p2413
g13
sS'04506'
p2414
g252
sS'21418'
p2415
g13
sS'04501'
p2416
g252
sS'04502'
p2417
g252
sS'18478'
p2418
g54
sS'28273'
p2419
g54
sS'20466'
p2420
g462
sS'08661'
p2421
g118
sS'08660'
p2422
g118
sS'08663'
p2423
g118
sS'08662'
p2424
g118
sS'10088'
p2425
g170
sS'10089'
p2426
g170
sS'08666'
p2427
g118
sS'08669'
p2428
g118
sS'08668'
p2429
g118
sS'10086'
p2430
g170
sS'10087'
p2431
g170
sS'10080'
p2432
g170
sS'10081'
p2433
g170
sS'10082'
p2434
g170
sS'10083'
p2435
g170
sS'18444'
p2436
g54
sS'18445'
p2437
g54
sS'18446'
p2438
g54
sS'18447'
p2439
g54
sS'21060'
p2440
g13
sS'18443'
p2441
g54
sS'19875'
p2442
g11
sS'18448'
p2443
g54
sS'18449'
p2444
g54
sS'42284'
p2445
g152
sS'18621'
p2446
g54
sS'28079'
p2447
g54
sS'18629'
p2448
g54
sS'08085'
p2449
g118
sS'08084'
p2450
g118
sS'08087'
p2451
g118
sS'08081'
p2452
g118
sS'08083'
p2453
g118
sS'08082'
p2454
g118
sS'08089'
p2455
g118
sS'01305'
p2456
g94
sS'01306'
p2457
g94
sS'01301'
p2458
g94
sS'01300'
p2459
g94
sS'01303'
p2460
g94
sS'01302'
p2461
g94
sS'06629'
p2462
g23
sS'06628'
p2463
g23
sS'06627'
p2464
g23
sS'06626'
p2465
g23
sS'06625'
p2466
g23
sS'06624'
p2467
g23
sS'06623'
p2468
g23
sS'06622'
p2469
g23
sS'06621'
p2470
g23
sS'06620'
p2471
g23
sS'03233'
p2472
g152
sS'03230'
p2473
g152
sS'03236'
p2474
g152
sS'03235'
p2475
g152
sS'03238'
p2476
g152
sS'11025'
p2477
g16
sS'11024'
p2478
g16
sS'11027'
p2479
g16
sS'11026'
p2480
g16
sS'11023'
p2481
g16
sS'11022'
p2482
g16
sS'11029'
p2483
g16
sS'11028'
p2484
g16
sS'23288'
p2485
g116
sS'23289'
p2486
g116
sS'28229'
p2487
g54
sS'28228'
p2488
g54
sS'23280'
p2489
g116
sS'23281'
p2490
g116
sS'23282'
p2491
g116
sS'23283'
p2492
g116
sS'23284'
p2493
g116
sS'23285'
p2494
g116
sS'23286'
p2495
g116
sS'23287'
p2496
g116
sS'06959'
p2497
g23
sS'06958'
p2498
g23
sS'06483'
p2499
g23
sS'06482'
p2500
g23
sS'06481'
p2501
g23
sS'06480'
p2502
g23
sS'06487'
p2503
g23
sS'06957'
p2504
g23
sS'06956'
p2505
g23
sS'43212'
p2506
g43
sS'43215'
p2507
g252
sS'43214'
p2508
g252
sS'43217'
p2509
g16
sS'43216'
p2510
g11
sS'43218'
p2511
g118
sS'11368'
p2512
g16
sS'11369'
p2513
g16
sS'11366'
p2514
g16
sS'11367'
p2515
g16
sS'11364'
p2516
g16
sS'11365'
p2517
g16
sS'11362'
p2518
g16
sS'11363'
p2519
g16
sS'11360'
p2520
g16
sS'11361'
p2521
g16
sS'19173'
p2522
g11
sS'19172'
p2523
g11
sS'19171'
p2524
g11
sS'19170'
p2525
g11
sS'19177'
p2526
g11
sS'19176'
p2527
g11
sS'19175'
p2528
g11
sS'28339'
p2529
g54
sS'19281'
p2530
g11
sS'19280'
p2531
g11
sS'19283'
p2532
g11
sS'02018'
p2533
g416
sS'02019'
p2534
g416
sS'02014'
p2535
g416
sS'02015'
p2536
g416
sS'02016'
p2537
g416
sS'02017'
p2538
g416
sS'02010'
p2539
g416
sS'02011'
p2540
g416
sS'02012'
p2541
g416
sS'02013'
p2542
g416
sS'28338'
p2543
g54
sS'03857'
p2544
g152
sS'03856'
p2545
g152
sS'03855'
p2546
g152
sS'16345'
p2547
g43
sS'16347'
p2548
g43
sS'03854'
p2549
g152
sS'16341'
p2550
g43
sS'19820'
p2551
g32
sS'16343'
p2552
g43
sS'19822'
p2553
g32
sS'22118'
p2554
g43
sS'16348'
p2555
g43
sS'03852'
p2556
g152
sS'12104'
p2557
g63
sS'03851'
p2558
g152
sS'12101'
p2559
g63
sS'12100'
p2560
g63
sS'12109'
p2561
g63
sS'12108'
p2562
g63
sS'01264'
p2563
g94
sS'09078'
p2564
g254
sS'10169'
p2565
g170
sS'10168'
p2566
g170
sS'10167'
p2567
g170
sS'10166'
p2568
g170
sS'10165'
p2569
g170
sS'10164'
p2570
g170
sS'10163'
p2571
g170
sS'42281'
p2572
g11
sS'21255'
p2573
g13
sS'21254'
p2574
g13
sS'21256'
p2575
g13
sS'21251'
p2576
g13
sS'21250'
p2577
g13
sS'21253'
p2578
g13
sS'21252'
p2579
g13
sS'21259'
p2580
g13
sS'21258'
p2581
g13
sS'28336'
p2582
g54
sS'03826'
p2583
g152
sS'03827'
p2584
g152
sS'03824'
p2585
g152
sS'03825'
p2586
g152
sS'03822'
p2587
g152
sS'03823'
p2588
g152
sS'03820'
p2589
g152
sS'03821'
p2590
g152
sS'09107'
p2591
g254
sS'09106'
p2592
g254
sS'09105'
p2593
g254
sS'09104'
p2594
g254
sS'09451'
p2595
g254
sS'09102'
p2596
g254
sS'09101'
p2597
g254
sS'09100'
p2598
g254
sS'08277'
p2599
g118
sS'08274'
p2600
g118
sS'08272'
p2601
g118
sS'08273'
p2602
g118
sS'08270'
p2603
g118
sS'08271'
p2604
g118
sS'14080'
p2605
g106
sS'14082'
p2606
g106
sS'14083'
p2607
g106
sS'14084'
p2608
g106
sS'14086'
p2609
g106
sS'14087'
p2610
g106
sS'14088'
p2611
g106
sS'18360'
p2612
g54
sS'28391'
p2613
g54
sS'08410'
p2614
g118
sS'08411'
p2615
g118
sS'08417'
p2616
g118
sS'14268'
p2617
g106
sS'14269'
p2618
g106
sS'14264'
p2619
g106
sS'14267'
p2620
g106
sS'14260'
p2621
g106
sS'14261'
p2622
g106
sS'14262'
p2623
g106
sS'14263'
p2624
g106
sS'20076'
p2625
g462
sS'20077'
p2626
g462
sS'20074'
p2627
g462
sS'15116'
p2628
g491
sS'20072'
p2629
g462
sS'20073'
p2630
g462
sS'20070'
p2631
g462
sS'20071'
p2632
g462
sS'20078'
p2633
g462
sS'18167'
p2634
g54
sS'18166'
p2635
g54
sS'18165'
p2636
g54
sS'18164'
p2637
g54
sS'18163'
p2638
g54
sS'18161'
p2639
g54
sS'18160'
p2640
g54
sS'18168'
p2641
g54
sS'07059'
p2642
g565
sS'07058'
p2643
g565
sS'07053'
p2644
g565
sS'07052'
p2645
g565
sS'07051'
p2646
g565
sS'07050'
p2647
g565
sS'07057'
p2648
g565
sS'07056'
p2649
g565
sS'07055'
p2650
g565
sS'07054'
p2651
g565
sS'28396'
p2652
g54
sS'28340'
p2653
g54
sS'11100'
p2654
g16
sS'07945'
p2655
g565
sS'07236'
p2656
g565
sS'14461'
p2657
g106
sS'07941'
p2658
g565
sS'07940'
p2659
g565
sS'07943'
p2660
g565
sS'07230'
p2661
g565
sS'28344'
p2662
g54
sS'01188'
p2663
g94
sS'07949'
p2664
g565
sS'28345'
p2665
g54
sS'28346'
p2666
g54
sS'28347'
p2667
g54
sS'28394'
p2668
g54
sS'15029'
p2669
g491
sS'15028'
p2670
g491
sS'15021'
p2671
g491
sS'15020'
p2672
g491
sS'15023'
p2673
g491
sS'15022'
p2674
g491
sS'15025'
p2675
g491
sS'15024'
p2676
g491
sS'15027'
p2677
g491
sS'15026'
p2678
g491
sS'35131'
p2679
g2
sS'35130'
p2680
g2
sS'35133'
p2681
g2
sS'35132'
p2682
g2
sS'35135'
p2683
g2
sS'10020'
p2684
g170
sS'35137'
p2685
g2
sS'35136'
p2686
g2
sS'35139'
p2687
g2
sS'35138'
p2688
g2
sS'23499'
p2689
g116
sS'23498'
p2690
g116
sS'23495'
p2691
g116
sS'23494'
p2692
g116
sS'23497'
p2693
g116
sS'23496'
p2694
g116
sS'23491'
p2695
g116
sS'23490'
p2696
g116
sS'19348'
p2697
g11
sS'19349'
p2698
g11
sS'16138'
p2699
g43
sS'16139'
p2700
g43
sS'16136'
p2701
g43
sS'16137'
p2702
g43
sS'16134'
p2703
g43
sS'16135'
p2704
g43
sS'16132'
p2705
g43
sS'16133'
p2706
g43
sS'16130'
p2707
g43
sS'06010'
p2708
g23
sS'06011'
p2709
g23
sS'06544'
p2710
g23
sS'06013'
p2711
g23
sS'06014'
p2712
g23
sS'06015'
p2713
g23
sS'06016'
p2714
g23
sS'06017'
p2715
g23
sS'06018'
p2716
g23
sS'06019'
p2717
g23
sS'06548'
p2718
g23
sS'06549'
p2719
g23
sS'10998'
p2720
g170
sS'10994'
p2721
g170
sS'10992'
p2722
g170
sS'10993'
p2723
g170
sS'10990'
p2724
g170
sS'10991'
p2725
g170
sS'35047'
p2726
g2
sS'21138'
p2727
g13
sS'21139'
p2728
g13
sS'35046'
p2729
g2
sS'21130'
p2730
g13
sS'21211'
p2731
g13
sS'35040'
p2732
g2
sS'43535'
p2733
g152
sS'43536'
p2734
g152
sS'43537'
p2735
g152
sS'21210'
p2736
g13
sS'43539'
p2737
g152
sS'43028'
p2738
g11
sS'43020'
p2739
g252
sS'43021'
p2740
g252
sS'43026'
p2741
g11
sS'43027'
p2742
g11
sS'13469'
p2743
g116
sS'13468'
p2744
g116
sS'13463'
p2745
g116
sS'13460'
p2746
g116
sS'13467'
p2747
g116
sS'13466'
p2748
g116
sS'13465'
p2749
g116
sS'13464'
p2750
g116
sS'11649'
p2751
g16
sS'11641'
p2752
g16
sS'11640'
p2753
g16
sS'11643'
p2754
g16
sS'11642'
p2755
g16
sS'11645'
p2756
g16
sS'11644'
p2757
g16
sS'11647'
p2758
g16
sS'20006'
p2759
g462
sS'20005'
p2760
g462
sS'05161'
p2761
g84
sS'05160'
p2762
g84
sS'21396'
p2763
g13
sS'05162'
p2764
g84
sS'05165'
p2765
g84
sS'05167'
p2766
g84
sS'05166'
p2767
g84
sS'05169'
p2768
g84
sS'05168'
p2769
g84
sS'21398'
p2770
g13
sS'21399'
p2771
g13
sS'20002'
p2772
g462
sS'20447'
p2773
g462
sS'20446'
p2774
g462
sS'04560'
p2775
g252
sS'20444'
p2776
g462
sS'20001'
p2777
g462
sS'08649'
p2778
g118
sS'08648'
p2779
g118
sS'08647'
p2780
g118
sS'08643'
p2781
g118
sS'08642'
p2782
g118
sS'08641'
p2783
g118
sS'08640'
p2784
g118
sS'11911'
p2785
g16
sS'11910'
p2786
g16
sS'11913'
p2787
g16
sS'11912'
p2788
g16
sS'11915'
p2789
g16
sS'11914'
p2790
g16
sS'11917'
p2791
g16
sS'11916'
p2792
g16
sS'11919'
p2793
g16
sS'11918'
p2794
g16
sS'18428'
p2795
g54
sS'18429'
p2796
g54
sS'10206'
p2797
g170
sS'10207'
p2798
g170
sS'10204'
p2799
g170
sS'10205'
p2800
g170
sS'10202'
p2801
g170
sS'10203'
p2802
g170
sS'10200'
p2803
g170
sS'10201'
p2804
g170
sS'10208'
p2805
g170
sS'10209'
p2806
g170
sS'01095'
p2807
g94
sS'01094'
p2808
g94
sS'01097'
p2809
g94
sS'01096'
p2810
g94
sS'01091'
p2811
g94
sS'01090'
p2812
g94
sS'01093'
p2813
g94
sS'01092'
p2814
g94
sS'18390'
p2815
g54
sS'18396'
p2816
g54
sS'11003'
p2817
g16
sS'28240'
p2818
g54
sS'11001'
p2819
g16
sS'28242'
p2820
g54
sS'11007'
p2821
g16
sS'11006'
p2822
g16
sS'11005'
p2823
g16
sS'11004'
p2824
g16
sS'28249'
p2825
g54
sS'28248'
p2826
g54
sS'11009'
p2827
g16
sS'11008'
p2828
g16
sS'08574'
p2829
g118
sS'03073'
p2830
g152
sS'11344'
p2831
g16
sS'11345'
p2832
g16
sS'03072'
p2833
g152
sS'03075'
p2834
g152
sS'11349'
p2835
g16
sS'19111'
p2836
g11
sS'19110'
p2837
g11
sS'19113'
p2838
g11
sS'19112'
p2839
g11
sS'19115'
p2840
g11
sS'03077'
p2841
g152
sS'19117'
p2842
g11
sS'19116'
p2843
g11
sS'19119'
p2844
g11
sS'19118'
p2845
g11
sS'02073'
p2846
g416
sS'02076'
p2847
g416
sS'02074'
p2848
g416
sS'02075'
p2849
g416
sS'06977'
p2850
g23
sS'06976'
p2851
g23
sS'06974'
p2852
g23
sS'06972'
p2853
g23
sS'06971'
p2854
g23
sS'06970'
p2855
g23
sS'06978'
p2856
g23
sS'21347'
p2857
g13
sS'43497'
p2858
g491
sS'43495'
p2859
g118
sS'21346'
p2860
g13
sS'16587'
p2861
g43
sS'16586'
p2862
g43
sS'16585'
p2863
g43
sS'16584'
p2864
g43
sS'16581'
p2865
g43
sS'21343'
p2866
g13
sS'16588'
p2867
g43
sS'12695'
p2868
g63
sS'21341'
p2869
g13
sS'21340'
p2870
g13
sS'12698'
p2871
g63
sS'16363'
p2872
g43
sS'19802'
p2873
g32
sS'16361'
p2874
g43
sS'16360'
p2875
g43
sS'19807'
p2876
g32
sS'19806'
p2877
g32
sS'21091'
p2878
g13
sS'19804'
p2879
g32
sS'19809'
p2880
g32
sS'16368'
p2881
g43
sS'21099'
p2882
g13
sS'21098'
p2883
g13
sS'06201'
p2884
g23
sS'06209'
p2885
g23
sS'06208'
p2886
g23
sS'17188'
p2887
g70
sS'17189'
p2888
g70
sS'35200'
p2889
g2
sS'17180'
p2890
g70
sS'17181'
p2891
g70
sS'17182'
p2892
g70
sS'17183'
p2893
g70
sS'17184'
p2894
g70
sS'17185'
p2895
g70
sS'17186'
p2896
g70
sS'17187'
p2897
g70
sS'21273'
p2898
g13
sS'21272'
p2899
g13
sS'21271'
p2900
g13
sS'21270'
p2901
g13
sS'21277'
p2902
g13
sS'21276'
p2903
g13
sS'21275'
p2904
g13
sS'21274'
p2905
g13
sS'21279'
p2906
g13
sS'21278'
p2907
g13
sS'03808'
p2908
g152
sS'03809'
p2909
g152
sS'03805'
p2910
g152
sS'03806'
p2911
g152
sS'03800'
p2912
g152
sS'03801'
p2913
g152
sS'03802'
p2914
g152
sS'03803'
p2915
g152
sS'44110'
p2916
g11
sS'05318'
p2917
g84
sS'05319'
p2918
g84
sS'14068'
p2919
g106
sS'05312'
p2920
g84
sS'05313'
p2921
g84
sS'05310'
p2922
g84
sS'05311'
p2923
g84
sS'05316'
p2924
g84
sS'05317'
p2925
g84
sS'05314'
p2926
g84
sS'05315'
p2927
g84
sS'20088'
p2928
g462
sS'18985'
p2929
g54
sS'18984'
p2930
g54
sS'18987'
p2931
g54
sS'18986'
p2932
g54
sS'18981'
p2933
g54
sS'18980'
p2934
g54
sS'18983'
p2935
g54
sS'18982'
p2936
g54
sS'18989'
p2937
g54
sS'18988'
p2938
g54
sS'20087'
p2939
g462
sS'14209'
p2940
g106
sS'14202'
p2941
g106
sS'14203'
p2942
g106
sS'14201'
p2943
g106
sS'14206'
p2944
g106
sS'14207'
p2945
g106
sS'14204'
p2946
g106
sS'20058'
p2947
g462
sS'20054'
p2948
g462
sS'20055'
p2949
g462
sS'20050'
p2950
g462
sS'20051'
p2951
g462
sS'20052'
p2952
g462
sS'20053'
p2953
g462
sS'36606'
p2954
g952
sS'36607'
p2955
g952
sS'36604'
p2956
g952
sS'36605'
p2957
g952
sS'36602'
p2958
g952
sS'36603'
p2959
g952
sS'08252'
p2960
g118
sS'36601'
p2961
g952
sS'08259'
p2962
g118
sS'36608'
p2963
g952
sS'36609'
p2964
g952
sS'07031'
p2965
g565
sS'07030'
p2966
g565
sS'07033'
p2967
g565
sS'07032'
p2968
g565
sS'18189'
p2969
g54
sS'07034'
p2970
g565
sS'07036'
p2971
g565
sS'07039'
p2972
g565
sS'07038'
p2973
g565
sS'18187'
p2974
g54
sS'18186'
p2975
g54
sS'18180'
p2976
g54
sS'18183'
p2977
g54
sS'18182'
p2978
g54
sS'04044'
p2979
g252
sS'04047'
p2980
g252
sS'04042'
p2981
g252
sS'18027'
p2982
g54
sS'18024'
p2983
g54
sS'18025'
p2984
g54
sS'08435'
p2985
g118
sS'08436'
p2986
g118
sS'18022'
p2987
g54
sS'07963'
p2988
g565
sS'07962'
p2989
g565
sS'07961'
p2990
g565
sS'07960'
p2991
g565
sS'07967'
p2992
g565
sS'07966'
p2993
g565
sS'07965'
p2994
g565
sS'07964'
p2995
g565
sS'20083'
p2996
g462
sS'23124'
p2997
g116
sS'07969'
p2998
g565
sS'07968'
p2999
g565
sS'23121'
p3000
g116
sS'23120'
p3001
g116
sS'23123'
p3002
g116
sS'23122'
p3003
g116
sS'15007'
p3004
g491
sS'15006'
p3005
g491
sS'15005'
p3006
g491
sS'15004'
p3007
g491
sS'15003'
p3008
g491
sS'15002'
p3009
g491
sS'15001'
p3010
g491
sS'18479'
p3011
g54
sS'43447'
p3012
g32
sS'42290'
p3013
g94
sS'15009'
p3014
g491
sS'15008'
p3015
g491
sS'20082'
p3016
g462
sS'18028'
p3017
g54
sS'42291'
p3018
g43
sS'18029'
p3019
g54
sS'18476'
p3020
g54
sS'20080'
p3021
g462
sS'19328'
p3022
g11
sS'19322'
p3023
g11
sS'19323'
p3024
g11
sS'19320'
p3025
g11
sS'19321'
p3026
g11
sS'19326'
p3027
g11
sS'19327'
p3028
g11
sS'19324'
p3029
g11
sS'19325'
p3030
g11
sS'22528'
p3031
g140
sS'22529'
p3032
g140
sS'22522'
p3033
g140
sS'13896'
p3034
g116
sS'13897'
p3035
g116
sS'13894'
p3036
g116
sS'13895'
p3037
g116
sS'13892'
p3038
g116
sS'13893'
p3039
g116
sS'13890'
p3040
g116
sS'13891'
p3041
g116
sS'13898'
p3042
g116
sS'13899'
p3043
g116
sS'43550'
p3044
g152
sS'43004'
p3045
g152
sS'43006'
p3046
g152
sS'43007'
p3047
g152
sS'43008'
p3048
g152
sS'19908'
p3049
g11
sS'16114'
p3050
g43
sS'16115'
p3051
g43
sS'16116'
p3052
g43
sS'16117'
p3053
g43
sS'16110'
p3054
g43
sS'16111'
p3055
g43
sS'16112'
p3056
g43
sS'16113'
p3057
g43
sS'44005'
p3058
g252
sS'16118'
p3059
g43
sS'16119'
p3060
g43
sS'11141'
p3061
g16
sS'13401'
p3062
g116
sS'19902'
p3063
g11
sS'13402'
p3064
g116
sS'13405'
p3065
g116
sS'13404'
p3066
g116
sS'13407'
p3067
g116
sS'19903'
p3068
g11
sS'13408'
p3069
g116
sS'11667'
p3070
g16
sS'11666'
p3071
g16
sS'11663'
p3072
g16
sS'11660'
p3073
g16
sS'11669'
p3074
g16
sS'16227'
p3075
g43
sS'19905'
p3076
g11
sS'23590'
p3077
g116
sS'36041'
p3078
g952
sS'05149'
p3079
g84
sS'05148'
p3080
g84
sS'05147'
p3081
g84
sS'05146'
p3082
g84
sS'05145'
p3083
g84
sS'05144'
p3084
g84
sS'05143'
p3085
g84
sS'05142'
p3086
g84
sS'05141'
p3087
g84
sS'05140'
p3088
g84
sS'04548'
p3089
g252
sS'04549'
p3090
g252
sS'09318'
p3091
g254
sS'09319'
p3092
g254
sS'09316'
p3093
g254
sS'09317'
p3094
g254
sS'09314'
p3095
g254
sS'09315'
p3096
g254
sS'04544'
p3097
g252
sS'09313'
p3098
g254
sS'09310'
p3099
g254
sS'09311'
p3100
g254
sS'23598'
p3101
g116
sS'23599'
p3102
g116
sS'18408'
p3103
g54
sS'11939'
p3104
g16
sS'11938'
p3105
g16
sS'11937'
p3106
g16
sS'11936'
p3107
g16
sS'11935'
p3108
g16
sS'11934'
p3109
g16
sS'11933'
p3110
g16
sS'11932'
p3111
g16
sS'11931'
p3112
g16
sS'11930'
p3113
g16
sS'10228'
p3114
g170
sS'10229'
p3115
g170
sS'10224'
p3116
g170
sS'10225'
p3117
g170
sS'10226'
p3118
g170
sS'10227'
p3119
g170
sS'10220'
p3120
g170
sS'10221'
p3121
g170
sS'10222'
p3122
g170
sS'10223'
p3123
g170
sS'21516'
p3124
g13
sS'21517'
p3125
g13
sS'21514'
p3126
g13
sS'21515'
p3127
g13
sS'21512'
p3128
g13
sS'21513'
p3129
g13
sS'21510'
p3130
g13
sS'21511'
p3131
g13
sS'21518'
p3132
g13
sS'21519'
p3133
g13
sS'03019'
p3134
g152
sS'03013'
p3135
g152
sS'03012'
p3136
g152
sS'03011'
p3137
g152
sS'03010'
p3138
g152
sS'03017'
p3139
g152
sS'03016'
p3140
g152
sS'03015'
p3141
g152
sS'03014'
p3142
g152
sS'18642'
p3143
g54
sS'03274'
p3144
g152
sS'03279'
p3145
g152
sS'03278'
p3146
g152
sS'14548'
p3147
g106
sS'28269'
p3148
g54
sS'28268'
p3149
g54
sS'11061'
p3150
g16
sS'11060'
p3151
g16
sS'11063'
p3152
g16
sS'11062'
p3153
g16
sS'14545'
p3154
g106
sS'14544'
p3155
g106
sS'28261'
p3156
g54
sS'28260'
p3157
g54
sS'13791'
p3158
g116
sS'13795'
p3159
g116
sS'13797'
p3160
g116
sS'13796'
p3161
g116
sS'13799'
p3162
g116
sS'13798'
p3163
g116
sS'11322'
p3164
g16
sS'11323'
p3165
g16
sS'11326'
p3166
g16
sS'11327'
p3167
g16
sS'11324'
p3168
g16
sS'11329'
p3169
g16
sS'19139'
p3170
g11
sS'19138'
p3171
g11
sS'19137'
p3172
g11
sS'19136'
p3173
g11
sS'19135'
p3174
g11
sS'19134'
p3175
g11
sS'19132'
p3176
g11
sS'19130'
p3177
g11
sS'02050'
p3178
g416
sS'02051'
p3179
g416
sS'02052'
p3180
g416
sS'02053'
p3181
g416
sS'02054'
p3182
g416
sS'02055'
p3183
g416
sS'23350'
p3184
g116
sS'23351'
p3185
g116
sS'11490'
p3186
g16
sS'11491'
p3187
g16
sS'11492'
p3188
g16
sS'11493'
p3189
g16
sS'11495'
p3190
g16
sS'11496'
p3191
g16
sS'11497'
p3192
g16
sS'08143'
p3193
g118
sS'08144'
p3194
g118
sS'08145'
p3195
g118
sS'06999'
p3196
g23
sS'06998'
p3197
g23
sS'06995'
p3198
g23
sS'06994'
p3199
g23
sS'06997'
p3200
g23
sS'06996'
p3201
g23
sS'06991'
p3202
g23
sS'06990'
p3203
g23
sS'06992'
p3204
g23
sS'16565'
p3205
g43
sS'03156'
p3206
g152
sS'16561'
p3207
g43
sS'16560'
p3208
g43
sS'03157'
p3209
g152
sS'06195'
p3210
g23
sS'06194'
p3211
g23
sS'06190'
p3212
g23
sS'06193'
p3213
g23
sS'06192'
p3214
g23
sS'12536'
p3215
g63
sS'12537'
p3216
g63
sS'19868'
p3217
g11
sS'21078'
p3218
g13
sS'19860'
p3219
g11
sS'16302'
p3220
g43
sS'19867'
p3221
g11
sS'19866'
p3222
g11
sS'06223'
p3223
g23
sS'06222'
p3224
g23
sS'06221'
p3225
g23
sS'06220'
p3226
g23
sS'06226'
p3227
g23
sS'06225'
p3228
g23
sS'06224'
p3229
g23
sS'06229'
p3230
g23
sS'06228'
p3231
g23
sS'05088'
p3232
g84
sS'05089'
p3233
g84
sS'12538'
p3234
g63
sS'05082'
p3235
g84
sS'05083'
p3236
g84
sS'05080'
p3237
g84
sS'05081'
p3238
g84
sS'05086'
p3239
g84
sS'05087'
p3240
g84
sS'05084'
p3241
g84
sS'05085'
p3242
g84
sS'09411'
p3243
g254
sS'09410'
p3244
g254
sS'09413'
p3245
g254
sS'09412'
p3246
g254
sS'09415'
p3247
g254
sS'09414'
p3248
g254
sS'09416'
p3249
g254
sS'03868'
p3250
g152
sS'03869'
p3251
g152
sS'28337'
p3252
g54
sS'03860'
p3253
g152
sS'03861'
p3254
g152
sS'03867'
p3255
g152
sS'03864'
p3256
g152
sS'14044'
p3257
g106
sS'14045'
p3258
g106
sS'05332'
p3259
g84
sS'14047'
p3260
g106
sS'05334'
p3261
g84
sS'05335'
p3262
g84
sS'05336'
p3263
g84
sS'05337'
p3264
g84
sS'05338'
p3265
g84
sS'05339'
p3266
g84
sS'14048'
p3267
g106
sS'14049'
p3268
g106
sS'13232'
p3269
g116
sS'13231'
p3270
g116
sS'13236'
p3271
g116
sS'13235'
p3272
g116
sS'14220'
p3273
g106
sS'14221'
p3274
g106
sS'14222'
p3275
g106
sS'14223'
p3276
g106
sS'14224'
p3277
g106
sS'17173'
p3278
g70
sS'14226'
p3279
g106
sS'14227'
p3280
g106
sS'18215'
p3281
g54
sS'18214'
p3282
g54
sS'18217'
p3283
g54
sS'17172'
p3284
g70
sS'18211'
p3285
g54
sS'18210'
p3286
g54
sS'18213'
p3287
g54
sS'18212'
p3288
g54
sS'04687'
p3289
g252
sS'04686'
p3290
g252
sS'04685'
p3291
g252
sS'04684'
p3292
g252
sS'04683'
p3293
g252
sS'04689'
p3294
g252
sS'04688'
p3295
g252
sS'20038'
p3296
g462
sS'20032'
p3297
g462
sS'17179'
p3298
g70
sS'20030'
p3299
g462
sS'20031'
p3300
g462
sS'20036'
p3301
g462
sS'20037'
p3302
g462
sS'20034'
p3303
g462
sS'17178'
p3304
g70
sS'08231'
p3305
g118
sS'08236'
p3306
g118
sS'36629'
p3307
g952
sS'36624'
p3308
g952
sS'36625'
p3309
g952
sS'36626'
p3310
g952
sS'08239'
p3311
g118
sS'36620'
p3312
g952
sS'36621'
p3313
g952
sS'36622'
p3314
g952
sS'36623'
p3315
g952
sS'07019'
p3316
g565
sS'07018'
p3317
g565
sS'07016'
p3318
g565
sS'07015'
p3319
g565
sS'07014'
p3320
g565
sS'07013'
p3321
g565
sS'07011'
p3322
g565
sS'07010'
p3323
g565
sS'04060'
p3324
g252
sS'42173'
p3325
g565
sS'07909'
p3326
g565
sS'07908'
p3327
g565
sS'23109'
p3328
g116
sS'23108'
p3329
g116
sS'07901'
p3330
g565
sS'07900'
p3331
g565
sS'23101'
p3332
g116
sS'23100'
p3333
g116
sS'07905'
p3334
g565
sS'21480'
p3335
g13
sS'07907'
p3336
g565
sS'07906'
p3337
g565
sS'16090'
p3338
g43
sS'35178'
p3339
g2
sS'16094'
p3340
g43
sS'35174'
p3341
g2
sS'35177'
p3342
g2
sS'35176'
p3343
g2
sS'35172'
p3344
g2
sS'06509'
p3345
g23
sS'06502'
p3346
g23
sS'06503'
p3347
g23
sS'06504'
p3348
g23
sS'06505'
p3349
g23
sS'28106'
p3350
g54
sS'28107'
p3351
g54
sS'28104'
p3352
g54
sS'28105'
p3353
g54
sS'28102'
p3354
g54
sS'28103'
p3355
g54
sS'28100'
p3356
g54
sS'28101'
p3357
g54
sS'28108'
p3358
g54
sS'28109'
p3359
g54
sS'43570'
p3360
g118
sS'43572'
p3361
g32
sS'16172'
p3362
g43
sS'16173'
p3363
g43
sS'19302'
p3364
g11
sS'16171'
p3365
g43
sS'19304'
p3366
g11
sS'16174'
p3367
g43
sS'19307'
p3368
g11
sS'19308'
p3369
g11
sS'19309'
p3370
g11
sS'17229'
p3371
g70
sS'17228'
p3372
g70
sS'17225'
p3373
g70
sS'17224'
p3374
g70
sS'17227'
p3375
g70
sS'17226'
p3376
g70
sS'17221'
p3377
g70
sS'17220'
p3378
g70
sS'17223'
p3379
g70
sS'17222'
p3380
g70
sS'13428'
p3381
g116
sS'13426'
p3382
g116
sS'13425'
p3383
g116
sS'13424'
p3384
g116
sS'13423'
p3385
g116
sS'13422'
p3386
g116
sS'13421'
p3387
g116
sS'13420'
p3388
g116
sS'11683'
p3389
g16
sS'20629'
p3390
g462
sS'20628'
p3391
g462
sS'20624'
p3392
g462
sS'20623'
p3393
g462
sS'20622'
p3394
g462
sS'12086'
p3395
g63
sS'12087'
p3396
g63
sS'12084'
p3397
g63
sS'12085'
p3398
g63
sS'42227'
p3399
g11
sS'21406'
p3400
g13
sS'12088'
p3401
g63
sS'21407'
p3402
g13
sS'20481'
p3403
g462
sS'10028'
p3404
g170
sS'10029'
p3405
g170
sS'10026'
p3406
g170
sS'10027'
p3407
g170
sS'10024'
p3408
g170
sS'10025'
p3409
g170
sS'10022'
p3410
g170
sS'10023'
p3411
g170
sS'12738'
p3412
g63
sS'10021'
p3413
g170
sS'09207'
p3414
g254
sS'09334'
p3415
g254
sS'23638'
p3416
g116
sS'08575'
p3417
g118
sS'03070'
p3418
g152
sS'08577'
p3419
g118
sS'08576'
p3420
g118
sS'08571'
p3421
g118
sS'08573'
p3422
g118
sS'03076'
p3423
g152
sS'03079'
p3424
g152
sS'08579'
p3425
g118
sS'08578'
p3426
g118
sS'23637'
p3427
g116
sS'23188'
p3428
g116
sS'03298'
p3429
g152
sS'03297'
p3430
g152
sS'03296'
p3431
g152
sS'03290'
p3432
g152
sS'03293'
p3433
g152
sS'11047'
p3434
g16
sS'11046'
p3435
g16
sS'11045'
p3436
g16
sS'11044'
p3437
g16
sS'11043'
p3438
g16
sS'18023'
p3439
g54
sS'11040'
p3440
g16
sS'11049'
p3441
g16
sS'11048'
p3442
g16
sS'11308'
p3443
g16
sS'23591'
p3444
g116
sS'23592'
p3445
g116
sS'23593'
p3446
g116
sS'23594'
p3447
g116
sS'23595'
p3448
g116
sS'23596'
p3449
g116
sS'23597'
p3450
g116
sS'11300'
p3451
g16
sS'11301'
p3452
g16
sS'11302'
p3453
g16
sS'11303'
p3454
g16
sS'11304'
p3455
g16
sS'11305'
p3456
g16
sS'11306'
p3457
g16
sS'32002'
p3458
g140
sS'14188'
p3459
g106
sS'20635'
p3460
g462
sS'23378'
p3461
g116
sS'23379'
p3462
g116
sS'23374'
p3463
g116
sS'23375'
p3464
g116
sS'23376'
p3465
g116
sS'23377'
p3466
g116
sS'23370'
p3467
g116
sS'23371'
p3468
g116
sS'23372'
p3469
g116
sS'23373'
p3470
g116
sS'15216'
p3471
g491
sS'15217'
p3472
g491
sS'15214'
p3473
g491
sS'15215'
p3474
g491
sS'15212'
p3475
g491
sS'15213'
p3476
g491
sS'15210'
p3477
g491
sS'15211'
p3478
g491
sS'15218'
p3479
g491
sS'12539'
p3480
g63
sS'16099'
p3481
g43
sS'16098'
p3482
g43
sS'16549'
p3483
g43
sS'16548'
p3484
g43
sS'14187'
p3485
g106
sS'16091'
p3486
g43
sS'16542'
p3487
g43
sS'16093'
p3488
g43
sS'16092'
p3489
g43
sS'16095'
p3490
g43
sS'16546'
p3491
g43
sS'16097'
p3492
g43
sS'16096'
p3493
g43
sS'12652'
p3494
g63
sS'10879'
p3495
g170
sS'10878'
p3496
g170
sS'10871'
p3497
g170
sS'10870'
p3498
g170
sS'10873'
p3499
g170
sS'10872'
p3500
g170
sS'10875'
p3501
g170
sS'10874'
p3502
g170
sS'10877'
p3503
g170
sS'10876'
p3504
g170
sS'16326'
p3505
g43
sS'16325'
p3506
g43
sS'16323'
p3507
g43
sS'16320'
p3508
g43
sS'16328'
p3509
g43
sS'21059'
p3510
g13
sS'06249'
p3511
g23
sS'06248'
p3512
g23
sS'03846'
p3513
g152
sS'23458'
p3514
g116
sS'06241'
p3515
g23
sS'06240'
p3516
g23
sS'06243'
p3517
g23
sS'06242'
p3518
g23
sS'06245'
p3519
g23
sS'06244'
p3520
g23
sS'06246'
p3521
g23
sS'03849'
p3522
g152
sS'21237'
p3523
g13
sS'21235'
p3524
g13
sS'21234'
p3525
g13
sS'21233'
p3526
g13
sS'21232'
p3527
g13
sS'21230'
p3528
g13
sS'21239'
p3529
g13
sS'21238'
p3530
g13
sS'03840'
p3531
g152
sS'03841'
p3532
g152
sS'03842'
p3533
g152
sS'03843'
p3534
g152
sS'03844'
p3535
g152
sS'03845'
p3536
g152
sS'09439'
p3537
g254
sS'09438'
p3538
g254
sS'09437'
p3539
g254
sS'09436'
p3540
g254
sS'09435'
p3541
g254
sS'09434'
p3542
g254
sS'09433'
p3543
g254
sS'09432'
p3544
g254
sS'09431'
p3545
g254
sS'09430'
p3546
g254
sS'14022'
p3547
g106
sS'14021'
p3548
g106
sS'14026'
p3549
g106
sS'14027'
p3550
g106
sS'14024'
p3551
g106
sS'14025'
p3552
g106
sS'14028'
p3553
g106
sS'14029'
p3554
g106
sS'17056'
p3555
g70
sS'01199'
p3556
g94
sS'17054'
p3557
g70
sS'17055'
p3558
g70
sS'17052'
p3559
g70
sS'17053'
p3560
g70
sS'17050'
p3561
g70
sS'17051'
p3562
g70
sS'01190'
p3563
g94
sS'01191'
p3564
g94
sS'01192'
p3565
g94
sS'01193'
p3566
g94
sS'01194'
p3567
g94
sS'17058'
p3568
g70
sS'17059'
p3569
g70
sS'18376'
p3570
g54
sS'18377'
p3571
g54
sS'14327'
p3572
g106
sS'18375'
p3573
g54
sS'18239'
p3574
g54
sS'14323'
p3575
g106
sS'18233'
p3576
g54
sS'18232'
p3577
g54
sS'18231'
p3578
g54
sS'14450'
p3579
g106
sS'18237'
p3580
g54
sS'18236'
p3581
g54
sS'18235'
p3582
g54
sS'18234'
p3583
g54
sS'09293'
p3584
g254
sS'09292'
p3585
g254
sS'09291'
p3586
g254
sS'09290'
p3587
g254
sS'09297'
p3588
g254
sS'09296'
p3589
g254
sS'09295'
p3590
g254
sS'09294'
p3591
g254
sS'04665'
p3592
g252
sS'04664'
p3593
g252
sS'04667'
p3594
g252
sS'04666'
p3595
g252
sS'04661'
p3596
g252
sS'04660'
p3597
g252
sS'04663'
p3598
g252
sS'04662'
p3599
g252
sS'08218'
p3600
g118
sS'44158'
p3601
g11
sS'08210'
p3602
g118
sS'08211'
p3603
g118
sS'08214'
p3604
g118
sS'08215'
p3605
g118
sS'08216'
p3606
g118
sS'04001'
p3607
g252
sS'04002'
p3608
g252
sS'17057'
p3609
g70
sS'06740'
p3610
g23
sS'06742'
p3611
g23
sS'06748'
p3612
g23
sS'06749'
p3613
g23
sS'07927'
p3614
g565
sS'07926'
p3615
g565
sS'07925'
p3616
g565
sS'07924'
p3617
g565
sS'07923'
p3618
g565
sS'07922'
p3619
g565
sS'07921'
p3620
g565
sS'07920'
p3621
g565
sS'23169'
p3622
g116
sS'23168'
p3623
g116
sS'07929'
p3624
g565
sS'07928'
p3625
g565
sS'06528'
p3626
g23
sS'06529'
p3627
g23
sS'35058'
p3628
g2
sS'35059'
p3629
g2
sS'31005'
p3630
g16
sS'28128'
p3631
g54
sS'28129'
p3632
g54
sS'35057'
p3633
g2
sS'28124'
p3634
g54
sS'28125'
p3635
g54
sS'28126'
p3636
g54
sS'28127'
p3637
g54
sS'28120'
p3638
g54
sS'28121'
p3639
g54
sS'28122'
p3640
g54
sS'28123'
p3641
g54
sS'31006'
p3642
g16
sS'31001'
p3643
g16
sS'35053'
p3644
g2
sS'35050'
p3645
g2
sS'31002'
p3646
g16
sS'11519'
p3647
g16
sS'11518'
p3648
g16
sS'11514'
p3649
g16
sS'11517'
p3650
g16
sS'11516'
p3651
g16
sS'11510'
p3652
g16
sS'11512'
p3653
g16
sS'16158'
p3654
g43
sS'16159'
p3655
g43
sS'18539'
p3656
g54
sS'16150'
p3657
g43
sS'16155'
p3658
g43
sS'16156'
p3659
g43
sS'16157'
p3660
g43
sS'17209'
p3661
g70
sS'17208'
p3662
g70
sS'17203'
p3663
g70
sS'17202'
p3664
g70
sS'17201'
p3665
g70
sS'17200'
p3666
g70
sS'17207'
p3667
g70
sS'17206'
p3668
g70
sS'17205'
p3669
g70
sS'17204'
p3670
g70
sS'25039'
p3671
g32
sS'25038'
p3672
g32
sS'25035'
p3673
g32
sS'25034'
p3674
g32
sS'25037'
p3675
g32
sS'25036'
p3676
g32
sS'25031'
p3677
g32
sS'25030'
p3678
g32
sS'25033'
p3679
g32
sS'25032'
p3680
g32
sS'18230'
p3681
g54
sS'20010'
p3682
g462
sS'20011'
p3683
g462
sS'20012'
p3684
g462
sS'20013'
p3685
g462
sS'04669'
p3686
g252
sS'04668'
p3687
g252
sS'10004'
p3688
g170
sS'10005'
p3689
g170
sS'10006'
p3690
g170
sS'10007'
p3691
g170
sS'10000'
p3692
g170
sS'10001'
p3693
g170
sS'10002'
p3694
g170
sS'10003'
p3695
g170
sS'20017'
p3696
g462
sS'10008'
p3697
g170
sS'10009'
p3698
g170
sS'20018'
p3699
g462
sS'20019'
p3700
g462
sS'09299'
p3701
g254
sS'28087'
p3702
g54
sS'09298'
p3703
g254
sS'28086'
p3704
g54
sS'28085'
p3705
g54
sS'28084'
p3706
g54
sS'28083'
p3707
g54
sS'28082'
p3708
g54
sS'28081'
p3709
g54
sS'28080'
p3710
g54
sS'05277'
p3711
g84
sS'16042'
p3712
g43
sS'09352'
p3713
g254
sS'09353'
p3714
g254
sS'09351'
p3715
g254
sS'09357'
p3716
g254
sS'09354'
p3717
g254
sS'16043'
p3718
g43
sS'18453'
p3719
g54
sS'08553'
p3720
g118
sS'18532'
p3721
g54
sS'08550'
p3722
g118
sS'03059'
p3723
g152
sS'08554'
p3724
g118
sS'08005'
p3725
g118
sS'03055'
p3726
g152
sS'03054'
p3727
g152
sS'08001'
p3728
g118
sS'03052'
p3729
g152
sS'03051'
p3730
g152
sS'03050'
p3731
g152
sS'23134'
p3732
g116
sS'13001'
p3733
g116
sS'13000'
p3734
g116
sS'13002'
p3735
g116
sS'18451'
p3736
g54
sS'18009'
p3737
g54
sS'18450'
p3738
g54
sS'18005'
p3739
g54
sS'18006'
p3740
g54
sS'18007'
p3741
g54
sS'18001'
p3742
g54
sS'18002'
p3743
g54
sS'18003'
p3744
g54
sS'23133'
p3745
g116
sS'22948'
p3746
g140
sS'23578'
p3747
g116
sS'23579'
p3748
g116
sS'23576'
p3749
g116
sS'08562'
p3750
g118
sS'23574'
p3751
g116
sS'23575'
p3752
g116
sS'23572'
p3753
g116
sS'23573'
p3754
g116
sS'23570'
p3755
g116
sS'23571'
p3756
g116
sS'15186'
p3757
g491
sS'15187'
p3758
g491
sS'15184'
p3759
g491
sS'15185'
p3760
g491
sS'15182'
p3761
g491
sS'15183'
p3762
g491
sS'15180'
p3763
g491
sS'15181'
p3764
g491
sS'22949'
p3765
g140
sS'15188'
p3766
g491
sS'15189'
p3767
g491
sS'23318'
p3768
g116
sS'23319'
p3769
g116
sS'23312'
p3770
g116
sS'23313'
p3771
g116
sS'23310'
p3772
g116
sS'23311'
p3773
g116
sS'23316'
p3774
g116
sS'23317'
p3775
g116
sS'23314'
p3776
g116
sS'23315'
p3777
g116
sS'42040'
p3778
g11
sS'15238'
p3779
g491
sS'15239'
p3780
g491
sS'15234'
p3781
g491
sS'15235'
p3782
g491
sS'15236'
p3783
g491
sS'15237'
p3784
g491
sS'15230'
p3785
g491
sS'15231'
p3786
g491
sS'15232'
p3787
g491
sS'15233'
p3788
g491
sS'16521'
p3789
g43
sS'16523'
p3790
g43
sS'16522'
p3791
g43
sS'16525'
p3792
g43
sS'16524'
p3793
g43
sS'16527'
p3794
g43
sS'16526'
p3795
g43
sS'16529'
p3796
g43
sS'16528'
p3797
g43
sS'12632'
p3798
g63
sS'12635'
p3799
g63
sS'12637'
p3800
g63
sS'12638'
p3801
g63
sS'21355'
p3802
g13
sS'10857'
p3803
g170
sS'10856'
p3804
g170
sS'10855'
p3805
g170
sS'10854'
p3806
g170
sS'10853'
p3807
g170
sS'10852'
p3808
g170
sS'10851'
p3809
g170
sS'21357'
p3810
g13
sS'10859'
p3811
g170
sS'10858'
p3812
g170
sS'05125'
p3813
g84
sS'05656'
p3814
g84
sS'35155'
p3815
g2
sS'05127'
p3816
g84
sS'21033'
p3817
g13
sS'05654'
p3818
g84
sS'21034'
p3819
g13
sS'05653'
p3820
g84
sS'05652'
p3821
g84
sS'06264'
p3822
g23
sS'05123'
p3823
g84
sS'05122'
p3824
g84
sS'43382'
p3825
g254
sS'43387'
p3826
g16
sS'43384'
p3827
g565
sS'43432'
p3828
g152
sS'05048'
p3829
g84
sS'05049'
p3830
g84
sS'05046'
p3831
g84
sS'05047'
p3832
g84
sS'05044'
p3833
g84
sS'05045'
p3834
g84
sS'05042'
p3835
g84
sS'05043'
p3836
g84
sS'05040'
p3837
g84
sS'05041'
p3838
g84
sS'11726'
p3839
g16
sS'11727'
p3840
g16
sS'11724'
p3841
g16
sS'11725'
p3842
g16
sS'11722'
p3843
g16
sS'11723'
p3844
g16
sS'11720'
p3845
g16
sS'11721'
p3846
g16
sS'35056'
p3847
g2
sS'11728'
p3848
g16
sS'11729'
p3849
g16
sS'14009'
p3850
g106
sS'14003'
p3851
g106
sS'14004'
p3852
g106
sS'14005'
p3853
g106
sS'14006'
p3854
g106
sS'14007'
p3855
g106
sS'17078'
p3856
g70
sS'17079'
p3857
g70
sS'17074'
p3858
g70
sS'17075'
p3859
g70
sS'17076'
p3860
g70
sS'17077'
p3861
g70
sS'17070'
p3862
g70
sS'17071'
p3863
g70
sS'17072'
p3864
g70
sS'17073'
p3865
g70
sS'36404'
p3866
g952
sS'36405'
p3867
g952
sS'36406'
p3868
g952
sS'36407'
p3869
g952
sS'36401'
p3870
g952
sS'36403'
p3871
g952
sS'36408'
p3872
g952
sS'36409'
p3873
g952
sS'35054'
p3874
g2
sS'04649'
p3875
g252
sS'04648'
p3876
g252
sS'35055'
p3877
g2
sS'04643'
p3878
g252
sS'04642'
p3879
g252
sS'04641'
p3880
g252
sS'04640'
p3881
g252
sS'04646'
p3882
g252
sS'04645'
p3883
g252
sS'04644'
p3884
g252
sS'35052'
p3885
g2
sS'09015'
p3886
g254
sS'09014'
p3887
g254
sS'09017'
p3888
g254
sS'09016'
p3889
g254
sS'09011'
p3890
g254
sS'09010'
p3891
g254
sS'09013'
p3892
g254
sS'09012'
p3893
g254
sS'09019'
p3894
g254
sS'09018'
p3895
g254
sS'04029'
p3896
g252
sS'04028'
p3897
g252
sS'08493'
p3898
g118
sS'08491'
p3899
g118
sS'08494'
p3900
g118
sS'08495'
p3901
g118
sS'18011'
p3902
g54
sS'21440'
p3903
g13
sS'18251'
p3904
g54
sS'18250'
p3905
g54
sS'18253'
p3906
g54
sS'18010'
p3907
g54
sS'18255'
p3908
g54
sS'18254'
p3909
g54
sS'18256'
p3910
g54
sS'18259'
p3911
g54
sS'18017'
p3912
g54
sS'18015'
p3913
g54
sS'18014'
p3914
g54
sS'21441'
p3915
g13
sS'35051'
p3916
g2
sS'21393'
p3917
g13
sS'21442'
p3918
g13
sS'18310'
p3919
g54
sS'11954'
p3920
g16
sS'14125'
p3921
g106
sS'06720'
p3922
g23
sS'11956'
p3923
g16
sS'06726'
p3924
g23
sS'06725'
p3925
g23
sS'18216'
p3926
g54
sS'06728'
p3927
g23
sS'06729'
p3928
g23
sS'11950'
p3929
g16
sS'19025'
p3930
g11
sS'11953'
p3931
g16
sS'19024'
p3932
g32
sS'11952'
p3933
g16
sS'19027'
p3934
g32
sS'19026'
p3935
g32
sS'19021'
p3936
g32
sS'16032'
p3937
g43
sS'23149'
p3938
g116
sS'23148'
p3939
g116
sS'23147'
p3940
g116
sS'23146'
p3941
g116
sS'23145'
p3942
g116
sS'19022'
p3943
g32
sS'23143'
p3944
g116
sS'23142'
p3945
g116
sS'23141'
p3946
g116
sS'23140'
p3947
g116
sS'21445'
p3948
g13
sS'19244'
p3949
g11
sS'06091'
p3950
g23
sS'06094'
p3951
g23
sS'19247'
p3952
g11
sS'06097'
p3953
g23
sS'19246'
p3954
g11
sS'19241'
p3955
g11
sS'19240'
p3956
g11
sS'19243'
p3957
g11
sS'28148'
p3958
g54
sS'28149'
p3959
g54
sS'28142'
p3960
g54
sS'28143'
p3961
g54
sS'28140'
p3962
g54
sS'28141'
p3963
g54
sS'28146'
p3964
g54
sS'28147'
p3965
g54
sS'28144'
p3966
g54
sS'28145'
p3967
g54
sS'18418'
p3968
g54
sS'11533'
p3969
g16
sS'11531'
p3970
g16
sS'11530'
p3971
g16
sS'11537'
p3972
g16
sS'18317'
p3973
g54
sS'25018'
p3974
g32
sS'25013'
p3975
g32
sS'25012'
p3976
g32
sS'25010'
p3977
g32
sS'25017'
p3978
g32
sS'25016'
p3979
g32
sS'25015'
p3980
g32
sS'25014'
p3981
g32
sS'42267'
p3982
g152
sS'42266'
p3983
g152
sS'42265'
p3984
g118
sS'21063'
p3985
g13
sS'42261'
p3986
g118
sS'17261'
p3987
g70
sS'17260'
p3988
g70
sS'17263'
p3989
g70
sS'17262'
p3990
g70
sS'17265'
p3991
g70
sS'17264'
p3992
g70
sS'17267'
p3993
g70
sS'17269'
p3994
g70
sS'17268'
p3995
g70
sS'36036'
p3996
g952
sS'10062'
p3997
g170
sS'10063'
p3998
g170
sS'10060'
p3999
g170
sS'10061'
p4000
g170
sS'10066'
p4001
g170
sS'10067'
p4002
g170
sS'10064'
p4003
g170
sS'10065'
p4004
g170
sS'10068'
p4005
g170
sS'10069'
p4006
g170
sS'21061'
p4007
g13
sS'05709'
p4008
g84
sS'05708'
p4009
g84
sS'05705'
p4010
g84
sS'05704'
p4011
g84
sS'05707'
p4012
g84
sS'05706'
p4013
g84
sS'05701'
p4014
g84
sS'05700'
p4015
g84
sS'05703'
p4016
g84
sS'05702'
p4017
g84
sS'01019'
p4018
g94
sS'01018'
p4019
g94
sS'01015'
p4020
g94
sS'01014'
p4021
g94
sS'01017'
p4022
g94
sS'01016'
p4023
g94
sS'01011'
p4024
g94
sS'01010'
p4025
g94
sS'01013'
p4026
g94
sS'01012'
p4027
g94
sS'13395'
p4028
g116
sS'09379'
p4029
g254
sS'13396'
p4030
g116
sS'13391'
p4031
g116
sS'13390'
p4032
g116
sS'13393'
p4033
g116
sS'13392'
p4034
g116
sS'09370'
p4035
g254
sS'09374'
p4036
g254
sS'13398'
p4037
g116
sS'08539'
p4038
g118
sS'08538'
p4039
g118
sS'08029'
p4040
g118
sS'08028'
p4041
g118
sS'08531'
p4042
g118
sS'08020'
p4043
g118
sS'08025'
p4044
g118
sS'03704'
p4045
g152
sS'11881'
p4046
g16
sS'11880'
p4047
g16
sS'14619'
p4048
g106
sS'11886'
p4049
g16
sS'11885'
p4050
g16
sS'11884'
p4051
g16
sS'14615'
p4052
g106
sS'14614'
p4053
g106
sS'11889'
p4054
g16
sS'14616'
p4055
g106
sS'14611'
p4056
g106
sS'14610'
p4057
g106
sS'14613'
p4058
g106
sS'14612'
p4059
g106
sS'23161'
p4060
g116
sS'23160'
p4061
g116
sS'23163'
p4062
g116
sS'13023'
p4063
g116
sS'13020'
p4064
g116
sS'23165'
p4065
g116
sS'23164'
p4066
g116
sS'23167'
p4067
g116
sS'23166'
p4068
g116
sS'33869'
p4069
g152
sS'33868'
p4070
g152
sS'11089'
p4071
g16
sS'11088'
p4072
g16
sS'11082'
p4073
g16
sS'11081'
p4074
g16
sS'11080'
p4075
g16
sS'11087'
p4076
g16
sS'11086'
p4077
g16
sS'18064'
p4078
g54
sS'11084'
p4079
g16
sS'23554'
p4080
g116
sS'23557'
p4081
g116
sS'23552'
p4082
g116
sS'23558'
p4083
g116
sS'23559'
p4084
g116
sS'23088'
p4085
g116
sS'23089'
p4086
g116
sS'23082'
p4087
g116
sS'23083'
p4088
g116
sS'23080'
p4089
g116
sS'23081'
p4090
g116
sS'23086'
p4091
g116
sS'23087'
p4092
g116
sS'23084'
p4093
g116
sS'23085'
p4094
g116
sS'23330'
p4095
g116
sS'23331'
p4096
g116
sS'23332'
p4097
g116
sS'23333'
p4098
g116
sS'23334'
p4099
g116
sS'23335'
p4100
g116
sS'23336'
p4101
g116
sS'23337'
p4102
g116
sS'23338'
p4103
g116
sS'23339'
p4104
g116
sS'15252'
p4105
g491
sS'15253'
p4106
g491
sS'15250'
p4107
g491
sS'15251'
p4108
g491
sS'19083'
p4109
g11
sS'19081'
p4110
g11
sS'19080'
p4111
g11
sS'16059'
p4112
g43
sS'16058'
p4113
g43
sS'16509'
p4114
g43
sS'16508'
p4115
g43
sS'16507'
p4116
g43
sS'16506'
p4117
g43
sS'16505'
p4118
g43
sS'16504'
p4119
g43
sS'16051'
p4120
g43
sS'16502'
p4121
g43
sS'16053'
p4122
g43
sS'16500'
p4123
g43
sS'27027'
p4124
g23
sS'03165'
p4125
g152
sS'21018'
p4126
g13
sS'19883'
p4127
g11
sS'19882'
p4128
g11
sS'19881'
p4129
g11
sS'19880'
p4130
g11
sS'19887'
p4131
g11
sS'19886'
p4132
g11
sS'21011'
p4133
g13
sS'19884'
p4134
g11
sS'06285'
p4135
g23
sS'18284'
p4136
g54
sS'18282'
p4137
g54
sS'43410'
p4138
g43
sS'43417'
p4139
g152
sS'18283'
p4140
g54
sS'18280'
p4141
g54
sS'18281'
p4142
g54
sS'11709'
p4143
g16
sS'11705'
p4144
g16
sS'11707'
p4145
g16
sS'11700'
p4146
g16
sS'11701'
p4147
g16
sS'11702'
p4148
g16
sS'11703'
p4149
g16
sS'17018'
p4150
g70
sS'17019'
p4151
g70
sS'17012'
p4152
g70
sS'17013'
p4153
g70
sS'17010'
p4154
g70
sS'17011'
p4155
g70
sS'17016'
p4156
g70
sS'17017'
p4157
g70
sS'17014'
p4158
g70
sS'17015'
p4159
g70
sS'17166'
p4160
g70
sS'17167'
p4161
g70
sS'05064'
p4162
g84
sS'05065'
p4163
g84
sS'05066'
p4164
g84
sS'05067'
p4165
g84
sS'05060'
p4166
g84
sS'05061'
p4167
g84
sS'05062'
p4168
g84
sS'05063'
p4169
g84
sS'05068'
p4170
g84
sS'05069'
p4171
g84
sS'04620'
p4172
g252
sS'04624'
p4173
g252
sS'04627'
p4174
g252
sS'04626'
p4175
g252
sS'04629'
p4176
g252
sS'04628'
p4177
g252
sS'08702'
p4178
g118
sS'08703'
p4179
g118
sS'08700'
p4180
g118
sS'08701'
p4181
g118
sS'08706'
p4182
g118
sS'08707'
p4183
g118
sS'08704'
p4184
g118
sS'08705'
p4185
g118
sS'08708'
p4186
g118
sS'08709'
p4187
g118
sS'17169'
p4188
g70
sS'09033'
p4189
g254
sS'09032'
p4190
g254
sS'09031'
p4191
g254
sS'09030'
p4192
g254
sS'09037'
p4193
g254
sS'09036'
p4194
g254
sS'09035'
p4195
g254
sS'09034'
p4196
g254
sS'09039'
p4197
g254
sS'09038'
p4198
g254
sS'14282'
p4199
g106
sS'14280'
p4200
g106
sS'14281'
p4201
g106
sS'14286'
p4202
g106
sS'14287'
p4203
g106
sS'14284'
p4204
g106
sS'14285'
p4205
g106
sS'18277'
p4206
g54
sS'14288'
p4207
g106
sS'18274'
p4208
g54
sS'18273'
p4209
g54
sS'18272'
p4210
g54
sS'18271'
p4211
g54
sS'18270'
p4212
g54
sS'15089'
p4213
g491
sS'15088'
p4214
g491
sS'15087'
p4215
g491
sS'15086'
p4216
g491
sS'15085'
p4217
g491
sS'15084'
p4218
g491
sS'15083'
p4219
g491
sS'15082'
p4220
g491
sS'15081'
p4221
g491
sS'15080'
p4222
g491
sS'35168'
p4223
g2
sS'35169'
p4224
g2
sS'01226'
p4225
g94
sS'01227'
p4226
g94
sS'01224'
p4227
g94
sS'01225'
p4228
g94
sS'01222'
p4229
g94
sS'01223'
p4230
g94
sS'01220'
p4231
g94
sS'01221'
p4232
g94
sS'35164'
p4233
g2
sS'01228'
p4234
g94
sS'01229'
p4235
g94
sS'35165'
p4236
g2
sS'06700'
p4237
g23
sS'35162'
p4238
g2
sS'35160'
p4239
g2
sS'35161'
p4240
g2
sS'14426'
p4241
g106
sS'14427'
p4242
g106
sS'14424'
p4243
g106
sS'14425'
p4244
g106
sS'14422'
p4245
g106
sS'11143'
p4246
g16
sS'28302'
p4247
g54
sS'14421'
p4248
g106
sS'18021'
p4249
g54
sS'28308'
p4250
g54
sS'28309'
p4251
g54
sS'14428'
p4252
g106
sS'14429'
p4253
g106
sS'35089'
p4254
g2
sS'18134'
p4255
g54
sS'13818'
p4256
g116
sS'13819'
p4257
g116
sS'13816'
p4258
g116
sS'13817'
p4259
g116
sS'13814'
p4260
g116
sS'13815'
p4261
g116
sS'13812'
p4262
g116
sS'13813'
p4263
g116
sS'13810'
p4264
g116
sS'13811'
p4265
g116
sS'28160'
p4266
g54
sS'28161'
p4267
g54
sS'28162'
p4268
g54
sS'28163'
p4269
g54
sS'28164'
p4270
g54
sS'28165'
p4271
g54
sS'28167'
p4272
g54
sS'28168'
p4273
g54
sS'28169'
p4274
g54
sS'18131'
p4275
g54
sS'18562'
p4276
g54
sS'19166'
p4277
g11
sS'35225'
p4278
g2
sS'35227'
p4279
g2
sS'35226'
p4280
g2
sS'18567'
p4281
g54
sS'35229'
p4282
g2
sS'35228'
p4283
g2
sS'18566'
p4284
g54
sS'11551'
p4285
g16
sS'11553'
p4286
g16
sS'11555'
p4287
g16
sS'11557'
p4288
g16
sS'11559'
p4289
g16
sS'11946'
p4290
g16
sS'25071'
p4291
g32
sS'25070'
p4292
g32
sS'19856'
p4293
g11
sS'18436'
p4294
g54
sS'19857'
p4295
g32
sS'19858'
p4296
g11
sS'11944'
p4297
g16
sS'32026'
p4298
g140
sS'32027'
p4299
g140
sS'32024'
p4300
g140
sS'32025'
p4301
g140
sS'16262'
p4302
g43
sS'32023'
p4303
g140
sS'16260'
p4304
g43
sS'16261'
p4305
g43
sS'32028'
p4306
g140
sS'32029'
p4307
g140
sS'21471'
p4308
g13
sS'17249'
p4309
g70
sS'17248'
p4310
g70
sS'17247'
p4311
g70
sS'17246'
p4312
g70
sS'17245'
p4313
g70
sS'17244'
p4314
g70
sS'17243'
p4315
g70
sS'17242'
p4316
g70
sS'17241'
p4317
g70
sS'17240'
p4318
g70
sS'10048'
p4319
g170
sS'10049'
p4320
g170
sS'21472'
p4321
g13
sS'10040'
p4322
g170
sS'10041'
p4323
g170
sS'10042'
p4324
g170
sS'10043'
p4325
g170
sS'10044'
p4326
g170
sS'10045'
p4327
g170
sS'10046'
p4328
g170
sS'10047'
p4329
g170
sS'11943'
p4330
g16
sS'21477'
p4331
g13
sS'21476'
p4332
g13
sS'05729'
p4333
g84
sS'05728'
p4334
g84
sS'05723'
p4335
g84
sS'05722'
p4336
g84
sS'05721'
p4337
g84
sS'05720'
p4338
g84
sS'05727'
p4339
g84
sS'05726'
p4340
g84
sS'05725'
p4341
g84
sS'05236'
p4342
g84
sS'01039'
p4343
g94
sS'01038'
p4344
g94
sS'01033'
p4345
g94
sS'01032'
p4346
g94
sS'01031'
p4347
g94
sS'01030'
p4348
g94
sS'01037'
p4349
g94
sS'01036'
p4350
g94
sS'01035'
p4351
g94
sS'01034'
p4352
g94
sS'23626'
p4353
g116
sS'14639'
p4354
g106
sS'14638'
p4355
g106
sS'23627'
p4356
g116
sS'14633'
p4357
g106
sS'14632'
p4358
g106
sS'14631'
p4359
g106
sS'14630'
p4360
g106
sS'14637'
p4361
g106
sS'14636'
p4362
g106
sS'14635'
p4363
g106
sS'14634'
p4364
g106
sS'23197'
p4365
g116
sS'23622'
p4366
g116
sS'23623'
p4367
g116
sS'23620'
p4368
g116
sS'23621'
p4369
g116
sS'13047'
p4370
g116
sS'18040'
p4371
g54
sS'18041'
p4372
g54
sS'18042'
p4373
g54
sS'18043'
p4374
g54
sS'18044'
p4375
g54
sS'18045'
p4376
g54
sS'18047'
p4377
g54
sS'18048'
p4378
g54
sS'18049'
p4379
g54
sS'20004'
p4380
g462
sS'20003'
p4381
g462
sS'08513'
p4382
g118
sS'08512'
p4383
g118
sS'08511'
p4384
g118
sS'08510'
p4385
g32
sS'08049'
p4386
g118
sS'08048'
p4387
g118
sS'23533'
p4388
g116
sS'23531'
p4389
g116
sS'23536'
p4390
g116
sS'22119'
p4391
g43
sS'18185'
p4392
g54
sS'18490'
p4393
g54
sS'21224'
p4394
g13
sS'21225'
p4395
g13
sS'35194'
p4396
g2
sS'21228'
p4397
g13
sS'21229'
p4398
g13
sS'35193'
p4399
g2
sS'15270'
p4400
g491
sS'15271'
p4401
g491
sS'01243'
p4402
g94
sS'15274'
p4403
g491
sS'03185'
p4404
g152
sS'03184'
p4405
g152
sS'03187'
p4406
g152
sS'03186'
p4407
g152
sS'03181'
p4408
g152
sS'03189'
p4409
g152
sS'03188'
p4410
g152
sS'16079'
p4411
g43
sS'16078'
p4412
g43
sS'16073'
p4413
g43
sS'16072'
p4414
g43
sS'16071'
p4415
g43
sS'16070'
p4416
g43
sS'16077'
p4417
g43
sS'16076'
p4418
g43
sS'16075'
p4419
g43
sS'16074'
p4420
g43
sS'06119'
p4421
g23
sS'06118'
p4422
g23
sS'06115'
p4423
g23
sS'06114'
p4424
g23
sS'06117'
p4425
g23
sS'06116'
p4426
g23
sS'35190'
p4427
g2
sS'06112'
p4428
g23
sS'10899'
p4429
g170
sS'10898'
p4430
g170
sS'10893'
p4431
g170
sS'10892'
p4432
g170
sS'10891'
p4433
g170
sS'10890'
p4434
g170
sS'10895'
p4435
g170
sS'10894'
p4436
g170
sS'09428'
p4437
g254
sS'03712'
p4438
g152
sS'13596'
p4439
g116
sS'43476'
p4440
g43
sS'43479'
p4441
g106
sS'17388'
p4442
g70
sS'17389'
p4443
g70
sS'17382'
p4444
g70
sS'17383'
p4445
g70
sS'17380'
p4446
g70
sS'09427'
p4447
g254
sS'17386'
p4448
g70
sS'17387'
p4449
g70
sS'17384'
p4450
g70
sS'17385'
p4451
g70
sS'16381'
p4452
g43
sS'11768'
p4453
g16
sS'11769'
p4454
g16
sS'16384'
p4455
g43
sS'16386'
p4456
g43
sS'11762'
p4457
g16
sS'11763'
p4458
g16
sS'11760'
p4459
g16
sS'11761'
p4460
g16
sS'11766'
p4461
g16
sS'11767'
p4462
g16
sS'11764'
p4463
g16
sS'11765'
p4464
g16
sS'17030'
p4465
g70
sS'17031'
p4466
g70
sS'17032'
p4467
g70
sS'17033'
p4468
g70
sS'17034'
p4469
g70
sS'17035'
p4470
g70
sS'17036'
p4471
g70
sS'17037'
p4472
g70
sS'17038'
p4473
g70
sS'17039'
p4474
g70
sS'43278'
p4475
g94
sS'11120'
p4476
g16
sS'11122'
p4477
g16
sS'05002'
p4478
g84
sS'05003'
p4479
g84
sS'05000'
p4480
g84
sS'05001'
p4481
g84
sS'05006'
p4482
g84
sS'05007'
p4483
g84
sS'05004'
p4484
g84
sS'05005'
p4485
g84
sS'21299'
p4486
g13
sS'18347'
p4487
g54
sS'05008'
p4488
g84
sS'05009'
p4489
g84
sS'18346'
p4490
g54
sS'20521'
p4491
g462
sS'20522'
p4492
g462
sS'20523'
p4493
g462
sS'09239'
p4494
g254
sS'09238'
p4495
g254
sS'04609'
p4496
g252
sS'04606'
p4497
g252
sS'09237'
p4498
g254
sS'09236'
p4499
g254
sS'09231'
p4500
g254
sS'04602'
p4501
g252
sS'04601'
p4502
g252
sS'04600'
p4503
g252
sS'42128'
p4504
g565
sS'42129'
p4505
g565
sS'42120'
p4506
g152
sS'09059'
p4507
g254
sS'09050'
p4508
g254
sS'09053'
p4509
g254
sS'09052'
p4510
g254
sS'09055'
p4511
g254
sS'09054'
p4512
g254
sS'09057'
p4513
g254
sS'09056'
p4514
g254
sS'19407'
p4515
g32
sS'19406'
p4516
g32
sS'19405'
p4517
g32
sS'21435'
p4518
g13
sS'21434'
p4519
g13
sS'21437'
p4520
g13
sS'19404'
p4521
g32
sS'21431'
p4522
g13
sS'21430'
p4523
g13
sS'21433'
p4524
g13
sS'21432'
p4525
g13
sS'19403'
p4526
g32
sS'21439'
p4527
g13
sS'21438'
p4528
g13
sS'19401'
p4529
g32
sS'19400'
p4530
g32
sS'18927'
p4531
g54
sS'08189'
p4532
g118
sS'08180'
p4533
g118
sS'08182'
p4534
g118
sS'08183'
p4535
g118
sS'01208'
p4536
g94
sS'01209'
p4537
g94
sS'01204'
p4538
g94
sS'01205'
p4539
g94
sS'01206'
p4540
g94
sS'01200'
p4541
g94
sS'01202'
p4542
g94
sS'01203'
p4543
g94
sS'23640'
p4544
g116
sS'28363'
p4545
g54
sS'28360'
p4546
g54
sS'28361'
p4547
g54
sS'11168'
p4548
g16
sS'14409'
p4549
g106
sS'28364'
p4550
g54
sS'28365'
p4551
g54
sS'11164'
p4552
g16
sS'11165'
p4553
g16
sS'14406'
p4554
g106
sS'11167'
p4555
g16
sS'14400'
p4556
g106
sS'11161'
p4557
g16
sS'11162'
p4558
g16
sS'11163'
p4559
g16
sS'13834'
p4560
g116
sS'13835'
p4561
g116
sS'13830'
p4562
g116
sS'13831'
p4563
g116
sS'13832'
p4564
g116
sS'13833'
p4565
g116
sS'13838'
p4566
g116
sS'13839'
p4567
g116
sS'28188'
p4568
g54
sS'28189'
p4569
g54
sS'28186'
p4570
g54
sS'28187'
p4571
g54
sS'28184'
p4572
g54
sS'28185'
p4573
g54
sS'28182'
p4574
g54
sS'28183'
p4575
g54
sS'28180'
p4576
g54
sS'28181'
p4577
g54
sS'31016'
p4578
g16
sS'31017'
p4579
g16
sS'31014'
p4580
g16
sS'35203'
p4581
g2
sS'35202'
p4582
g2
sS'35201'
p4583
g2
sS'31015'
p4584
g16
sS'35207'
p4585
g2
sS'35206'
p4586
g2
sS'35205'
p4587
g2
sS'35204'
p4588
g2
sS'31012'
p4589
g16
sS'31013'
p4590
g16
sS'23275'
p4591
g116
sS'23274'
p4592
g116
sS'23277'
p4593
g116
sS'23276'
p4594
g116
sS'23271'
p4595
g116
sS'23270'
p4596
g116
sS'11579'
p4597
g16
sS'11578'
p4598
g16
sS'11577'
p4599
g16
sS'11576'
p4600
g16
sS'11575'
p4601
g16
sS'11574'
p4602
g16
sS'23279'
p4603
g116
sS'23278'
p4604
g116
sS'11570'
p4605
g16
sS'19382'
p4606
g11
sS'19383'
p4607
g11
sS'19384'
p4608
g11
sS'19387'
p4609
g11
sS'06583'
p4610
g23
sS'06580'
p4611
g23
sS'06586'
p4612
g23
sS'06587'
p4613
g23
sS'06584'
p4614
g23
sS'06585'
p4615
g23
sS'06588'
p4616
g23
sS'06589'
p4617
g23
sS'25059'
p4618
g32
sS'25056'
p4619
g32
sS'25055'
p4620
g32
sS'25054'
p4621
g32
sS'25053'
p4622
g32
sS'25052'
p4623
g32
sS'25051'
p4624
g32
sS'25050'
p4625
g32
sS'23646'
p4626
g116
sS'23647'
p4627
g116
sS'16248'
p4628
g43
sS'16249'
p4629
g43
sS'16244'
p4630
g43
sS'16245'
p4631
g43
sS'16246'
p4632
g43
sS'16247'
p4633
g43
sS'16240'
p4634
g43
sS'16241'
p4635
g43
sS'16242'
p4636
g43
sS'16243'
p4637
g43
sS'06326'
p4638
g23
sS'06327'
p4639
g23
sS'06324'
p4640
g23
sS'06325'
p4641
g23
sS'06322'
p4642
g23
sS'06323'
p4643
g23
sS'06320'
p4644
g23
sS'06321'
p4645
g23
sS'12006'
p4646
g63
sS'12007'
p4647
g63
sS'12004'
p4648
g63
sS'12005'
p4649
g63
sS'12003'
p4650
g63
sS'06328'
p4651
g23
sS'06329'
p4652
g23
sS'18135'
p4653
g54
sS'04676'
p4654
g252
sS'04677'
p4655
g252
sS'21604'
p4656
g13
sS'21605'
p4657
g13
sS'21602'
p4658
g13
sS'04674'
p4659
g252
sS'21600'
p4660
g13
sS'21601'
p4661
g13
sS'04675'
p4662
g252
sS'04673'
p4663
g252
sS'04670'
p4664
g252
sS'05741'
p4665
g84
sS'05216'
p4666
g84
sS'05215'
p4667
g84
sS'05742'
p4668
g84
sS'05745'
p4669
g84
sS'05744'
p4670
g84
sS'05747'
p4671
g84
sS'05746'
p4672
g84
sS'05749'
p4673
g84
sS'05748'
p4674
g84
sS'28097'
p4675
g54
sS'05219'
p4676
g84
sS'01050'
p4677
g94
sS'01053'
p4678
g94
sS'01052'
p4679
g94
sS'01055'
p4680
g94
sS'01054'
p4681
g94
sS'01057'
p4682
g94
sS'01056'
p4683
g94
sS'01059'
p4684
g94
sS'01058'
p4685
g94
sS'14651'
p4686
g106
sS'14654'
p4687
g106
sS'13067'
p4688
g116
sS'13066'
p4689
g116
sS'13065'
p4690
g116
sS'13069'
p4691
g116
sS'13068'
p4692
g116
sS'44258'
p4693
g11
sS'44259'
p4694
g11
sS'08069'
p4695
g118
sS'08068'
p4696
g118
sS'08067'
p4697
g118
sS'08066'
p4698
g118
sS'08065'
p4699
g118
sS'08064'
p4700
g118
sS'08061'
p4701
g118
sS'08060'
p4702
g118
sS'23519'
p4703
g116
sS'23048'
p4704
g116
sS'23049'
p4705
g116
sS'23046'
p4706
g116
sS'23047'
p4707
g116
sS'23044'
p4708
g116
sS'23045'
p4709
g116
sS'23042'
p4710
g116
sS'23043'
p4711
g116
sS'23040'
p4712
g116
sS'23041'
p4713
g116
sS'17381'
p4714
g70
sS'03053'
p4715
g152
sS'19345'
p4716
g11
sS'08003'
p4717
g118
sS'08002'
p4718
g118
sS'43507'
p4719
g565
sS'43506'
p4720
g11
sS'03042'
p4721
g152
sS'19340'
p4722
g11
sS'05641'
p4723
g84
sS'05642'
p4724
g84
sS'05643'
p4725
g84
sS'05644'
p4726
g84
sS'05645'
p4727
g84
sS'05646'
p4728
g84
sS'05647'
p4729
g84
sS'43329'
p4730
g252
sS'43325'
p4731
g170
sS'43327'
p4732
g170
sS'43326'
p4733
g170
sS'03046'
p4734
g152
sS'43450'
p4735
g11
sS'16011'
p4736
g43
sS'16010'
p4737
g43
sS'11298'
p4738
g16
sS'11299'
p4739
g16
sS'16015'
p4740
g43
sS'16014'
p4741
g43
sS'16017'
p4742
g43
sS'16016'
p4743
g43
sS'16019'
p4744
g43
sS'11293'
p4745
g16
sS'11290'
p4746
g16
sS'11291'
p4747
g16
sS'11296'
p4748
g16
sS'11297'
p4749
g16
sS'11294'
p4750
g16
sS'11295'
p4751
g16
sS'03047'
p4752
g152
sS'13523'
p4753
g116
sS'13520'
p4754
g116
sS'11740'
p4755
g16
sS'11741'
p4756
g16
sS'11742'
p4757
g16
sS'11743'
p4758
g16
sS'11744'
p4759
g16
sS'11745'
p4760
g16
sS'11746'
p4761
g16
sS'11747'
p4762
g16
sS'11748'
p4763
g16
sS'11749'
p4764
g16
sS'13293'
p4765
g116
sS'13294'
p4766
g116
sS'05028'
p4767
g84
sS'05029'
p4768
g84
sS'05020'
p4769
g84
sS'05021'
p4770
g84
sS'05022'
p4771
g84
sS'05023'
p4772
g84
sS'05024'
p4773
g84
sS'05025'
p4774
g84
sS'05026'
p4775
g84
sS'05027'
p4776
g84
sS'20098'
p4777
g462
sS'09219'
p4778
g254
sS'09218'
p4779
g254
sS'18013'
p4780
g54
sS'09213'
p4781
g254
sS'09212'
p4782
g254
sS'09211'
p4783
g254
sS'09210'
p4784
g254
sS'09217'
p4785
g254
sS'09216'
p4786
g254
sS'09215'
p4787
g254
sS'09214'
p4788
g254
sS'18012'
p4789
g54
sS'42148'
p4790
g11
sS'42140'
p4791
g252
sS'42141'
p4792
g94
sS'21413'
p4793
g13
sS'18940'
p4794
g54
sS'18943'
p4795
g54
sS'18942'
p4796
g54
sS'05688'
p4797
g84
sS'05689'
p4798
g84
sS'18947'
p4799
g54
sS'18946'
p4800
g54
sS'05684'
p4801
g84
sS'05685'
p4802
g84
sS'05686'
p4803
g84
sS'05687'
p4804
g84
sS'05680'
p4805
g84
sS'05681'
p4806
g84
sS'05682'
p4807
g84
sS'05683'
p4808
g84
sS'17450'
p4809
g70
sS'18353'
p4810
g54
sS'03689'
p4811
g152
sS'03682'
p4812
g152
sS'23502'
p4813
g116
sS'03681'
p4814
g152
sS'03686'
p4815
g152
sS'03685'
p4816
g152
sS'09077'
p4817
g254
sS'09076'
p4818
g254
sS'09075'
p4819
g254
sS'09074'
p4820
g254
sS'09073'
p4821
g254
sS'09072'
p4822
g254
sS'09071'
p4823
g254
sS'09070'
p4824
g254
sS'01263'
p4825
g94
sS'01260'
p4826
g94
sS'01266'
p4827
g94
sS'01267'
p4828
g94
sS'09079'
p4829
g254
sS'01265'
p4830
g94
sS'08305'
p4831
g118
sS'18457'
p4832
g54
sS'08309'
p4833
g118
sS'18365'
p4834
g54
sS'18364'
p4835
g54
sS'18367'
p4836
g54
sS'18361'
p4837
g54
sS'11940'
p4838
g16
sS'18363'
p4839
g54
sS'18362'
p4840
g54
sS'11941'
p4841
g16
sS'18369'
p4842
g54
sS'18368'
p4843
g54
sS'28348'
p4844
g54
sS'28349'
p4845
g54
sS'11108'
p4846
g16
sS'11109'
p4847
g16
sS'14462'
p4848
g106
sS'28341'
p4849
g54
sS'14460'
p4850
g106
sS'11101'
p4851
g16
sS'11106'
p4852
g16
sS'11107'
p4853
g16
sS'11104'
p4854
g16
sS'11105'
p4855
g16
sS'19030'
p4856
g11
sS'19031'
p4857
g32
sS'08537'
p4858
g118
sS'13852'
p4859
g116
sS'13853'
p4860
g116
sS'13850'
p4861
g116
sS'13851'
p4862
g116
sS'13856'
p4863
g116
sS'13857'
p4864
g116
sS'13854'
p4865
g116
sS'13855'
p4866
g116
sS'13858'
p4867
g116
sS'13859'
p4868
g116
sS'35041'
p4869
g2
sS'19254'
p4870
g11
sS'35043'
p4871
g2
sS'35042'
p4872
g2
sS'19255'
p4873
g11
sS'19252'
p4874
g11
sS'19301'
p4875
g11
sS'23253'
p4876
g116
sS'23252'
p4877
g116
sS'23251'
p4878
g116
sS'23250'
p4879
g116
sS'23257'
p4880
g116
sS'23256'
p4881
g116
sS'23255'
p4882
g116
sS'23254'
p4883
g116
sS'23259'
p4884
g116
sS'23258'
p4885
g116
sS'27019'
p4886
g23
sS'27018'
p4887
g23
sS'27015'
p4888
g23
sS'27014'
p4889
g23
sS'27017'
p4890
g23
sS'27013'
p4891
g23
sS'19020'
p4892
g32
sS'12024'
p4893
g63
sS'16228'
p4894
g43
sS'16229'
p4895
g43
sS'12021'
p4896
g63
sS'12022'
p4897
g63
sS'12023'
p4898
g63
sS'16222'
p4899
g43
sS'16223'
p4900
g43
sS'19906'
p4901
g11
sS'12029'
p4902
g63
sS'19904'
p4903
g11
sS'16225'
p4904
g43
sS'36021'
p4905
g952
sS'06309'
p4906
g23
sS'06307'
p4907
g23
sS'23577'
p4908
g116
sS'43154'
p4909
g106
sS'43155'
p4910
g106
sS'43158'
p4911
g11
sS'17175'
p4912
g70
sS'17174'
p4913
g70
sS'17177'
p4914
g70
sS'17176'
p4915
g70
sS'17171'
p4916
g70
sS'17170'
p4917
g70
sS'01079'
p4918
g94
sS'01078'
p4919
g94
sS'01077'
p4920
g94
sS'01076'
p4921
g94
sS'01074'
p4922
g94
sS'01073'
p4923
g94
sS'01072'
p4924
g94
sS'01071'
p4925
g94
sS'01070'
p4926
g94
sS'23357'
p4927
g116
sS'11829'
p4928
g16
sS'11828'
p4929
g16
sS'11825'
p4930
g16
sS'11824'
p4931
g16
sS'11827'
p4932
g16
sS'11826'
p4933
g16
sS'11821'
p4934
g16
sS'11820'
p4935
g16
sS'11823'
p4936
g16
sS'11822'
p4937
g16
sS'19225'
p4938
g11
sS'23172'
p4939
g116
sS'23173'
p4940
g116
sS'20410'
p4941
g462
sS'19088'
p4942
g11
sS'23170'
p4943
g116
sS'23171'
p4944
g116
sS'23176'
p4945
g116
sS'23177'
p4946
g116
sS'21089'
p4947
g13
sS'23174'
p4948
g116
sS'23175'
p4949
g116
sS'28335'
p4950
g54
sS'28334'
p4951
g54
sS'04144'
p4952
g252
sS'04145'
p4953
g252
sS'04146'
p4954
g252
sS'04141'
p4955
g252
sS'04142'
p4956
g252
sS'04143'
p4957
g252
sS'10196'
p4958
g170
sS'10197'
p4959
g170
sS'10194'
p4960
g170
sS'10195'
p4961
g170
sS'10192'
p4962
g170
sS'10193'
p4963
g170
sS'23353'
p4964
g116
sS'10094'
p4965
g170
sS'10198'
p4966
g170
sS'10199'
p4967
g170
sS'15108'
p4968
g491
sS'15109'
p4969
g491
sS'15106'
p4970
g491
sS'15107'
p4971
g491
sS'15104'
p4972
g491
sS'15105'
p4973
g491
sS'15102'
p4974
g491
sS'15103'
p4975
g491
sS'15100'
p4976
g491
sS'15101'
p4977
g491
sS'18084'
p4978
g54
sS'18085'
p4979
g54
sS'18086'
p4980
g54
sS'18087'
p4981
g54
sS'18080'
p4982
g54
sS'18081'
p4983
g54
sS'18082'
p4984
g54
sS'18088'
p4985
g54
sS'21426'
p4986
g13
sS'28385'
p4987
g54
sS'23064'
p4988
g116
sS'23065'
p4989
g116
sS'23066'
p4990
g116
sS'23067'
p4991
g116
sS'23060'
p4992
g116
sS'23061'
p4993
g116
sS'23062'
p4994
g116
sS'23063'
p4995
g116
sS'23068'
p4996
g116
sS'23069'
p4997
g116
sS'28089'
p4998
g54
sS'28088'
p4999
g54
sS'06151'
p5000
g23
sS'06150'
p5001
g23
sS'06152'
p5002
g23
sS'06159'
p5003
g23
sS'06158'
p5004
g23
sS'21424'
p5005
g13
sS'23392'
p5006
g116
sS'23393'
p5007
g116
sS'23390'
p5008
g116
sS'23391'
p5009
g116
sS'23397'
p5010
g116
sS'23394'
p5011
g116
sS'23395'
p5012
g116
sS'23398'
p5013
g116
sS'23399'
p5014
g116
sS'08476'
p5015
g118
sS'08471'
p5016
g118
sS'13647'
p5017
g116
sS'09450'
p5018
g254
sS'21422'
p5019
g13
sS'19312'
p5020
g11
sS'13649'
p5021
g116
sS'13648'
p5022
g116
sS'18374'
p5023
g54
sS'19029'
p5024
g11
sS'16039'
p5025
g43
sS'16038'
p5026
g43
sS'16037'
p5027
g43
sS'16036'
p5028
g43
sS'16035'
p5029
g43
sS'16034'
p5030
g43
sS'16033'
p5031
g43
sS'12516'
p5032
g63
sS'16031'
p5033
g43
sS'16030'
p5034
g43
sS'17348'
p5035
g70
sS'17349'
p5036
g70
sS'17346'
p5037
g70
sS'17347'
p5038
g70
sS'17344'
p5039
g70
sS'17345'
p5040
g70
sS'17342'
p5041
g70
sS'17343'
p5042
g70
sS'17340'
p5043
g70
sS'17341'
p5044
g70
sS'21420'
p5045
g13
sS'13500'
p5046
g116
sS'13501'
p5047
g116
sS'13502'
p5048
g116
sS'32015'
p5049
g140
sS'19228'
p5050
g11
sS'21421'
p5051
g13
sS'32014'
p5052
g140
sS'18370'
p5053
g54
sS'42304'
p5054
g94
sS'42307'
p5055
g252
sS'42303'
p5056
g94
sS'42309'
p5057
g252
sS'17409'
p5058
g70
sS'18371'
p5059
g54
sS'17408'
p5060
g70
sS'17407'
p5061
g70
sS'42161'
p5062
g565
sS'17406'
p5063
g70
sS'32018'
p5064
g140
sS'18633'
p5065
g54
sS'21479'
p5066
g13
sS'21478'
p5067
g13
sS'18969'
p5068
g54
sS'18968'
p5069
g54
sS'18967'
p5070
g54
sS'18966'
p5071
g54
sS'18965'
p5072
g54
sS'18964'
p5073
g54
sS'18963'
p5074
g54
sS'18962'
p5075
g54
sS'18961'
p5076
g54
sS'18960'
p5077
g54
sS'09271'
p5078
g254
sS'09270'
p5079
g254
sS'09273'
p5080
g254
sS'09272'
p5081
g254
sS'09275'
p5082
g254
sS'09274'
p5083
g254
sS'09277'
p5084
g254
sS'09276'
p5085
g254
sS'09279'
p5086
g254
sS'09278'
p5087
g254
sS'15219'
p5088
g491
sS'01240'
p5089
g94
sS'01241'
p5090
g94
sS'01242'
p5091
g94
sS'14199'
p5092
g106
sS'01244'
p5093
g94
sS'14192'
p5094
g106
sS'28380'
p5095
g54
sS'14190'
p5096
g106
sS'14191'
p5097
g106
sS'14196'
p5098
g106
sS'14197'
p5099
g106
sS'14194'
p5100
g106
sS'14195'
p5101
g106
sS'35153'
p5102
g2
sS'09099'
p5103
g254
sS'09098'
p5104
g254
sS'09095'
p5105
g254
sS'09094'
p5106
g254
sS'09097'
p5107
g254
sS'09096'
p5108
g254
sS'09091'
p5109
g254
sS'09090'
p5110
g254
sS'09093'
p5111
g254
sS'09092'
p5112
g254
sS'35150'
p5113
g2
sS'14440'
p5114
g106
sS'18342'
p5115
g54
sS'14334'
p5116
g106
sS'11123'
p5117
g16
sS'11124'
p5118
g16
sS'11125'
p5119
g16
sS'11126'
p5120
g16
sS'18344'
p5121
g54
sS'11128'
p5122
g16
sS'18349'
p5123
g54
sS'18348'
p5124
g54
sS'13878'
p5125
g116
sS'13879'
p5126
g116
sS'35069'
p5127
g2
sS'35068'
p5128
g2
sS'31018'
p5129
g16
sS'31019'
p5130
g16
sS'13870'
p5131
g116
sS'13871'
p5132
g116
sS'13872'
p5133
g116
sS'13873'
p5134
g116
sS'13874'
p5135
g116
sS'13875'
p5136
g116
sS'13876'
p5137
g116
sS'13877'
p5138
g116
sS'18141'
p5139
g54
sS'18140'
p5140
g54
sS'18144'
p5141
g54
sS'18147'
p5142
g54
sS'18146'
p5143
g54
sS'28381'
p5144
g54
sS'23239'
p5145
g116
sS'23238'
p5146
g116
sS'23231'
p5147
g116
sS'23230'
p5148
g116
sS'23233'
p5149
g116
sS'23232'
p5150
g116
sS'23235'
p5151
g116
sS'23234'
p5152
g116
sS'23237'
p5153
g116
sS'23236'
p5154
g116
sS'27033'
p5155
g23
sS'27032'
p5156
g23
sS'27030'
p5157
g23
sS'27035'
p5158
g23
sS'27034'
p5159
g23
sS'21032'
p5160
g13
sS'35240'
p5161
g2
sS'20112'
p5162
g462
sS'16200'
p5163
g43
sS'16201'
p5164
g43
sS'16202'
p5165
g43
sS'16203'
p5166
g43
sS'16204'
p5167
g43
sS'19250'
p5168
g11
sS'18979'
p5169
g54
sS'22995'
p5170
g140
sS'19258'
p5171
g11
sS'12040'
p5172
g63
sS'12041'
p5173
g63
sS'22992'
p5174
g140
sS'06363'
p5175
g23
sS'06361'
p5176
g23
sS'06366'
p5177
g23
sS'06367'
p5178
g23
sS'06364'
p5179
g23
sS'06365'
p5180
g23
sS'21462'
p5181
g13
sS'21463'
p5182
g13
sS'21461'
p5183
g13
sS'21466'
p5184
g13
sS'21467'
p5185
g13
sS'21464'
p5186
g13
sS'21465'
p5187
g13
sS'17043'
p5188
g70
sS'11464'
p5189
g16
sS'11467'
p5190
g16
sS'11461'
p5191
g16
sS'11463'
p5192
g16
sS'03901'
p5193
g152
sS'11468'
p5194
g16
sS'03900'
p5195
g152
sS'23272'
p5196
g116
sS'17153'
p5197
g70
sS'17152'
p5198
g70
sS'17151'
p5199
g70
sS'17150'
p5200
g70
sS'17157'
p5201
g70
sS'17156'
p5202
g70
sS'17155'
p5203
g70
sS'17154'
p5204
g70
sS'17405'
p5205
g70
sS'17404'
p5206
g70
sS'17159'
p5207
g70
sS'17158'
p5208
g70
sS'17401'
p5209
g70
sS'17400'
p5210
g70
sS'17403'
p5211
g70
sS'17402'
p5212
g70
sS'13319'
p5213
g116
sS'13318'
p5214
g116
sS'13317'
p5215
g116
sS'11809'
p5216
g16
sS'11808'
p5217
g16
sS'11803'
p5218
g16
sS'11802'
p5219
g16
sS'11801'
p5220
g16
sS'11800'
p5221
g16
sS'11807'
p5222
g16
sS'11806'
p5223
g16
sS'11805'
p5224
g16
sS'11804'
p5225
g16
sS'20118'
p5226
g462
sS'20115'
p5227
g462
sS'20114'
p5228
g462
sS'20117'
p5229
g462
sS'20116'
p5230
g462
sS'20111'
p5231
g462
sS'20110'
p5232
g462
sS'20113'
p5233
g462
sS'08138'
p5234
g118
sS'23610'
p5235
g116
sS'03304'
p5236
g152
sS'08130'
p5237
g118
sS'04128'
p5238
g252
sS'08133'
p5239
g118
sS'04120'
p5240
g252
sS'17048'
p5241
g70
sS'15124'
p5242
g491
sS'15126'
p5243
g491
sS'15127'
p5244
g491
sS'15121'
p5245
g491
sS'15123'
p5246
g491
sS'15128'
p5247
g491
sS'15129'
p5248
g491
sS'28218'
p5249
g54
sS'28219'
p5250
g54
sS'28216'
p5251
g54
sS'21417'
p5252
g13
sS'28217'
p5253
g54
sS'28214'
p5254
g54
sS'28215'
p5255
g54
sS'28212'
p5256
g54
sS'28213'
p5257
g54
sS'23002'
p5258
g116
sS'23003'
p5259
g116
sS'23000'
p5260
g116
sS'23001'
p5261
g116
sS'23006'
p5262
g116
sS'23007'
p5263
g116
sS'23004'
p5264
g116
sS'23005'
p5265
g116
sS'28065'
p5266
g54
sS'28064'
p5267
g54
sS'23008'
p5268
g116
sS'28066'
p5269
g54
sS'28061'
p5270
g54
sS'28060'
p5271
g54
sS'28062'
p5272
g54
sS'06179'
p5273
g23
sS'06178'
p5274
g23
sS'06177'
p5275
g23
sS'06176'
p5276
g23
sS'06175'
p5277
g23
sS'06174'
p5278
g23
sS'06172'
p5279
g23
sS'06170'
p5280
g23
sS'32035'
p5281
g140
sS'43365'
p5282
g16
sS'43364'
p5283
g32
sS'43367'
p5284
g84
sS'43366'
p5285
g84
sS'43369'
p5286
g106
sS'32034'
p5287
g140
sS'11258'
p5288
g16
sS'11259'
p5289
g16
sS'11257'
p5290
g16
sS'11254'
p5291
g16
sS'11255'
p5292
g16
sS'11252'
p5293
g16
sS'11253'
p5294
g16
sS'11250'
p5295
g16
sS'11251'
p5296
g16
sS'19009'
p5297
g32
sS'19008'
p5298
g32
sS'19003'
p5299
g32
sS'19002'
p5300
g32
sS'19001'
p5301
g11
sS'19000'
p5302
g11
sS'19007'
p5303
g32
sS'19005'
p5304
g32
sS'19004'
p5305
g32
sS'11784'
p5306
g16
sS'11785'
p5307
g16
sS'11786'
p5308
g16
sS'11787'
p5309
g16
sS'11780'
p5310
g16
sS'11781'
p5311
g16
sS'11782'
p5312
g16
sS'11783'
p5313
g16
sS'11788'
p5314
g16
sS'11789'
p5315
g16
sS'43585'
p5316
g152
sS'43589'
p5317
g94
sS'17364'
p5318
g70
sS'17365'
p5319
g70
sS'17366'
p5320
g70
sS'17367'
p5321
g70
sS'17360'
p5322
g70
sS'17361'
p5323
g70
sS'17362'
p5324
g70
sS'17363'
p5325
g70
sS'17368'
p5326
g70
sS'17369'
p5327
g70
sS'16410'
p5328
g43
sS'18355'
p5329
g54
sS'18356'
p5330
g54
sS'42189'
p5331
g94
sS'42186'
p5332
g11
sS'42187'
p5333
g11
sS'42185'
p5334
g11
sS'42183'
p5335
g11
sS'17092'
p5336
g70
sS'17093'
p5337
g70
sS'17090'
p5338
g70
sS'17091'
p5339
g70
sS'17096'
p5340
g70
sS'17097'
p5341
g70
sS'17094'
p5342
g70
sS'17095'
p5343
g70
sS'17098'
p5344
g70
sS'17099'
p5345
g70
sS'21457'
p5346
g13
sS'19410'
p5347
g32
sS'21327'
p5348
g13
sS'21321'
p5349
g13
sS'19411'
p5350
g32
sS'21329'
p5351
g13
sS'19412'
p5352
g32
sS'21459'
p5353
g13
sS'20330'
p5354
g462
sS'22980'
p5355
g140
sS'22981'
p5356
g140
sS'22982'
p5357
g140
sS'19145'
p5358
g11
sS'22984'
p5359
g140
sS'22985'
p5360
g140
sS'22986'
p5361
g140
sS'22987'
p5362
g140
sS'22988'
p5363
g140
sS'19414'
p5364
g32
sS'19415'
p5365
g32
sS'20581'
p5366
g462
sS'03913'
p5367
g152
sS'09259'
p5368
g254
sS'09258'
p5369
g254
sS'09257'
p5370
g254
sS'09256'
p5371
g254
sS'09255'
p5372
g254
sS'09254'
p5373
g254
sS'09253'
p5374
g254
sS'09252'
p5375
g254
sS'09251'
p5376
g254
sS'09250'
p5377
g254
sS'08699'
p5378
g118
sS'08128'
p5379
g118
sS'08129'
p5380
g118
sS'08694'
p5381
g118
sS'08695'
p5382
g118
sS'08124'
p5383
g118
sS'08697'
p5384
g118
sS'08122'
p5385
g118
sS'08123'
p5386
g118
sS'08692'
p5387
g118
sS'08693'
p5388
g118
sS'08348'
p5389
g118
sS'08349'
p5390
g118
sS'08346'
p5391
g118
sS'08347'
p5392
g118
sS'18328'
p5393
g54
sS'14318'
p5394
g106
sS'18321'
p5395
g54
sS'14315'
p5396
g106
sS'14316'
p5397
g106
sS'14317'
p5398
g106
sS'14310'
p5399
g106
sS'14311'
p5400
g106
sS'14312'
p5401
g106
sS'18326'
p5402
g54
sS'04593'
p5403
g252
sS'04592'
p5404
g252
sS'04591'
p5405
g252
sS'04590'
p5406
g252
sS'20322'
p5407
g462
sS'20323'
p5408
g462
sS'04595'
p5409
g252
sS'04594'
p5410
g252
sS'23217'
p5411
g116
sS'23216'
p5412
g116
sS'23215'
p5413
g116
sS'23214'
p5414
g116
sS'23213'
p5415
g116
sS'28293'
p5416
g54
sS'28290'
p5417
g54
sS'28291'
p5418
g54
sS'10972'
p5419
g170
sS'23219'
p5420
g116
sS'23218'
p5421
g116
sS'27051'
p5422
g23
sS'27050'
p5423
g23
sS'27053'
p5424
g23
sS'10973'
p5425
g170
sS'27055'
p5426
g23
sS'27054'
p5427
g23
sS'27057'
p5428
g23
sS'27056'
p5429
g23
sS'27059'
p5430
g23
sS'27058'
p5431
g23
sS'31034'
p5432
g16
sS'10978'
p5433
g170
sS'31036'
p5434
g16
sS'31030'
p5435
g16
sS'31031'
p5436
g16
sS'31032'
p5437
g16
sS'31033'
p5438
g16
sS'35009'
p5439
g2
sS'35008'
p5440
g2
sS'14533'
p5441
g106
sS'19279'
p5442
g11
sS'19274'
p5443
g32
sS'19270'
p5444
g11
sS'19271'
p5445
g11
sS'19272'
p5446
g32
sS'19273'
p5447
g32
sS'06340'
p5448
g23
sS'06437'
p5449
g23
sS'06434'
p5450
g23
sS'06343'
p5451
g23
sS'06432'
p5452
g23
sS'06433'
p5453
g23
sS'06430'
p5454
g23
sS'06431'
p5455
g23
sS'12060'
p5456
g63
sS'06349'
p5457
g23
sS'12062'
p5458
g63
sS'12063'
p5459
g63
sS'12065'
p5460
g63
sS'06438'
p5461
g23
sS'06439'
p5462
g23
sS'11442'
p5463
g16
sS'11447'
p5464
g16
sS'11446'
p5465
g16
sS'11445'
p5466
g16
sS'11444'
p5467
g16
sS'43112'
p5468
g43
sS'28069'
p5469
g54
sS'11448'
p5470
g16
sS'43114'
p5471
g43
sS'28068'
p5472
g54
sS'17139'
p5473
g70
sS'17138'
p5474
g70
sS'17429'
p5475
g70
sS'17428'
p5476
g70
sS'17131'
p5477
g70
sS'17130'
p5478
g70
sS'17133'
p5479
g70
sS'17132'
p5480
g70
sS'17135'
p5481
g70
sS'17134'
p5482
g70
sS'17137'
p5483
g70
sS'17136'
p5484
g70
sS'13339'
p5485
g116
sS'13338'
p5486
g116
sS'13333'
p5487
g116
sS'13332'
p5488
g116
sS'13331'
p5489
g116
sS'13330'
p5490
g116
sS'13337'
p5491
g116
sS'13335'
p5492
g116
sS'13334'
p5493
g116
sS'20139'
p5494
g462
sS'20138'
p5495
g462
sS'20133'
p5496
g462
sS'20132'
p5497
g462
sS'20131'
p5498
g462
sS'20130'
p5499
g462
sS'20137'
p5500
g462
sS'20136'
p5501
g462
sS'20135'
p5502
g462
sS'20134'
p5503
g462
sS'08599'
p5504
g118
sS'08598'
p5505
g118
sS'08596'
p5506
g118
sS'08595'
p5507
g118
sS'08594'
p5508
g118
sS'08593'
p5509
g118
sS'08592'
p5510
g118
sS'08591'
p5511
g118
sS'08590'
p5512
g118
sS'11861'
p5513
g16
sS'11860'
p5514
g16
sS'11863'
p5515
g16
sS'11862'
p5516
g16
sS'11865'
p5517
g16
sS'11864'
p5518
g16
sS'11867'
p5519
g16
sS'11866'
p5520
g16
sS'11869'
p5521
g16
sS'11868'
p5522
g16
sS'15142'
p5523
g491
sS'15143'
p5524
g491
sS'15140'
p5525
g491
sS'15141'
p5526
g491
sS'15146'
p5527
g491
sS'15147'
p5528
g491
sS'15144'
p5529
g491
sS'15145'
p5530
g491
sS'15148'
p5531
g491
sS'15149'
p5532
g491
sS'04025'
p5533
g252
sS'04023'
p5534
g252
sS'04022'
p5535
g252
sS'04021'
p5536
g252
sS'27028'
p5537
g23
sS'04020'
p5538
g252
sS'27029'
p5539
g23
sS'01165'
p5540
g94
sS'01164'
p5541
g94
sS'01167'
p5542
g94
sS'01166'
p5543
g94
sS'01161'
p5544
g94
sS'01160'
p5545
g94
sS'03041'
p5546
g152
sS'01169'
p5547
g94
sS'01168'
p5548
g94
sS'03043'
p5549
g152
sS'03044'
p5550
g152
sS'03045'
p5551
g152
sS'03109'
p5552
g152
sS'03108'
p5553
g152
sS'03105'
p5554
g152
sS'03104'
p5555
g152
sS'08011'
p5556
g118
sS'03100'
p5557
g152
sS'28049'
p5558
g54
sS'28048'
p5559
g54
sS'28043'
p5560
g54
sS'28041'
p5561
g54
sS'28040'
p5562
g54
sS'28047'
p5563
g54
sS'28046'
p5564
g54
sS'28045'
p5565
g54
sS'28044'
p5566
g54
sS'13935'
p5567
g116
sS'13934'
p5568
g116
sS'13937'
p5569
g116
sS'13931'
p5570
g116
sS'13930'
p5571
g116
sS'13933'
p5572
g116
sS'13932'
p5573
g116
sS'11274'
p5574
g16
sS'11275'
p5575
g16
sS'11276'
p5576
g16
sS'11277'
p5577
g16
sS'11270'
p5578
g16
sS'11271'
p5579
g16
sS'11272'
p5580
g16
sS'11273'
p5581
g16
sS'43346'
p5582
g11
sS'43345'
p5583
g106
sS'43344'
p5584
g11
sS'11278'
p5585
g16
sS'11279'
p5586
g16
sS'43340'
p5587
g94
sS'19061'
p5588
g32
sS'19063'
p5589
g32
sS'19062'
p5590
g32
sS'19065'
p5591
g11
sS'19064'
p5592
g11
sS'19067'
p5593
g11
sS'18930'
p5594
g54
sS'19068'
p5595
g11
sS'35186'
p5596
g2
sS'23624'
p5597
g116
sS'28342'
p5598
g54
sS'23625'
p5599
g116
sS'28343'
p5600
g54
sS'18258'
p5601
g54
sS'17302'
p5602
g70
sS'17303'
p5603
g70
sS'10907'
p5604
g170
sS'17301'
p5605
g70
sS'10901'
p5606
g170
sS'10900'
p5607
g170
sS'10903'
p5608
g170
sS'10902'
p5609
g170
sS'17308'
p5610
g70
sS'17309'
p5611
g70
sS'10909'
p5612
g170
sS'10908'
p5613
g170
sS'28350'
p5614
g54
sS'16432'
p5615
g43
sS'16436'
p5616
g43
sS'16434'
p5617
g43
sS'21303'
p5618
g13
sS'21302'
p5619
g13
sS'21301'
p5620
g13
sS'21300'
p5621
g13
sS'21307'
p5622
g13
sS'21306'
p5623
g13
sS'05628'
p5624
g84
sS'05629'
p5625
g84
sS'05626'
p5626
g84
sS'05627'
p5627
g84
sS'05196'
p5628
g84
sS'05625'
p5629
g84
sS'05622'
p5630
g84
sS'05191'
p5631
g84
sS'05192'
p5632
g84
sS'05193'
p5633
g84
sS'22969'
p5634
g140
sS'22966'
p5635
g140
sS'22965'
p5636
g140
sS'22962'
p5637
g140
sS'22963'
p5638
g140
sS'22960'
p5639
g140
sS'22961'
p5640
g140
sS'09508'
p5641
g254
sS'03938'
p5642
g152
sS'03939'
p5643
g152
sS'03934'
p5644
g152
sS'03935'
p5645
g152
sS'09501'
p5646
g254
sS'03937'
p5647
g152
sS'03930'
p5648
g152
sS'09506'
p5649
g254
sS'09504'
p5650
g254
sS'19413'
p5651
g32
sS'01284'
p5652
g94
sS'01285'
p5653
g94
sS'01286'
p5654
g94
sS'01287'
p5655
g94
sS'01280'
p5656
g94
sS'01281'
p5657
g94
sS'14158'
p5658
g106
sS'14159'
p5659
g106
sS'14156'
p5660
g106
sS'14157'
p5661
g106
sS'14154'
p5662
g106
sS'14155'
p5663
g106
sS'14152'
p5664
g106
sS'01289'
p5665
g94
sS'14150'
p5666
g106
sS'14151'
p5667
g106
sS'28267'
p5668
g54
sS'18306'
p5669
g54
sS'18305'
p5670
g54
sS'18304'
p5671
g54
sS'18303'
p5672
g54
sS'18302'
p5673
g54
sS'18301'
p5674
g54
sS'18300'
p5675
g54
sS'18309'
p5676
g54
sS'18308'
p5677
g54
sS'14370'
p5678
g106
sS'14371'
p5679
g106
sS'14376'
p5680
g106
sS'28265'
p5681
g54
sS'14375'
p5682
g106
sS'08104'
p5683
g118
sS'08105'
p5684
g118
sS'08106'
p5685
g118
sS'08107'
p5686
g118
sS'08100'
p5687
g118
sS'08101'
p5688
g118
sS'08102'
p5689
g118
sS'08103'
p5690
g118
sS'28264'
p5691
g54
sS'08363'
p5692
g118
sS'08365'
p5693
g118
sS'08366'
p5694
g118
sS'08142'
p5695
g118
sS'42150'
p5696
g152
sS'36012'
p5697
g952
sS'06426'
p5698
g23
sS'35029'
p5699
g2
sS'35028'
p5700
g2
sS'35027'
p5701
g2
sS'35026'
p5702
g2
sS'35025'
p5703
g2
sS'35024'
p5704
g2
sS'35023'
p5705
g2
sS'35022'
p5706
g2
sS'35021'
p5707
g2
sS'06423'
p5708
g23
sS'06350'
p5709
g23
sS'09130'
p5710
g254
sS'12071'
p5711
g63
sS'19218'
p5712
g11
sS'19219'
p5713
g11
sS'19212'
p5714
g11
sS'19213'
p5715
g11
sS'09135'
p5716
g254
sS'19216'
p5717
g11
sS'19217'
p5718
g11
sS'19214'
p5719
g11
sS'08147'
p5720
g118
sS'06418'
p5721
g23
sS'06419'
p5722
g23
sS'06414'
p5723
g23
sS'06415'
p5724
g23
sS'06416'
p5725
g23
sS'06417'
p5726
g23
sS'06410'
p5727
g23
sS'06411'
p5728
g23
sS'06413'
p5729
g23
sS'43282'
p5730
g84
sS'43283'
p5731
g84
sS'43287'
p5732
g84
sS'43285'
p5733
g94
sS'21388'
p5734
g13
sS'28130'
p5735
g54
sS'23541'
p5736
g116
sS'43130'
p5737
g43
sS'43131'
p5738
g43
sS'43132'
p5739
g43
sS'23540'
p5740
g116
sS'43134'
p5741
g43
sS'43135'
p5742
g43
sS'43137'
p5743
g43
sS'23547'
p5744
g116
sS'11429'
p5745
g16
sS'11428'
p5746
g16
sS'23545'
p5747
g116
sS'11423'
p5748
g16
sS'11422'
p5749
g16
sS'11424'
p5750
g16
sS'11427'
p5751
g16
sS'11426'
p5752
g16
sS'17117'
p5753
g70
sS'17116'
p5754
g70
sS'17115'
p5755
g70
sS'17114'
p5756
g70
sS'17113'
p5757
g70
sS'17112'
p5758
g70
sS'17111'
p5759
g70
sS'17110'
p5760
g70
sS'17449'
p5761
g70
sS'17448'
p5762
g70
sS'17119'
p5763
g70
sS'17118'
p5764
g70
sS'13351'
p5765
g116
sS'13350'
p5766
g565
sS'13353'
p5767
g565
sS'13352'
p5768
g116
sS'13355'
p5769
g565
sS'13354'
p5770
g116
sS'13357'
p5771
g565
sS'13356'
p5772
g116
sS'13359'
p5773
g116
sS'13358'
p5774
g565
sS'14097'
p5775
g106
sS'14096'
p5776
g106
sS'14095'
p5777
g106
sS'09190'
p5778
g254
sS'09191'
p5779
g254
sS'09192'
p5780
g254
sS'09193'
p5781
g254
sS'09194'
p5782
g254
sS'09195'
p5783
g254
sS'05295'
p5784
g84
sS'05294'
p5785
g84
sS'05293'
p5786
g84
sS'28328'
p5787
g54
sS'28329'
p5788
g54
sS'28326'
p5789
g54
sS'28327'
p5790
g54
sS'08665'
p5791
g118
sS'28324'
p5792
g54
sS'23144'
p5793
g116
sS'28322'
p5794
g54
sS'28323'
p5795
g54
sS'18538'
p5796
g54
sS'10084'
p5797
g170
sS'28320'
p5798
g54
sS'11849'
p5799
g16
sS'10085'
p5800
g170
sS'11847'
p5801
g16
sS'11846'
p5802
g16
sS'11845'
p5803
g16
sS'11844'
p5804
g16
sS'11843'
p5805
g16
sS'11842'
p5806
g16
sS'11841'
p5807
g16
sS'11840'
p5808
g16
sS'15168'
p5809
g491
sS'15169'
p5810
g491
sS'15160'
p5811
g491
sS'15162'
p5812
g491
sS'15163'
p5813
g491
sS'15164'
p5814
g491
sS'15165'
p5815
g491
sS'15166'
p5816
g491
sS'15167'
p5817
g491
sS'01141'
p5818
g94
sS'01140'
p5819
g94
sS'01146'
p5820
g94
sS'01145'
p5821
g94
sS'01144'
p5822
g94
sS'03129'
p5823
g152
sS'03128'
p5824
g152
sS'28362'
p5825
g54
sS'03122'
p5826
g152
sS'03121'
p5827
g152
sS'03120'
p5828
g152
sS'03127'
p5829
g152
sS'28021'
p5830
g54
sS'28020'
p5831
g54
sS'28023'
p5832
g54
sS'28022'
p5833
g54
sS'28025'
p5834
g54
sS'28024'
p5835
g54
sS'28027'
p5836
g54
sS'28026'
p5837
g54
sS'28029'
p5838
g54
sS'28028'
p5839
g54
sS'13919'
p5840
g116
sS'13918'
p5841
g116
sS'13913'
p5842
g116
sS'13912'
p5843
g116
sS'13911'
p5844
g116
sS'13910'
p5845
g116
sS'13917'
p5846
g116
sS'13916'
p5847
g116
sS'13915'
p5848
g116
sS'13914'
p5849
g116
sS'43109'
p5850
g32
sS'28366'
p5851
g54
sS'11212'
p5852
g16
sS'11213'
p5853
g16
sS'11210'
p5854
g16
sS'11211'
p5855
g16
sS'11216'
p5856
g16
sS'11214'
p5857
g16
sS'11215'
p5858
g16
sS'11218'
p5859
g16
sS'11219'
p5860
g16
sS'19049'
p5861
g32
sS'19048'
p5862
g32
sS'19047'
p5863
g32
sS'19046'
p5864
g32
sS'19045'
p5865
g32
sS'19043'
p5866
g32
sS'19042'
p5867
g32
sS'19041'
p5868
g32
sS'19040'
p5869
g32
sS'12563'
p5870
g63
sS'12565'
p5871
g63
sS'23406'
p5872
g116
sS'23407'
p5873
g116
sS'23404'
p5874
g116
sS'23405'
p5875
g116
sS'23402'
p5876
g116
sS'12567'
p5877
g63
sS'23401'
p5878
g116
sS'23408'
p5879
g116
sS'23409'
p5880
g116
sS'06064'
p5881
g23
sS'06067'
p5882
g23
sS'06061'
p5883
g23
sS'06063'
p5884
g23
sS'06062'
p5885
g23
sS'06068'
p5886
g23
sS'17328'
p5887
g70
sS'17329'
p5888
g70
sS'10921'
p5889
g170
sS'10920'
p5890
g170
sS'10927'
p5891
g170
sS'10926'
p5892
g170
sS'10925'
p5893
g170
sS'10924'
p5894
g170
sS'17320'
p5895
g70
sS'17321'
p5896
g70
sS'17322'
p5897
g70
sS'17323'
p5898
g70
sS'17324'
p5899
g70
sS'17325'
p5900
g70
sS'17326'
p5901
g70
sS'17327'
p5902
g70
sS'17416'
p5903
g70
sS'21149'
p5904
g13
sS'21148'
p5905
g13
sS'17417'
p5906
g70
sS'21145'
p5907
g13
sS'21144'
p5908
g13
sS'21147'
p5909
g13
sS'21146'
p5910
g13
sS'21141'
p5911
g13
sS'17414'
p5912
g70
sS'21143'
p5913
g13
sS'21142'
p5914
g13
sS'17415'
p5915
g70
sS'17412'
p5916
g70
sS'17413'
p5917
g70
sS'17410'
p5918
g70
sS'17411'
p5919
g70
sS'05600'
p5920
g84
sS'28243'
p5921
g54
sS'22944'
p5922
g140
sS'22945'
p5923
g140
sS'21499'
p5924
g13
sS'21498'
p5925
g13
sS'22940'
p5926
g140
sS'22941'
p5927
g140
sS'22942'
p5928
g140
sS'22943'
p5929
g140
sS'21361'
p5930
g13
sS'21360'
p5931
g13
sS'21363'
p5932
g13
sS'21362'
p5933
g13
sS'21365'
p5934
g13
sS'21364'
p5935
g13
sS'21495'
p5936
g13
sS'21494'
p5937
g13
sS'03959'
p5938
g152
sS'03952'
p5939
g152
sS'03953'
p5940
g152
sS'03950'
p5941
g152
sS'03951'
p5942
g152
sS'03956'
p5943
g152
sS'03957'
p5944
g152
sS'03954'
p5945
g152
sS'03955'
p5946
g152
sS'14174'
p5947
g106
sS'14177'
p5948
g106
sS'14171'
p5949
g106
sS'14173'
p5950
g106
sS'14179'
p5951
g106
sS'18499'
p5952
g54
sS'11988'
p5953
g16
sS'11989'
p5954
g16
sS'11982'
p5955
g16
sS'11983'
p5956
g16
sS'11980'
p5957
g16
sS'11981'
p5958
g16
sS'11986'
p5959
g16
sS'11987'
p5960
g16
sS'11984'
p5961
g16
sS'11985'
p5962
g16
sS'36060'
p5963
g952
sS'36061'
p5964
g952
sS'13166'
p5965
g116
sS'13165'
p5966
g116
sS'11182'
p5967
g16
sS'14351'
p5968
g106
sS'11180'
p5969
g16
sS'11181'
p5970
g16
sS'14355'
p5971
g106
sS'11184'
p5972
g16
sS'14357'
p5973
g106
sS'43543'
p5974
g94
sS'09383'
p5975
g254
sS'28246'
p5976
g54
sS'08160'
p5977
g118
sS'08161'
p5978
g118
sS'08164'
p5979
g118
sS'08165'
p5980
g118
sS'44048'
p5981
g94
sS'08168'
p5982
g118
sS'08169'
p5983
g118
sS'18152'
p5984
g54
sS'18151'
p5985
g54
sS'18156'
p5986
g54
sS'18157'
p5987
g54
sS'22996'
p5988
g140
sS'18154'
p5989
g54
sS'08388'
p5990
g118
sS'08389'
p5991
g118
sS'08386'
p5992
g118
sS'08387'
p5993
g118
sS'08384'
p5994
g118
sS'18155'
p5995
g54
sS'08383'
p5996
g118
sS'08380'
p5997
g118
sS'21324'
p5998
g13
sS'19188'
p5999
g11
sS'19189'
p6000
g11
sS'19182'
p6001
g11
sS'19183'
p6002
g11
sS'19181'
p6003
g11
sS'19186'
p6004
g11
sS'19187'
p6005
g11
sS'19184'
p6006
g11
sS'19185'
p6007
g11
sS'21328'
p6008
g13
sS'21458'
p6009
g13
sS'06384'
p6010
g23
sS'06387'
p6011
g23
sS'06380'
p6012
g23
sS'06383'
p6013
g23
sS'06388'
p6014
g23
sS'06389'
p6015
g23
sS'22983'
p6016
g140
sS'06472'
p6017
g23
sS'22123'
p6018
g43
sS'06470'
p6019
g23
sS'06471'
p6020
g23
sS'06476'
p6021
g23
sS'06475'
p6022
g23
sS'22989'
p6023
g140
sS'11407'
p6024
g16
sS'11406'
p6025
g16
sS'11403'
p6026
g16
sS'11402'
p6027
g16
sS'11401'
p6028
g16
sS'11400'
p6029
g16
sS'21443'
p6030
g13
sS'11409'
p6031
g16
sS'11408'
p6032
g16
sS'19230'
p6033
g11
sS'19231'
p6034
g11
sS'19232'
p6035
g11
sS'19233'
p6036
g11
sS'19234'
p6037
g11
sS'19235'
p6038
g11
sS'19236'
p6039
g11
sS'19238'
p6040
g11
sS'19239'
p6041
g11
sS'09528'
p6042
g254
sS'17464'
p6043
g70
sS'17463'
p6044
g70
sS'17462'
p6045
g70
sS'17461'
p6046
g70
sS'17460'
p6047
g70
sS'09525'
p6048
g254
sS'19876'
p6049
g11
sS'13379'
p6050
g116
sS'09524'
p6051
g254
sS'13377'
p6052
g116
sS'13375'
p6053
g116
sS'13373'
p6054
g116
sS'13372'
p6055
g116
sS'13371'
p6056
g116
sS'13370'
p6057
g116
sS'09526'
p6058
g254
sS'09520'
p6059
g254
sS'19877'
p6060
g11
sS'09523'
p6061
g254
sS'09522'
p6062
g254
sS'42063'
p6063
g11
sS'31010'
p6064
g16
sS'09178'
p6065
g254
sS'09176'
p6066
g254
sS'09177'
p6067
g254
sS'09174'
p6068
g254
sS'09175'
p6069
g254
sS'09172'
p6070
g254
sS'09173'
p6071
g254
sS'31011'
p6072
g16
sS'12176'
p6073
g63
sS'12177'
p6074
g63
sS'12174'
p6075
g63
sS'12175'
p6076
g63
sS'12170'
p6077
g63
sS'12171'
p6078
g63
sS'08696'
p6079
g118
sS'12179'
p6080
g63
sS'08690'
p6081
g118
sS'08691'
p6082
g118
sS'08120'
p6083
g118
sS'10118'
p6084
g170
sS'10119'
p6085
g170
sS'10116'
p6086
g170
sS'10117'
p6087
g170
sS'10114'
p6088
g170
sS'08121'
p6089
g118
sS'10112'
p6090
g170
sS'10113'
p6091
g170
sS'10110'
p6092
g170
sS'10111'
p6093
g170
sS'01129'
p6094
g94
sS'01128'
p6095
g94
sS'23580'
p6096
g116
sS'01121'
p6097
g94
sS'01120'
p6098
g94
sS'01123'
p6099
g94
sS'01122'
p6100
g94
sS'01125'
p6101
g94
sS'01124'
p6102
g94
sS'01127'
p6103
g94
sS'01126'
p6104
g94
sS'03141'
p6105
g152
sS'08444'
p6106
g118
sS'03143'
p6107
g152
sS'03142'
p6108
g152
sS'03145'
p6109
g152
sS'03144'
p6110
g152
sS'03147'
p6111
g152
sS'08449'
p6112
g118
sS'28223'
p6113
g54
sS'28222'
p6114
g54
sS'28221'
p6115
g54
sS'28009'
p6116
g54
sS'28008'
p6117
g54
sS'28007'
p6118
g54
sS'28006'
p6119
g54
sS'28005'
p6120
g54
sS'28004'
p6121
g54
sS'28003'
p6122
g54
sS'28002'
p6123
g54
sS'28001'
p6124
g54
sS'28000'
p6125
g54
sS'28225'
p6126
g54
sS'28224'
p6127
g54
sS'14356'
p6128
g106
sS'13971'
p6129
g116
sS'13970'
p6130
g116
sS'13973'
p6131
g116
sS'13972'
p6132
g116
sS'13975'
p6133
g116
sS'13974'
p6134
g116
sS'13977'
p6135
g116
sS'35187'
p6136
g2
sS'13979'
p6137
g116
sS'42240'
p6138
g118
sS'18116'
p6139
g54
sS'18117'
p6140
g54
sS'18114'
p6141
g54
sS'18112'
p6142
g54
sS'18110'
p6143
g54
sS'18119'
p6144
g54
sS'18501'
p6145
g54
sS'09112'
p6146
g254
sS'18505'
p6147
g54
sS'18507'
p6148
g54
sS'06955'
p6149
g23
sS'18506'
p6150
g54
sS'28305'
p6151
g54
sS'11238'
p6152
g16
sS'11239'
p6153
g16
sS'07241'
p6154
g565
sS'11230'
p6155
g16
sS'11231'
p6156
g16
sS'11232'
p6157
g16
sS'11233'
p6158
g16
sS'11234'
p6159
g16
sS'11235'
p6160
g16
sS'11236'
p6161
g16
sS'11237'
p6162
g16
sS'28306'
p6163
g54
sS'42297'
p6164
g118
sS'28307'
p6165
g54
sS'23428'
p6166
g116
sS'23429'
p6167
g116
sS'23424'
p6168
g116
sS'23425'
p6169
g116
sS'23426'
p6170
g116
sS'23427'
p6171
g116
sS'23420'
p6172
g116
sS'23421'
p6173
g116
sS'23422'
p6174
g116
sS'23423'
p6175
g116
sS'28300'
p6176
g54
sS'28301'
p6177
g54
sS'16619'
p6178
g43
sS'16618'
p6179
g43
sS'16613'
p6180
g43
sS'16611'
p6181
g43
sS'16610'
p6182
g43
sS'16617'
p6183
g43
sS'16616'
p6184
g43
sS'16615'
p6185
g43
sS'16614'
p6186
g43
sS'06043'
p6187
g23
sS'06042'
p6188
g23
sS'06041'
p6189
g23
sS'06040'
p6190
g23
sS'06047'
p6191
g23
sS'06046'
p6192
g23
sS'06045'
p6193
g23
sS'06044'
p6194
g23
sS'06049'
p6195
g23
sS'06048'
p6196
g23
sS'10949'
p6197
g170
sS'10948'
p6198
g170
sS'10940'
p6199
g170
sS'10943'
p6200
g170
sS'10942'
p6201
g170
sS'10945'
p6202
g170
sS'10944'
p6203
g170
sS'10947'
p6204
g170
sS'10946'
p6205
g170
sS'28303'
p6206
g54
sS'18320'
p6207
g54
sS'21162'
p6208
g13
sS'21161'
p6209
g13
sS'21160'
p6210
g13
sS'18323'
p6211
g54
sS'18322'
p6212
g54
sS'18325'
p6213
g54
sS'18324'
p6214
g54
sS'43075'
p6215
g152
sS'18327'
p6216
g54
sS'43078'
p6217
g94
sS'05662'
p6218
g84
sS'05663'
p6219
g84
sS'21345'
p6220
g13
sS'05661'
p6221
g84
sS'05666'
p6222
g84
sS'05667'
p6223
g84
sS'05664'
p6224
g84
sS'05665'
p6225
g84
sS'05668'
p6226
g84
sS'05669'
p6227
g84
sS'20324'
p6228
g462
sS'21349'
p6229
g13
sS'21348'
p6230
g13
sS'20325'
p6231
g462
sS'22928'
p6232
g140
sS'22929'
p6233
g140
sS'20320'
p6234
g462
sS'20321'
p6235
g462
sS'13498'
p6236
g116
sS'13499'
p6237
g116
sS'13492'
p6238
g116
sS'13493'
p6239
g116
sS'13490'
p6240
g116
sS'13491'
p6241
g116
sS'13496'
p6242
g116
sS'13497'
p6243
g116
sS'13494'
p6244
g116
sS'13495'
p6245
g116
sS'14113'
p6246
g106
sS'14116'
p6247
g106
sS'14117'
p6248
g106
sS'18477'
p6249
g54
sS'14119'
p6250
g106
sS'13147'
p6251
g116
sS'13148'
p6252
g116
sS'13149'
p6253
g116
sS'44061'
p6254
g11
sS'36048'
p6255
g952
sS'36049'
p6256
g952
sS'36044'
p6257
g952
sS'36045'
p6258
g952
sS'36046'
p6259
g952
sS'36047'
p6260
g952
sS'36040'
p6261
g952
sS'19359'
p6262
g11
sS'36042'
p6263
g952
sS'36043'
p6264
g952
sS'18619'
p6265
g54
sS'18610'
p6266
g54
sS'18612'
p6267
g54
sS'18615'
p6268
g54
sS'18614'
p6269
g54
sS'18617'
p6270
g54
sS'18616'
p6271
g54
sS'04539'
p6272
g252
sS'20345'
p6273
g462
sS'04534'
p6274
g252
sS'04536'
p6275
g252
sS'04531'
p6276
g252
sS'04530'
p6277
g252
sS'04532'
p6278
g252
sS'08148'
p6279
g118
sS'08639'
p6280
g118
sS'08637'
p6281
g118
sS'08634'
p6282
g118
sS'08635'
p6283
g118
sS'08632'
p6284
g118
sS'08633'
p6285
g118
sS'08146'
p6286
g118
sS'08631'
p6287
g118
sS'08286'
p6288
g118
sS'03089'
p6289
g152
sS'03084'
p6290
g152
sS'03085'
p6291
g152
sS'03081'
p6292
g152
sS'03082'
p6293
g152
sS'03083'
p6294
g152
sS'06451'
p6295
g23
sS'06453'
p6296
g23
sS'06454'
p6297
g23
sS'06456'
p6298
g23
sS'06457'
p6299
g23
sS'06459'
p6300
g23
sS'11397'
p6301
g16
sS'11396'
p6302
g16
sS'11395'
p6303
g16
sS'11394'
p6304
g16
sS'11393'
p6305
g16
sS'11392'
p6306
g16
sS'11391'
p6307
g16
sS'11390'
p6308
g16
sS'43245'
p6309
g118
sS'11399'
p6310
g16
sS'11398'
p6311
g16
sS'19433'
p6312
g32
sS'19436'
p6313
g32
sS'19437'
p6314
g32
sS'19434'
p6315
g32
sS'19435'
p6316
g32
sS'19438'
p6317
g32
sS'19439'
p6318
g32
sS'02025'
p6319
g416
sS'02024'
p6320
g416
sS'02027'
p6321
g416
sS'02026'
p6322
g416
sS'02021'
p6323
g416
sS'02020'
p6324
g416
sS'02023'
p6325
g416
sS'02022'
p6326
g416
sS'02029'
p6327
g416
sS'02028'
p6328
g416
sS'16281'
p6329
g43
sS'21344'
p6330
g13
sS'28078'
p6331
g54
sS'23038'
p6332
g116
sS'28076'
p6333
g54
sS'28077'
p6334
g54
sS'28074'
p6335
g54
sS'28075'
p6336
g54
sS'28072'
p6337
g54
sS'28073'
p6338
g54
sS'28070'
p6339
g54
sS'28071'
p6340
g54
sS'28296'
p6341
g54
sS'28297'
p6342
g54
sS'28294'
p6343
g54
sS'28295'
p6344
g54
sS'28292'
p6345
g54
sS'13394'
p6346
g116
sS'12158'
p6347
g63
sS'12154'
p6348
g63
sS'12155'
p6349
g63
sS'12156'
p6350
g63
sS'12157'
p6351
g63
sS'12151'
p6352
g63
sS'12152'
p6353
g63
sS'10134'
p6354
g170
sS'10136'
p6355
g170
sS'10137'
p6356
g170
sS'10130'
p6357
g170
sS'10132'
p6358
g170
sS'10138'
p6359
g170
sS'28298'
p6360
g54
sS'28299'
p6361
g54
sS'13399'
p6362
g116
sS'09154'
p6363
g254
sS'09156'
p6364
g254
sS'27052'
p6365
g23
sS'09150'
p6366
g254
sS'09152'
p6367
g254
sS'09153'
p6368
g254
sS'09159'
p6369
g254
sS'04030'
p6370
g252
sS'08284'
p6371
g118
sS'04031'
p6372
g252
sS'08288'
p6373
g118
sS'05345'
p6374
g84
sS'05344'
p6375
g84
sS'05347'
p6376
g84
sS'05346'
p6377
g84
sS'05341'
p6378
g84
sS'05343'
p6379
g84
sS'05342'
p6380
g84
sS'09002'
p6381
g254
sS'05349'
p6382
g84
sS'05348'
p6383
g84
sS'01107'
p6384
g94
sS'01106'
p6385
g94
sS'01105'
p6386
g94
sS'01104'
p6387
g94
sS'01103'
p6388
g94
sS'01102'
p6389
g94
sS'09001'
p6390
g254
sS'43529'
p6391
g152
sS'01109'
p6392
g94
sS'01108'
p6393
g94
sS'08023'
p6394
g118
sS'43528'
p6395
g106
sS'08463'
p6396
g118
sS'08462'
p6397
g118
sS'03169'
p6398
g152
sS'03168'
p6399
g152
sS'03167'
p6400
g152
sS'03166'
p6401
g152
sS'08469'
p6402
g118
sS'03164'
p6403
g152
sS'03163'
p6404
g152
sS'03162'
p6405
g152
sS'03161'
p6406
g152
sS'03160'
p6407
g152
sS'14255'
p6408
g106
sS'43523'
p6409
g152
sS'14257'
p6410
g106
sS'14256'
p6411
g106
sS'14251'
p6412
g106
sS'14250'
p6413
g106
sS'14253'
p6414
g106
sS'14252'
p6415
g106
sS'14259'
p6416
g106
sS'14258'
p6417
g106
sS'18288'
p6418
g54
sS'18289'
p6419
g54
sS'14618'
p6420
g106
sS'13959'
p6421
g116
sS'13958'
p6422
g116
sS'13957'
p6423
g116
sS'13956'
p6424
g116
sS'13955'
p6425
g116
sS'13954'
p6426
g116
sS'13953'
p6427
g116
sS'13952'
p6428
g116
sS'13951'
p6429
g116
sS'13950'
p6430
g116
sS'07081'
p6431
g565
sS'07083'
p6432
g565
sS'18139'
p6433
g54
sS'07088'
p6434
g565
sS'07089'
p6435
g565
sS'14617'
p6436
g106
sS'18133'
p6437
g54
sS'35001'
p6438
g2
sS'11888'
p6439
g16
sS'31035'
p6440
g16
sS'35003'
p6441
g2
sS'28227'
p6442
g54
sS'35004'
p6443
g2
sS'35007'
p6444
g2
sS'28226'
p6445
g54
sS'23198'
p6446
g116
sS'23199'
p6447
g116
sS'23628'
p6448
g116
sS'23629'
p6449
g116
sS'23194'
p6450
g116
sS'23195'
p6451
g116
sS'23196'
p6452
g116
sS'21384'
p6453
g13
sS'23190'
p6454
g116
sS'23191'
p6455
g116
sS'23192'
p6456
g116
sS'23193'
p6457
g116
sS'15076'
p6458
g491
sS'15077'
p6459
g491
sS'15074'
p6460
g491
sS'15075'
p6461
g491
sS'15072'
p6462
g491
sS'15073'
p6463
g491
sS'15070'
p6464
g491
sS'15071'
p6465
g491
sS'15078'
p6466
g491
sS'15079'
p6467
g491
sS'16346'
p6468
g43
sS'19821'
p6469
g32
sS'19921'
p6470
g11
sS'19823'
p6471
g32
sS'23448'
p6472
g116
sS'23449'
p6473
g116
sS'23442'
p6474
g116
sS'23443'
p6475
g116
sS'23440'
p6476
g116
sS'23441'
p6477
g116
sS'23446'
p6478
g116
sS'23447'
p6479
g116
sS'23444'
p6480
g116
sS'23445'
p6481
g116
sS'18242'
p6482
g54
sS'18240'
p6483
g54
sS'18241'
p6484
g54
sS'18247'
p6485
g54
sS'19375'
p6486
g11
sS'19371'
p6487
g11
sS'18244'
p6488
g54
sS'19372'
p6489
g11
sS'18245'
p6490
g54
sS'19379'
p6491
g11
sS'06029'
p6492
g23
sS'06028'
p6493
g23
sS'10963'
p6494
g170
sS'10962'
p6495
g170
sS'10961'
p6496
g170
sS'10960'
p6497
g170
sS'06023'
p6498
g23
sS'06022'
p6499
g23
sS'06025'
p6500
g23
sS'06024'
p6501
g23
sS'06027'
p6502
g23
sS'06026'
p6503
g23
sS'21101'
p6504
g13
sS'21100'
p6505
g13
sS'21102'
p6506
g13
sS'21105'
p6507
g13
sS'21107'
p6508
g13
sS'21106'
p6509
g13
sS'21109'
p6510
g13
sS'21108'
p6511
g13
sS'43057'
p6512
g11
sS'43059'
p6513
g11
sS'43058'
p6514
g11
sS'05648'
p6515
g84
sS'05649'
p6516
g84
sS'05138'
p6517
g84
sS'05139'
p6518
g84
sS'05136'
p6519
g84
sS'05137'
p6520
g84
sS'05134'
p6521
g84
sS'05135'
p6522
g84
sS'05132'
p6523
g84
sS'05133'
p6524
g84
sS'05130'
p6525
g84
sS'05131'
p6526
g84
sS'22908'
p6527
g140
sS'19017'
p6528
g32
sS'22900'
p6529
g140
sS'22901'
p6530
g140
sS'22902'
p6531
g13
sS'22903'
p6532
g13
sS'22904'
p6533
g140
sS'22905'
p6534
g140
sS'22906'
p6535
g140
sS'03998'
p6536
g152
sS'03999'
p6537
g152
sS'03996'
p6538
g152
sS'03997'
p6539
g152
sS'03994'
p6540
g152
sS'03995'
p6541
g152
sS'03992'
p6542
g152
sS'03993'
p6543
g152
sS'03990'
p6544
g152
sS'03991'
p6545
g152
sS'11616'
p6546
g16
sS'11617'
p6547
g16
sS'11614'
p6548
g16
sS'11615'
p6549
g16
sS'11613'
p6550
g16
sS'11618'
p6551
g16
sS'14138'
p6552
g106
sS'18459'
p6553
g54
sS'11948'
p6554
g16
sS'11949'
p6555
g16
sS'14130'
p6556
g106
sS'11947'
p6557
g16
sS'14132'
p6558
g106
sS'11945'
p6559
g16
sS'14134'
p6560
g106
sS'14135'
p6561
g106
sS'14136'
p6562
g106
sS'14137'
p6563
g106
sS'18060'
p6564
g54
sS'18061'
p6565
g54
sS'18066'
p6566
g54
sS'33864'
p6567
g152
sS'36028'
p6568
g952
sS'36029'
p6569
g952
sS'33867'
p6570
g152
sS'36022'
p6571
g952
sS'36023'
p6572
g952
sS'36020'
p6573
g952
sS'18065'
p6574
g54
sS'36026'
p6575
g952
sS'36027'
p6576
g952
sS'36024'
p6577
g952
sS'36025'
p6578
g952
sS'04518'
p6579
g252
sS'04513'
p6580
g252
sS'04511'
p6581
g252
sS'04510'
p6582
g252
sS'04517'
p6583
g252
sS'04516'
p6584
g252
sS'04515'
p6585
g252
sS'04514'
p6586
g252
sS'10093'
p6587
g170
sS'08615'
p6588
g118
sS'08617'
p6589
g118
sS'08610'
p6590
g118
sS'10096'
p6591
g170
sS'08613'
p6592
g118
sS'10099'
p6593
g170
sS'10098'
p6594
g170
sS'18931'
p6595
g54
sS'18637'
p6596
g54
sS'18635'
p6597
g54
sS'18634'
p6598
g54
sS'14390'
p6599
g106
sS'18632'
p6600
g54
sS'18631'
p6601
g54
sS'18630'
p6602
g54
sS'18639'
p6603
g54
sS'06341'
p6604
g23
sS'06342'
p6605
g23
sS'19089'
p6606
g11
sS'06611'
p6607
g23
sS'06617'
p6608
g23
sS'06615'
p6609
g23
sS'06618'
p6610
g23
sS'06619'
p6611
g23
sS'03206'
p6612
g152
sS'03205'
p6613
g152
sS'03201'
p6614
g152
sS'03209'
p6615
g152
sS'23299'
p6616
g116
sS'23298'
p6617
g116
sS'23297'
p6618
g116
sS'23296'
p6619
g116
sS'23295'
p6620
g116
sS'23294'
p6621
g116
sS'23293'
p6622
g116
sS'23292'
p6623
g116
sS'23291'
p6624
g116
sS'23290'
p6625
g116
sS'09109'
p6626
g254
sS'43260'
p6627
g94
sS'43261'
p6628
g94
sS'43268'
p6629
g94
sS'43269'
p6630
g11
sS'11379'
p6631
g16
sS'11378'
p6632
g16
sS'11374'
p6633
g16
sS'18486'
p6634
g54
sS'11376'
p6635
g16
sS'11371'
p6636
g16
sS'11370'
p6637
g16
sS'11373'
p6638
g16
sS'11372'
p6639
g16
sS'19418'
p6640
g32
sS'19419'
p6641
g32
sS'19148'
p6642
g11
sS'19149'
p6643
g11
sS'19146'
p6644
g11
sS'19147'
p6645
g11
sS'19144'
p6646
g11
sS'09452'
p6647
g254
sS'19142'
p6648
g11
sS'19143'
p6649
g11
sS'19140'
p6650
g11
sS'19141'
p6651
g11
sS'20381'
p6652
g462
sS'02003'
p6653
g416
sS'02002'
p6654
g416
sS'02001'
p6655
g416
sS'02007'
p6656
g416
sS'02006'
p6657
g416
sS'02005'
p6658
g416
sS'02004'
p6659
g416
sS'02009'
p6660
g416
sS'02008'
p6661
g416
sS'14434'
p6662
g106
sS'14437'
p6663
g106
sS'14436'
p6664
g106
sS'14431'
p6665
g106
sS'14430'
p6666
g106
sS'14432'
p6667
g106
sS'11158'
p6668
g16
sS'43595'
p6669
g32
sS'12138'
p6670
g63
sS'28325'
p6671
g54
sS'12132'
p6672
g63
sS'12130'
p6673
g63
sS'12131'
p6674
g63
sS'12136'
p6675
g63
sS'12137'
p6676
g63
sS'12135'
p6677
g63
sS'10152'
p6678
g170
sS'10153'
p6679
g170
sS'10150'
p6680
g170
sS'10158'
p6681
g170
sS'28313'
p6682
g54
sS'28312'
p6683
g54
sS'28311'
p6684
g54
sS'28310'
p6685
g54
sS'28317'
p6686
g54
sS'28316'
p6687
g54
sS'09132'
p6688
g254
sS'09133'
p6689
g254
sS'03837'
p6690
g152
sS'09131'
p6691
g254
sS'03830'
p6692
g152
sS'09134'
p6693
g254
sS'03832'
p6694
g152
sS'09138'
p6695
g254
sS'09139'
p6696
g254
sS'03839'
p6697
g152
sS'03838'
p6698
g152
sS'08268'
p6699
g118
sS'08267'
p6700
g118
sS'08261'
p6701
g118
sS'08263'
p6702
g118
sS'08262'
p6703
g118
sS'05363'
p6704
g84
sS'05362'
p6705
g84
sS'05361'
p6706
g84
sS'14093'
p6707
g106
sS'14092'
p6708
g106
sS'14091'
p6709
g106
sS'14090'
p6710
g106
sS'14099'
p6711
g106
sS'14098'
p6712
g106
sS'18431'
p6713
g54
sS'18430'
p6714
g54
sS'28321'
p6715
g54
sS'18432'
p6716
g54
sS'18435'
p6717
g54
sS'18434'
p6718
g54
sS'08409'
p6719
g118
sS'18437'
p6720
g54
sS'08402'
p6721
g118
sS'14270'
p6722
g106
sS'14277'
p6723
g106
sS'14276'
p6724
g106
sS'28388'
p6725
g54
sS'14279'
p6726
g106
sS'14278'
p6727
g106
sS'20065'
p6728
g462
sS'20064'
p6729
g462
sS'20067'
p6730
g462
sS'20066'
p6731
g462
sS'20061'
p6732
g462
sS'20060'
p6733
g462
sS'20063'
p6734
g462
sS'20062'
p6735
g462
sS'20069'
p6736
g462
sS'20068'
p6737
g462
sS'28389'
p6738
g54
sS'18158'
p6739
g54
sS'18159'
p6740
g54
sS'07068'
p6741
g565
sS'07069'
p6742
g565
sS'07066'
p6743
g565
sS'07067'
p6744
g565
sS'07064'
p6745
g565
sS'07065'
p6746
g565
sS'07062'
p6747
g565
sS'07063'
p6748
g565
sS'07060'
p6749
g565
sS'07061'
p6750
g565
sS'23604'
p6751
g116
sS'23605'
p6752
g116
sS'23606'
p6753
g116
sS'23607'
p6754
g116
sS'23600'
p6755
g116
sS'23601'
p6756
g116
sS'23602'
p6757
g116
sS'23603'
p6758
g116
sS'23608'
p6759
g116
sS'23609'
p6760
g116
sS'28384'
p6761
g54
sS'07209'
p6762
g565
sS'07201'
p6763
g565
sS'07207'
p6764
g565
sS'15058'
p6765
g491
sS'15059'
p6766
g491
sS'15054'
p6767
g491
sS'15055'
p6768
g491
sS'15056'
p6769
g491
sS'15057'
p6770
g491
sS'15050'
p6771
g491
sS'15051'
p6772
g491
sS'15052'
p6773
g491
sS'15053'
p6774
g491
sS'35144'
p6775
g2
sS'35145'
p6776
g2
sS'35146'
p6777
g2
sS'35147'
p6778
g2
sS'35140'
p6779
g2
sS'35141'
p6780
g2
sS'35142'
p6781
g2
sS'35143'
p6782
g2
sS'35148'
p6783
g2
sS'35149'
p6784
g2
sS'23460'
p6785
g116
sS'23461'
p6786
g116
sS'23462'
p6787
g116
sS'23463'
p6788
g116
sS'23464'
p6789
g116
sS'23465'
p6790
g116
sS'23466'
p6791
g116
sS'23467'
p6792
g116
sS'23468'
p6793
g116
sS'23469'
p6794
g116
sS'28386'
p6795
g54
sS'28387'
p6796
g54
sS'19353'
p6797
g11
sS'19352'
p6798
g11
sS'19351'
p6799
g11
sS'19350'
p6800
g11
sS'16129'
p6801
g43
sS'16128'
p6802
g43
sS'19355'
p6803
g11
sS'16125'
p6804
g43
sS'16124'
p6805
g43
sS'16127'
p6806
g43
sS'16126'
p6807
g43
sS'16121'
p6808
g43
sS'16120'
p6809
g43
sS'16123'
p6810
g43
sS'16122'
p6811
g43
sS'06007'
p6812
g23
sS'06006'
p6813
g23
sS'06004'
p6814
g23
sS'06003'
p6815
g23
sS'06002'
p6816
g23
sS'06001'
p6817
g23
sS'06559'
p6818
g23
sS'06558'
p6819
g23
sS'06009'
p6820
g23
sS'06008'
p6821
g23
sS'10989'
p6822
g170
sS'10988'
p6823
g170
sS'10985'
p6824
g170
sS'10984'
p6825
g170
sS'10987'
p6826
g170
sS'10986'
p6827
g170
sS'10981'
p6828
g170
sS'10980'
p6829
g170
sS'10983'
p6830
g170
sS'10982'
p6831
g170
sS'28382'
p6832
g54
sS'21129'
p6833
g13
sS'21127'
p6834
g13
sS'21126'
p6835
g13
sS'21125'
p6836
g13
sS'21124'
p6837
g13
sS'21121'
p6838
g13
sS'21120'
p6839
g13
sS'17423'
p6840
g70
sS'17422'
p6841
g70
sS'19087'
p6842
g11
sS'17421'
p6843
g70
sS'19086'
p6844
g11
sS'28383'
p6845
g54
sS'17420'
p6846
g70
sS'19085'
p6847
g11
sS'17427'
p6848
g70
sS'19084'
p6849
g11
sS'17426'
p6850
g70
sS'11587'
p6851
g16
sS'11584'
p6852
g16
sS'11585'
p6853
g16
sS'11583'
p6854
g16
sS'11581'
p6855
g16
sS'43031'
p6856
g11
sS'17424'
p6857
g70
sS'16057'
p6858
g43
sS'11588'
p6859
g16
sS'21389'
p6860
g13
sS'16056'
p6861
g43
sS'21383'
p6862
g13
sS'21382'
p6863
g13
sS'21381'
p6864
g13
sS'21380'
p6865
g13
sS'21387'
p6866
g13
sS'21386'
p6867
g13
sS'21385'
p6868
g13
sS'16050'
p6869
g43
sS'17298'
p6870
g70
sS'17299'
p6871
g70
sS'17294'
p6872
g70
sS'17295'
p6873
g70
sS'17296'
p6874
g70
sS'17297'
p6875
g70
sS'17290'
p6876
g70
sS'17291'
p6877
g70
sS'17292'
p6878
g70
sS'17293'
p6879
g70
sS'90240'
p6880
g491
sS'13459'
p6881
g116
sS'13456'
p6882
g116
sS'13454'
p6883
g116
sS'13455'
p6884
g116
sS'13452'
p6885
g116
sS'13453'
p6886
g116
sS'13450'
p6887
g116
sS'13451'
p6888
g116
sS'11634'
p6889
g16
sS'11637'
p6890
g16
sS'11632'
p6891
g16
sS'43098'
p6892
g11
sS'20656'
p6893
g462
sS'20657'
p6894
g462
sS'20654'
p6895
g462
sS'20655'
p6896
g462
sS'20652'
p6897
g462
sS'20653'
p6898
g462
sS'20650'
p6899
g462
sS'20651'
p6900
g462
sS'36000'
p6901
g952
sS'36001'
p6902
g952
sS'36002'
p6903
g952
sS'36003'
p6904
g952
sS'36004'
p6905
g952
sS'36005'
p6906
g952
sS'36006'
p6907
g952
sS'36007'
p6908
g952
sS'36008'
p6909
g952
sS'36009'
p6910
g952
sS'05114'
p6911
g84
sS'05115'
p6912
g84
sS'05116'
p6913
g84
sS'05117'
p6914
g84
sS'05110'
p6915
g84
sS'05111'
p6916
g84
sS'05112'
p6917
g84
sS'05113'
p6918
g84
sS'05118'
p6919
g84
sS'05119'
p6920
g84
sS'04570'
p6921
g252
sS'04573'
p6922
g252
sS'04572'
p6923
g252
sS'04575'
p6924
g252
sS'04574'
p6925
g252
sS'04576'
p6926
g252
sS'08672'
p6927
g118
sS'08673'
p6928
g118
sS'08670'
p6929
g118
sS'08671'
p6930
g118
sS'08676'
p6931
g118
sS'08677'
p6932
g118
sS'08674'
p6933
g118
sS'08675'
p6934
g118
sS'08678'
p6935
g118
sS'08679'
p6936
g118
sS'11964'
p6937
g16
sS'11965'
p6938
g16
sS'18433'
p6939
g54
sS'11967'
p6940
g16
sS'11960'
p6941
g16
sS'11961'
p6942
g16
sS'11962'
p6943
g16
sS'11963'
p6944
g16
sS'18439'
p6945
g54
sS'18438'
p6946
g54
sS'11968'
p6947
g16
sS'11969'
p6948
g16
sS'10215'
p6949
g170
sS'10214'
p6950
g170
sS'10217'
p6951
g170
sS'10216'
p6952
g170
sS'10211'
p6953
g170
sS'10210'
p6954
g170
sS'10213'
p6955
g170
sS'10212'
p6956
g170
sS'10219'
p6957
g170
sS'10218'
p6958
g170
sS'18388'
p6959
g54
sS'18386'
p6960
g54
sS'18385'
p6961
g54
sS'18384'
p6962
g54
sS'18383'
p6963
g54
sS'08096'
p6964
g118
sS'08094'
p6965
g118
sS'08092'
p6966
g118
sS'08093'
p6967
g118
sS'08090'
p6968
g118
sS'08091'
p6969
g118
sS'21336'
p6970
g13
sS'21337'
p6971
g13
sS'21334'
p6972
g13
sS'21335'
p6973
g13
sS'21444'
p6974
g13
sS'21333'
p6975
g13
sS'21446'
p6976
g13
sS'06630'
p6977
g23
sS'06631'
p6978
g23
sS'06632'
p6979
g23
sS'06633'
p6980
g23
sS'25007'
p6981
g32
sS'03228'
p6982
g152
sS'03229'
p6983
g152
sS'03224'
p6984
g152
sS'03225'
p6985
g152
sS'03226'
p6986
g152
sS'03227'
p6987
g152
sS'03220'
p6988
g152
sS'03221'
p6989
g152
sS'03222'
p6990
g152
sS'28234'
p6991
g54
sS'11037'
p6992
g16
sS'28236'
p6993
g54
sS'28237'
p6994
g54
sS'11032'
p6995
g16
sS'11033'
p6996
g16
sS'11030'
p6997
g16
sS'11031'
p6998
g16
sS'28238'
p6999
g54
sS'28239'
p7000
g54
sS'11038'
p7001
g16
sS'11039'
p7002
g16
sS'21339'
p7003
g13
sS'28067'
p7004
g54
sS'21014'
p7005
g13
sS'21013'
p7006
g13
sS'21012'
p7007
g13
sS'43205'
p7008
g94
sS'21010'
p7009
g13
sS'19164'
p7010
g11
sS'19165'
p7011
g11
sS'11359'
p7012
g16
sS'11358'
p7013
g16
sS'19160'
p7014
g11
sS'19161'
p7015
g11
sS'19162'
p7016
g11
sS'19163'
p7017
g11
sS'11353'
p7018
g16
sS'11352'
p7019
g16
sS'11351'
p7020
g16
sS'11350'
p7021
g16
sS'11357'
p7022
g16
sS'11356'
p7023
g16
sS'11355'
p7024
g16
sS'11354'
p7025
g16
sS'07944'
p7026
g565
sS'02069'
p7027
g416
sS'02068'
p7028
g416
sS'19296'
p7029
g11
sS'19297'
p7030
g11
sS'19294'
p7031
g11
sS'19295'
p7032
g11
sS'02063'
p7033
g416
sS'07942'
p7034
g565
sS'02065'
p7035
g416
sS'02064'
p7036
g416
sS'02066'
p7037
g416
sS'06494'
p7038
g23
sS'06497'
p7039
g23
sS'06498'
p7040
g23
sS'03929'
p7041
g152
sS'03928'
p7042
g152
sS'09246'
p7043
g254
sS'09247'
p7044
g254
sS'16357'
p7045
g43
sS'16353'
p7046
g43
sS'16350'
p7047
g43
sS'16358'
p7048
g43
sS'16359'
p7049
g43
sS'12110'
p7050
g63
sS'12114'
p7051
g63
sS'12115'
p7052
g63
sS'12116'
p7053
g63
sS'12117'
p7054
g63
sS'12118'
p7055
g63
sS'12119'
p7056
g63
sS'17199'
p7057
g70
sS'17198'
p7058
g70
sS'17197'
p7059
g70
sS'17196'
p7060
g70
sS'17195'
p7061
g70
sS'17194'
p7062
g70
sS'17193'
p7063
g70
sS'17192'
p7064
g70
sS'17191'
p7065
g70
sS'17190'
p7066
g70
sS'10178'
p7067
g170
sS'10179'
p7068
g170
sS'28235'
p7069
g54
sS'10170'
p7070
g170
sS'10171'
p7071
g170
sS'10173'
p7072
g170
sS'10174'
p7073
g170
sS'10175'
p7074
g170
sS'10176'
p7075
g170
sS'10177'
p7076
g170
sS'21246'
p7077
g13
sS'21247'
p7078
g13
sS'21244'
p7079
g13
sS'21245'
p7080
g13
sS'21242'
p7081
g13
sS'21243'
p7082
g13
sS'21240'
p7083
g13
sS'21241'
p7084
g13
sS'28230'
p7085
g54
sS'21248'
p7086
g13
sS'21249'
p7087
g13
sS'28232'
p7088
g54
sS'28233'
p7089
g54
sS'03813'
p7090
g152
sS'09119'
p7091
g254
sS'03816'
p7092
g152
sS'09448'
p7093
g254
sS'09449'
p7094
g254
sS'09110'
p7095
g254
sS'09447'
p7096
g254
sS'09444'
p7097
g254
sS'03818'
p7098
g152
sS'09442'
p7099
g254
sS'09443'
p7100
g254
sS'09440'
p7101
g254
sS'09117'
p7102
g254
sS'08249'
p7103
g118
sS'08243'
p7104
g118
sS'08240'
p7105
g118
sS'08247'
p7106
g118
sS'08245'
p7107
g118
sS'08244'
p7108
g118
sS'05309'
p7109
g84
sS'05308'
p7110
g84
sS'14079'
p7111
g106
sS'05301'
p7112
g84
sS'05300'
p7113
g84
sS'05303'
p7114
g84
sS'05302'
p7115
g84
sS'05305'
p7116
g84
sS'05304'
p7117
g84
sS'05307'
p7118
g84
sS'05306'
p7119
g84
sS'20090'
p7120
g462
sS'35134'
p7121
g2
sS'20091'
p7122
g462
sS'14219'
p7123
g106
sS'14218'
p7124
g106
sS'14211'
p7125
g106
sS'14210'
p7126
g106
sS'14215'
p7127
g106
sS'14214'
p7128
g106
sS'14217'
p7129
g106
sS'14216'
p7130
g106
sS'20042'
p7131
g462
sS'20041'
p7132
g462
sS'20040'
p7133
g462
sS'20047'
p7134
g462
sS'20046'
p7135
g462
sS'20045'
p7136
g462
sS'20044'
p7137
g462
sS'20049'
p7138
g462
sS'20048'
p7139
g462
sS'36615'
p7140
g952
sS'36614'
p7141
g952
sS'36617'
p7142
g952
sS'32036'
p7143
g140
sS'36611'
p7144
g952
sS'36610'
p7145
g952
sS'36613'
p7146
g952
sS'36612'
p7147
g952
sS'32031'
p7148
g140
sS'36619'
p7149
g952
sS'36618'
p7150
g952
sS'07044'
p7151
g565
sS'07045'
p7152
g565
sS'07046'
p7153
g565
sS'18173'
p7154
g54
sS'07040'
p7155
g565
sS'07041'
p7156
g565
sS'18176'
p7157
g54
sS'07043'
p7158
g565
sS'18178'
p7159
g54
sS'18179'
p7160
g54
sS'32032'
p7161
g140
sS'18513'
p7162
g54
sS'07956'
p7163
g565
sS'07957'
p7164
g565
sS'07954'
p7165
g565
sS'07955'
p7166
g565
sS'07952'
p7167
g565
sS'07953'
p7168
g565
sS'07950'
p7169
g565
sS'07951'
p7170
g565
sS'10097'
p7171
g170
sS'28399'
p7172
g54
sS'07958'
p7173
g565
sS'07959'
p7174
g565
sS'20096'
p7175
g462
sS'11172'
p7176
g16
sS'15038'
p7177
g491
sS'15039'
p7178
g491
sS'15032'
p7179
g491
sS'15033'
p7180
g491
sS'15030'
p7181
g491
sS'15031'
p7182
g491
sS'15036'
p7183
g491
sS'15037'
p7184
g491
sS'15034'
p7185
g491
sS'15035'
p7186
g491
sS'23484'
p7187
g116
sS'23485'
p7188
g116
sS'23482'
p7189
g116
sS'23483'
p7190
g116
sS'23480'
p7191
g116
sS'23481'
p7192
g116
sS'16109'
p7193
g43
sS'16108'
p7194
g43
sS'16103'
p7195
g43
sS'16102'
p7196
g43
sS'16101'
p7197
g43
sS'16100'
p7198
g43
sS'16107'
p7199
g43
sS'16106'
p7200
g43
sS'19337'
p7201
g11
sS'16104'
p7202
g43
sS'22535'
p7203
g140
sS'22537'
p7204
g140
sS'13885'
p7205
g116
sS'13884'
p7206
g116
sS'13887'
p7207
g116
sS'13886'
p7208
g116
sS'13881'
p7209
g116
sS'13880'
p7210
g116
sS'13883'
p7211
g116
sS'13882'
p7212
g116
sS'13889'
p7213
g116
sS'13888'
p7214
g116
sS'18339'
p7215
g54
sS'19168'
p7216
g11
sS'19169'
p7217
g11
sS'43017'
p7218
g252
sS'43016'
p7219
g252
sS'43015'
p7220
g252
sS'43544'
p7221
g152
sS'43546'
p7222
g152
sS'43019'
p7223
g252
sS'18334'
p7224
g54
sS'21264'
p7225
g13
sS'18335'
p7226
g54
sS'13474'
p7227
g116
sS'13477'
p7228
g116
sS'13470'
p7229
g116
sS'21265'
p7230
g13
sS'13473'
p7231
g116
sS'20317'
p7232
g462
sS'13478'
p7233
g116
sS'13479'
p7234
g116
sS'20316'
p7235
g462
sS'11658'
p7236
g16
sS'11659'
p7237
g16
sS'11653'
p7238
g16
sS'11656'
p7239
g16
sS'11657'
p7240
g16
sS'11654'
p7241
g16
sS'11655'
p7242
g16
sS'05172'
p7243
g84
sS'05173'
p7244
g84
sS'05170'
p7245
g84
sS'05171'
p7246
g84
sS'05176'
p7247
g84
sS'05177'
p7248
g84
sS'05174'
p7249
g84
sS'05175'
p7250
g84
sS'05178'
p7251
g84
sS'05179'
p7252
g84
sS'20450'
p7253
g462
sS'20451'
p7254
g462
sS'20452'
p7255
g462
sS'20453'
p7256
g462
sS'09309'
p7257
g254
sS'04559'
p7258
g252
sS'04556'
p7259
g252
sS'09307'
p7260
g254
sS'04554'
p7261
g252
sS'09301'
p7262
g254
sS'04551'
p7263
g252
sS'04550'
p7264
g252
sS'08658'
p7265
g118
sS'06546'
p7266
g23
sS'06547'
p7267
g23
sS'08651'
p7268
g118
sS'08652'
p7269
g118
sS'08653'
p7270
g118
sS'08655'
p7271
g118
sS'08656'
p7272
g118
sS'08657'
p7273
g118
sS'11902'
p7274
g16
sS'11903'
p7275
g16
sS'11900'
p7276
g16
sS'11901'
p7277
g16
sS'11906'
p7278
g16
sS'11907'
p7279
g16
sS'11904'
p7280
g16
sS'11905'
p7281
g16
sS'18417'
p7282
g54
sS'18416'
p7283
g54
sS'11908'
p7284
g16
sS'11909'
p7285
g16
sS'18413'
p7286
g54
sS'18412'
p7287
g54
sS'06543'
p7288
g23
sS'06541'
p7289
g23
sS'21505'
p7290
g13
sS'21507'
p7291
g13
sS'21506'
p7292
g13
sS'21501'
p7293
g13
sS'21500'
p7294
g13
sS'21503'
p7295
g13
sS'21509'
p7296
g13
sS'21508'
p7297
g13
sS'01086'
p7298
g94
sS'01087'
p7299
g94
sS'01084'
p7300
g94
sS'01085'
p7301
g94
sS'01082'
p7302
g94
sS'01083'
p7303
g94
sS'01080'
p7304
g94
sS'01081'
p7305
g94
sS'12737'
p7306
g63
sS'01088'
p7307
g94
sS'01089'
p7308
g94
sS'19292'
p7309
g11
sS'19293'
p7310
g11
sS'03026'
p7311
g152
sS'03024'
p7312
g152
sS'03025'
p7313
g152
sS'03022'
p7314
g152
sS'03023'
p7315
g152
sS'03021'
p7316
g152
sS'03246'
p7317
g152
sS'03245'
p7318
g152
sS'28252'
p7319
g54
sS'28253'
p7320
g54
sS'28250'
p7321
g54
sS'28251'
p7322
g54
sS'14538'
p7323
g106
sS'11019'
p7324
g16
sS'28254'
p7325
g54
sS'28255'
p7326
g54
sS'14534'
p7327
g106
sS'11015'
p7328
g16
sS'14536'
p7329
g106
sS'14537'
p7330
g106
sS'14530'
p7331
g106
sS'14531'
p7332
g106
sS'14532'
p7333
g106
sS'11013'
p7334
g16
sS'11333'
p7335
g16
sS'11335'
p7336
g16
sS'11334'
p7337
g16
sS'11337'
p7338
g16
sS'11339'
p7339
g16
sS'11338'
p7340
g16
sS'19102'
p7341
g11
sS'19103'
p7342
g11
sS'19100'
p7343
g11
sS'19101'
p7344
g11
sS'19106'
p7345
g11
sS'19107'
p7346
g11
sS'19104'
p7347
g11
sS'19105'
p7348
g11
sS'19108'
p7349
g11
sS'19109'
p7350
g11
sS'02047'
p7351
g416
sS'02046'
p7352
g416
sS'02045'
p7353
g416
sS'02044'
p7354
g416
sS'02043'
p7355
g416
sS'02042'
p7356
g416
sS'11489'
p7357
g16
sS'11488'
p7358
g16
sS'11487'
p7359
g16
sS'11486'
p7360
g16
sS'11485'
p7361
g16
sS'11484'
p7362
g16
sS'11483'
p7363
g16
sS'11482'
p7364
g16
sS'02049'
p7365
g416
sS'02048'
p7366
g416
sS'06960'
p7367
g23
sS'06961'
p7368
g23
sS'06962'
p7369
g23
sS'06963'
p7370
g23
sS'06964'
p7371
g23
sS'06965'
p7372
g23
sS'06966'
p7373
g23
sS'06967'
p7374
g23
sS'06968'
p7375
g23
sS'06969'
p7376
g23
sS'43483'
p7377
g118
sS'16590'
p7378
g43
sS'16591'
p7379
g43
sS'16592'
p7380
g43
sS'16593'
p7381
g43
sS'16594'
p7382
g43
sS'16596'
p7383
g43
sS'33865'
p7384
g152
sS'21080'
p7385
g13
sS'21082'
p7386
g13
sS'21083'
p7387
g13
sS'19818'
p7388
g32
sS'16379'
p7389
g43
sS'19814'
p7390
g32
sS'16375'
p7391
g43
sS'19816'
p7392
g32
sS'16377'
p7393
g43
sS'16370'
p7394
g43
sS'19811'
p7395
g32
sS'16372'
p7396
g43
sS'19813'
p7397
g32
sS'06216'
p7398
g23
sS'06217'
p7399
g23
sS'06214'
p7400
g23
sS'06215'
p7401
g23
sS'06212'
p7402
g23
sS'06213'
p7403
g23
sS'06210'
p7404
g23
sS'06211'
p7405
g23
sS'06218'
p7406
g23
sS'06219'
p7407
g23
sS'05099'
p7408
g84
sS'05098'
p7409
g84
sS'21268'
p7410
g13
sS'21269'
p7411
g13
sS'05091'
p7412
g84
sS'05090'
p7413
g84
sS'05093'
p7414
g84
sS'05092'
p7415
g84
sS'05095'
p7416
g84
sS'05094'
p7417
g84
sS'05097'
p7418
g84
sS'05096'
p7419
g84
sS'03870'
p7420
g152
sS'05327'
p7421
g84
sS'05326'
p7422
g84
sS'05324'
p7423
g84
sS'05323'
p7424
g84
sS'05320'
p7425
g84
sS'14059'
p7426
g106
sS'14058'
p7427
g106
sS'14052'
p7428
g106
sS'14051'
p7429
g106
sS'14050'
p7430
g106
sS'14057'
p7431
g106
sS'14056'
p7432
g106
sS'14055'
p7433
g106
sS'14054'
p7434
g106
sS'13228'
p7435
g116
sS'13227'
p7436
g116
sS'14237'
p7437
g106
sS'14236'
p7438
g106
sS'14235'
p7439
g106
sS'14234'
p7440
g106
sS'14233'
p7441
g106
sS'18993'
p7442
g54
sS'14231'
p7443
g106
sS'18991'
p7444
g54
sS'14239'
p7445
g106
sS'14238'
p7446
g106
sS'42285'
p7447
g152
sS'20029'
p7448
g462
sS'20028'
p7449
g462
sS'20020'
p7450
g462
sS'20023'
p7451
g462
sS'20022'
p7452
g462
sS'20025'
p7453
g462
sS'20024'
p7454
g462
sS'20027'
p7455
g462
sS'08221'
p7456
g118
sS'08220'
p7457
g118
sS'36631'
p7458
g952
sS'36630'
p7459
g952
sS'08225'
p7460
g118
sS'08228'
p7461
g118
sS'07022'
p7462
g565
sS'07020'
p7463
g565
sS'07021'
p7464
g565
sS'07026'
p7465
g565
sS'07027'
p7466
g565
sS'07024'
p7467
g565
sS'07025'
p7468
g565
sS'18196'
p7469
g54
sS'07028'
p7470
g565
sS'07029'
p7471
g565
sS'18192'
p7472
g54
sS'18193'
p7473
g54
sS'18190'
p7474
g54
sS'18191'
p7475
g54
sS'04055'
p7476
g252
sS'04053'
p7477
g252
sS'14607'
p7478
g106
sS'11896'
p7479
g16
sS'04058'
p7480
g252
sS'14605'
p7481
g106
sS'14602'
p7482
g106
sS'42286'
p7483
g152
sS'11892'
p7484
g16
sS'11893'
p7485
g16
sS'23648'
p7486
g116
sS'23649'
p7487
g116
sS'07978'
p7488
g565
sS'07979'
p7489
g565
sS'23138'
p7490
g116
sS'23139'
p7491
g116
sS'07974'
p7492
g565
sS'23137'
p7493
g116
sS'07976'
p7494
g565
sS'07977'
p7495
g565
sS'07970'
p7496
g565
sS'07971'
p7497
g565
sS'07972'
p7498
g565
sS'07973'
p7499
g565
sS'15010'
p7500
g491
sS'15011'
p7501
g491
sS'15012'
p7502
g491
sS'15013'
p7503
g491
sS'15014'
p7504
g491
sS'15015'
p7505
g491
sS'15016'
p7506
g491
sS'15017'
p7507
g491
sS'15018'
p7508
g491
sS'15019'
p7509
g491
sS'42280'
p7510
g565
sS'06545'
p7511
g23
sS'19833'
p7512
g32
sS'42283'
p7513
g32
sS'18279'
p7514
g54
sS'18278'
p7515
g54
sS'18275'
p7516
g54
sS'28115'
p7517
g54
sS'28114'
p7518
g54
sS'28117'
p7519
g54
sS'28116'
p7520
g54
sS'28111'
p7521
g54
sS'28110'
p7522
g54
sS'28113'
p7523
g54
sS'28112'
p7524
g54
sS'28119'
p7525
g54
sS'28118'
p7526
g54
sS'18057'
p7527
g54
sS'18055'
p7528
g54
sS'19034'
p7529
g32
sS'18053'
p7530
g54
sS'18051'
p7531
g54
sS'43566'
p7532
g32
sS'18050'
p7533
g54
sS'16161'
p7534
g43
sS'16160'
p7535
g43
sS'16163'
p7536
g43
sS'16162'
p7537
g43
sS'16165'
p7538
g43
sS'16164'
p7539
g43
sS'16167'
p7540
g43
sS'16166'
p7541
g43
sS'16168'
p7542
g43
sS'19319'
p7543
g11
sS'19318'
p7544
g11
sS'13413'
p7545
g116
sS'13410'
p7546
g116
sS'13411'
p7547
g116
sS'13416'
p7548
g116
sS'13417'
p7549
g116
sS'13414'
p7550
g116
sS'13415'
p7551
g116
sS'13418'
p7552
g116
sS'13419'
p7553
g116
sS'11670'
p7554
g16
sS'11671'
p7555
g16
sS'11672'
p7556
g16
sS'11674'
p7557
g16
sS'11675'
p7558
g16
sS'11676'
p7559
g16
sS'11677'
p7560
g16
sS'19069'
p7561
g11
sS'33872'
p7562
g152
sS'33873'
p7563
g152
sS'22918'
p7564
g140
sS'05158'
p7565
g84
sS'12094'
p7566
g63
sS'12097'
p7567
g63
sS'12096'
p7568
g63
sS'12093'
p7569
g63
sS'05150'
p7570
g84
sS'05151'
p7571
g84
sS'05152'
p7572
g84
sS'05153'
p7573
g84
sS'05154'
p7574
g84
sS'05155'
p7575
g84
sS'05156'
p7576
g84
sS'05157'
p7577
g84
sS'09328'
p7578
g254
sS'09322'
p7579
g254
sS'09321'
p7580
g254
sS'09320'
p7581
g254
sS'09326'
p7582
g254
sS'09325'
p7583
g254
sS'10039'
p7584
g170
sS'10038'
p7585
g170
sS'10035'
p7586
g170
sS'10034'
p7587
g170
sS'10037'
p7588
g170
sS'10036'
p7589
g170
sS'10031'
p7590
g170
sS'10030'
p7591
g170
sS'10033'
p7592
g170
sS'10032'
p7593
g170
sS'11928'
p7594
g16
sS'11929'
p7595
g16
sS'11921'
p7596
g16
sS'11922'
p7597
g16
sS'11923'
p7598
g16
sS'11924'
p7599
g16
sS'11925'
p7600
g16
sS'11926'
p7601
g16
sS'11927'
p7602
g16
sS'21523'
p7603
g13
sS'21522'
p7604
g13
sS'21521'
p7605
g13
sS'21520'
p7606
g13
sS'21527'
p7607
g13
sS'21526'
p7608
g13
sS'21525'
p7609
g13
sS'21524'
p7610
g13
sS'08031'
p7611
g118
sS'03005'
p7612
g152
sS'03007'
p7613
g152
sS'03000'
p7614
g152
sS'03001'
p7615
g152
sS'03002'
p7616
g152
sS'03003'
p7617
g152
sS'03008'
p7618
g152
sS'03009'
p7619
g152
sS'03265'
p7620
g152
sS'03267'
p7621
g152
sS'03268'
p7622
g152
sS'03269'
p7623
g152
sS'18037'
p7624
g54
sS'18036'
p7625
g54
sS'18030'
p7626
g54
sS'18033'
p7627
g54
sS'18032'
p7628
g54
sS'18039'
p7629
g54
sS'18038'
p7630
g54
sS'28278'
p7631
g54
sS'09118'
p7632
g254
sS'14558'
p7633
g106
sS'14559'
p7634
g106
sS'03812'
p7635
g152
sS'14552'
p7636
g106
sS'14553'
p7637
g106
sS'14550'
p7638
g106
sS'14551'
p7639
g106
sS'28274'
p7640
g54
sS'14557'
p7641
g106
sS'28276'
p7642
g54
sS'14555'
p7643
g106
sS'21397'
p7644
g13
sS'21390'
p7645
g13
sS'13786'
p7646
g116
sS'03815'
p7647
g152
sS'13788'
p7648
g116
sS'03814'
p7649
g152
sS'19871'
p7650
g11
sS'23587'
p7651
g116
sS'09446'
p7652
g254
sS'23585'
p7653
g116
sS'23584'
p7654
g116
sS'23583'
p7655
g116
sS'23582'
p7656
g116
sS'23581'
p7657
g116
sS'09111'
p7658
g254
sS'11317'
p7659
g16
sS'11316'
p7660
g16
sS'11313'
p7661
g16
sS'03819'
p7662
g152
sS'11311'
p7663
g16
sS'11310'
p7664
g16
sS'19128'
p7665
g11
sS'19129'
p7666
g11
sS'09113'
p7667
g254
sS'19120'
p7668
g11
sS'09114'
p7669
g254
sS'19122'
p7670
g11
sS'19123'
p7671
g11
sS'19124'
p7672
g11
sS'19125'
p7673
g11
sS'19126'
p7674
g11
sS'19127'
p7675
g11
sS'09116'
p7676
g254
sS'20445'
p7677
g462
sS'23363'
p7678
g116
sS'23362'
p7679
g116
sS'23361'
p7680
g116
sS'23360'
p7681
g116
sS'23367'
p7682
g116
sS'23366'
p7683
g116
sS'23365'
p7684
g116
sS'23364'
p7685
g116
sS'23369'
p7686
g116
sS'23368'
p7687
g116
sS'15205'
p7688
g491
sS'15204'
p7689
g491
sS'15207'
p7690
g491
sS'15206'
p7691
g491
sS'15201'
p7692
g491
sS'15200'
p7693
g491
sS'15203'
p7694
g491
sS'15202'
p7695
g491
sS'15209'
p7696
g491
sS'15208'
p7697
g491
sS'06988'
p7698
g23
sS'06989'
p7699
g23
sS'06986'
p7700
g23
sS'06987'
p7701
g23
sS'06984'
p7702
g23
sS'06985'
p7703
g23
sS'06982'
p7704
g23
sS'06983'
p7705
g23
sS'06980'
p7706
g23
sS'06981'
p7707
g23
sS'28304'
p7708
g54
sS'11147'
p7709
g16
sS'11144'
p7710
g16
sS'11145'
p7711
g16
sS'16579'
p7712
g43
sS'11142'
p7713
g16
sS'16570'
p7714
g43
sS'14423'
p7715
g106
sS'06182'
p7716
g23
sS'06183'
p7717
g23
sS'06180'
p7718
g23
sS'12665'
p7719
g63
sS'12663'
p7720
g63
sS'06188'
p7721
g23
sS'06189'
p7722
g23
sS'10804'
p7723
g170
sS'10805'
p7724
g170
sS'10802'
p7725
g170
sS'10803'
p7726
g170
sS'14075'
p7727
g106
sS'19878'
p7728
g11
sS'19879'
p7729
g11
sS'11148'
p7730
g16
sS'14074'
p7731
g106
sS'19873'
p7732
g11
sS'21064'
p7733
g13
sS'11149'
p7734
g16
sS'16316'
p7735
g43
sS'16317'
p7736
g43
sS'19874'
p7737
g11
sS'16315'
p7738
g43
sS'14076'
p7739
g106
sS'06239'
p7740
g23
sS'06234'
p7741
g23
sS'06235'
p7742
g23
sS'06236'
p7743
g23
sS'06237'
p7744
g23
sS'06230'
p7745
g23
sS'06231'
p7746
g23
sS'06232'
p7747
g23
sS'06233'
p7748
g23
sS'14073'
p7749
g106
sS'21209'
p7750
g13
sS'21202'
p7751
g13
sS'20545'
p7752
g462
sS'21207'
p7753
g13
sS'09402'
p7754
g254
sS'09403'
p7755
g254
sS'09400'
p7756
g254
sS'09401'
p7757
g254
sS'03853'
p7758
g152
sS'09407'
p7759
g254
sS'09404'
p7760
g254
sS'03850'
p7761
g152
sS'35063'
p7762
g2
sS'09408'
p7763
g254
sS'09409'
p7764
g254
sS'03859'
p7765
g152
sS'03858'
p7766
g152
sS'12061'
p7767
g63
sS'14031'
p7768
g106
sS'14030'
p7769
g106
sS'14033'
p7770
g106
sS'14035'
p7771
g106
sS'14034'
p7772
g106
sS'14037'
p7773
g106
sS'14036'
p7774
g106
sS'14038'
p7775
g106
sS'17045'
p7776
g70
sS'17044'
p7777
g70
sS'17047'
p7778
g70
sS'17046'
p7779
g70
sS'17041'
p7780
g70
sS'17040'
p7781
g70
sS'01189'
p7782
g94
sS'17042'
p7783
g70
sS'01187'
p7784
g94
sS'01186'
p7785
g94
sS'01185'
p7786
g94
sS'01184'
p7787
g94
sS'17049'
p7788
g70
sS'01182'
p7789
g94
sS'01180'
p7790
g94
sS'18422'
p7791
g54
sS'18423'
p7792
g54
sS'18420'
p7793
g54
sS'18421'
p7794
g54
sS'18426'
p7795
g54
sS'18427'
p7796
g54
sS'18424'
p7797
g54
sS'18208'
p7798
g54
sS'18209'
p7799
g54
sS'18206'
p7800
g54
sS'18204'
p7801
g54
sS'18205'
p7802
g54
sS'18202'
p7803
g54
sS'18200'
p7804
g54
sS'18201'
p7805
g54
sS'04690'
p7806
g252
sS'04691'
p7807
g252
sS'04692'
p7808
g252
sS'04693'
p7809
g252
sS'04694'
p7810
g252
sS'04695'
p7811
g252
sS'04696'
p7812
g252
sS'04697'
p7813
g252
sS'04698'
p7814
g252
sS'04699'
p7815
g252
sS'20009'
p7816
g462
sS'20008'
p7817
g462
sS'35088'
p7818
g2
sS'08206'
p7819
g118
sS'08204'
p7820
g118
sS'08202'
p7821
g118
sS'08200'
p7822
g118
sS'07008'
p7823
g565
sS'07001'
p7824
g565
sS'07002'
p7825
g565
sS'07003'
p7826
g565
sS'07004'
p7827
g565
sS'07005'
p7828
g565
sS'07006'
p7829
g565
sS'07007'
p7830
g565
sS'35081'
p7831
g2
sS'35080'
p7832
g2
sS'20016'
p7833
g462
sS'35083'
p7834
g2
sS'04073'
p7835
g252
sS'10905'
p7836
g170
sS'35082'
p7837
g2
sS'10904'
p7838
g170
sS'35085'
p7839
g2
sS'17300'
p7840
g70
sS'35084'
p7841
g2
sS'10906'
p7842
g170
sS'35087'
p7843
g2
sS'17306'
p7844
g70
sS'35086'
p7845
g2
sS'17307'
p7846
g70
sS'07918'
p7847
g565
sS'07919'
p7848
g565
sS'17304'
p7849
g70
sS'07912'
p7850
g565
sS'07913'
p7851
g565
sS'07910'
p7852
g565
sS'07911'
p7853
g565
sS'07916'
p7854
g565
sS'07917'
p7855
g565
sS'07914'
p7856
g565
sS'07915'
p7857
g565
sS'23114'
p7858
g116
sS'23115'
p7859
g116
sS'23116'
p7860
g116
sS'23117'
p7861
g116
sS'23110'
p7862
g116
sS'23111'
p7863
g116
sS'23112'
p7864
g116
sS'23113'
p7865
g116
sS'23118'
p7866
g116
sS'23119'
p7867
g116
sS'06537'
p7868
g23
sS'13326'
p7869
g116
sS'28133'
p7870
g54
sS'28132'
p7871
g54
sS'28131'
p7872
g54
sS'13327'
p7873
g116
sS'28137'
p7874
g54
sS'28136'
p7875
g54
sS'28135'
p7876
g54
sS'28134'
p7877
g54
sS'28139'
p7878
g54
sS'28138'
p7879
g54
sS'18399'
p7880
g54
sS'13328'
p7881
g116
sS'13329'
p7882
g116
sS'16046'
p7883
g43
sS'16149'
p7884
g43
sS'16047'
p7885
g43
sS'16147'
p7886
g43
sS'16146'
p7887
g43
sS'16145'
p7888
g43
sS'16144'
p7889
g43
sS'16044'
p7890
g43
sS'16045'
p7891
g43
sS'17238'
p7892
g70
sS'17239'
p7893
g70
sS'17236'
p7894
g70
sS'17237'
p7895
g70
sS'17234'
p7896
g70
sS'17235'
p7897
g70
sS'17232'
p7898
g70
sS'17233'
p7899
g70
sS'17230'
p7900
g70
sS'17231'
p7901
g70
sS'13438'
p7902
g116
sS'13439'
p7903
g116
sS'16040'
p7904
g43
sS'13430'
p7905
g116
sS'13432'
p7906
g116
sS'16041'
p7907
g43
sS'13436'
p7908
g116
sS'11698'
p7909
g16
sS'11696'
p7910
g16
sS'11697'
p7911
g16
sS'11695'
p7912
g16
sS'11693'
p7913
g16
sS'18170'
p7914
g54
sS'28369'
p7915
g54
sS'18171'
p7916
g54
sS'20630'
p7917
g462
sS'20634'
p7918
g462
sS'18172'
p7919
g54
sS'20636'
p7920
g462
sS'22932'
p7921
g140
sS'18174'
p7922
g54
sS'18175'
p7923
g54
sS'42235'
p7924
g94
sS'42236'
p7925
g118
sS'42237'
p7926
g118
sS'42230'
p7927
g252
sS'42231'
p7928
g252
sS'18177'
p7929
g54
sS'10019'
p7930
g170
sS'10018'
p7931
g170
sS'10013'
p7932
g170
sS'10012'
p7933
g170
sS'10011'
p7934
g170
sS'10010'
p7935
g170
sS'10017'
p7936
g170
sS'10016'
p7937
g170
sS'10015'
p7938
g170
sS'10014'
p7939
g170
sS'19416'
p7940
g32
sS'20126'
p7941
g462
sS'20127'
p7942
g462
sS'20120'
p7943
g462
sS'09340'
p7944
g254
sS'22899'
p7945
g140
sS'03062'
p7946
g152
sS'08567'
p7947
g118
sS'03061'
p7948
g152
sS'03066'
p7949
g152
sS'03067'
p7950
g152
sS'08560'
p7951
g118
sS'08561'
p7952
g118
sS'03068'
p7953
g152
sS'03069'
p7954
g152
sS'08568'
p7955
g118
sS'08569'
p7956
g118
sS'18640'
p7957
g54
sS'21305'
p7958
g13
sS'03289'
p7959
g152
sS'03286'
p7960
g152
sS'03287'
p7961
g152
sS'21304'
p7962
g13
sS'03282'
p7963
g152
sS'03283'
p7964
g152
sS'03280'
p7965
g152
sS'11050'
p7966
g16
sS'05194'
p7967
g84
sS'11052'
p7968
g16
sS'11053'
p7969
g16
sS'11054'
p7970
g16
sS'18016'
p7971
g54
sS'11056'
p7972
g16
sS'05195'
p7973
g84
sS'11058'
p7974
g16
sS'18019'
p7975
g54
sS'05624'
p7976
g84
sS'23105'
p7977
g116
sS'05190'
p7978
g84
sS'05623'
p7979
g84
sS'05621'
p7980
g84
sS'23104'
p7981
g116
sS'23569'
p7982
g116
sS'23568'
p7983
g116
sS'23565'
p7984
g116
sS'23564'
p7985
g116
sS'23567'
p7986
g116
sS'23566'
p7987
g116
sS'23561'
p7988
g116
sS'23560'
p7989
g116
sS'23563'
p7990
g116
sS'23562'
p7991
g116
sS'15195'
p7992
g491
sS'15194'
p7993
g491
sS'15197'
p7994
g491
sS'15196'
p7995
g491
sS'15191'
p7996
g491
sS'15190'
p7997
g491
sS'15193'
p7998
g491
sS'15192'
p7999
g491
sS'15199'
p8000
g491
sS'15198'
p8001
g491
sS'18641'
p8002
g54
sS'28393'
p8003
g54
sS'28392'
p8004
g54
sS'23660'
p8005
g116
sS'23309'
p8006
g116
sS'23308'
p8007
g116
sS'28390'
p8008
g54
sS'03936'
p8009
g152
sS'23301'
p8010
g116
sS'23300'
p8011
g116
sS'23303'
p8012
g116
sS'23302'
p8013
g116
sS'23305'
p8014
g116
sS'23304'
p8015
g116
sS'23307'
p8016
g116
sS'23306'
p8017
g116
sS'15223'
p8018
g491
sS'15222'
p8019
g491
sS'15221'
p8020
g491
sS'15220'
p8021
g491
sS'15227'
p8022
g491
sS'15226'
p8023
g491
sS'15225'
p8024
g491
sS'15224'
p8025
g491
sS'15229'
p8026
g491
sS'15228'
p8027
g491
sS'16554'
p8028
g43
sS'16555'
p8029
g43
sS'16556'
p8030
g43
sS'16557'
p8031
g43
sS'16551'
p8032
g43
sS'16552'
p8033
g43
sS'16558'
p8034
g43
sS'12644'
p8035
g63
sS'09503'
p8036
g254
sS'16088'
p8037
g43
sS'16089'
p8038
g43
sS'14164'
p8039
g106
sS'09502'
p8040
g254
sS'16082'
p8041
g43
sS'16083'
p8042
g43
sS'16080'
p8043
g43
sS'16081'
p8044
g43
sS'16086'
p8045
g43
sS'16087'
p8046
g43
sS'16084'
p8047
g43
sS'16085'
p8048
g43
sS'09500'
p8049
g254
sS'09507'
p8050
g254
sS'10868'
p8051
g170
sS'10869'
p8052
g170
sS'10862'
p8053
g170
sS'10863'
p8054
g170
sS'10860'
p8055
g170
sS'10861'
p8056
g170
sS'10866'
p8057
g170
sS'10867'
p8058
g170
sS'10864'
p8059
g170
sS'10865'
p8060
g170
sS'16331'
p8061
g43
sS'16333'
p8062
g43
sS'16335'
p8063
g43
sS'16336'
p8064
g43
sS'16337'
p8065
g43
sS'16338'
p8066
g43
sS'19859'
p8067
g11
sS'06252'
p8068
g23
sS'06253'
p8069
g23
sS'06250'
p8070
g23
sS'06251'
p8071
g23
sS'06256'
p8072
g23
sS'28241'
p8073
g54
sS'05059'
p8074
g84
sS'05058'
p8075
g84
sS'21226'
p8076
g13
sS'21227'
p8077
g13
sS'05055'
p8078
g84
sS'05054'
p8079
g84
sS'05057'
p8080
g84
sS'05056'
p8081
g84
sS'05051'
p8082
g84
sS'05050'
p8083
g84
sS'05053'
p8084
g84
sS'05052'
p8085
g84
sS'28245'
p8086
g54
sS'28244'
p8087
g54
sS'13597'
p8088
g116
sS'09429'
p8089
g254
sS'13595'
p8090
g116
sS'28247'
p8091
g54
sS'09420'
p8092
g254
sS'09421'
p8093
g254
sS'09422'
p8094
g254
sS'09423'
p8095
g254
sS'09426'
p8096
g254
sS'13598'
p8097
g116
sS'11735'
p8098
g16
sS'11734'
p8099
g16
sS'11737'
p8100
g16
sS'11736'
p8101
g16
sS'11731'
p8102
g16
sS'11730'
p8103
g16
sS'11733'
p8104
g16
sS'11732'
p8105
g16
sS'90560'
p8106
g491
sS'11739'
p8107
g16
sS'11738'
p8108
g16
sS'14019'
p8109
g106
sS'14017'
p8110
g106
sS'14016'
p8111
g106
sS'14015'
p8112
g106
sS'14013'
p8113
g106
sS'14010'
p8114
g106
sS'17063'
p8115
g70
sS'17062'
p8116
g70
sS'17061'
p8117
g70
sS'17060'
p8118
g70
sS'17067'
p8119
g70
sS'17066'
p8120
g70
sS'17065'
p8121
g70
sS'17064'
p8122
g70
sS'17069'
p8123
g70
sS'17068'
p8124
g70
sS'35060'
p8125
g2
sS'14153'
p8126
g106
sS'36418'
p8127
g952
sS'36413'
p8128
g952
sS'36412'
p8129
g952
sS'36411'
p8130
g952
sS'36410'
p8131
g952
sS'36417'
p8132
g952
sS'36416'
p8133
g952
sS'36415'
p8134
g952
sS'36414'
p8135
g952
sS'35067'
p8136
g2
sS'09288'
p8137
g254
sS'09289'
p8138
g254
sS'04678'
p8139
g252
sS'04679'
p8140
g252
sS'09284'
p8141
g254
sS'09285'
p8142
g254
sS'09286'
p8143
g254
sS'09287'
p8144
g254
sS'09281'
p8145
g254
sS'09282'
p8146
g254
sS'09283'
p8147
g254
sS'35066'
p8148
g2
sS'32022'
p8149
g140
sS'35065'
p8150
g2
sS'32020'
p8151
g140
sS'32021'
p8152
g140
sS'04018'
p8153
g252
sS'04013'
p8154
g252
sS'04011'
p8155
g252
sS'04016'
p8156
g252
sS'04017'
p8157
g252
sS'04014'
p8158
g252
sS'04015'
p8159
g252
sS'08481'
p8160
g118
sS'08484'
p8161
g118
sS'08487'
p8162
g118
sS'11873'
p8163
g16
sS'08489'
p8164
g118
sS'08488'
p8165
g118
sS'18224'
p8166
g54
sS'18225'
p8167
g54
sS'18226'
p8168
g54
sS'18227'
p8169
g54
sS'18220'
p8170
g54
sS'18221'
p8171
g54
sS'18222'
p8172
g54
sS'18223'
p8173
g54
sS'18228'
p8174
g54
sS'18229'
p8175
g54
sS'18529'
p8176
g54
sS'18528'
p8177
g54
sS'18524'
p8178
g54
sS'06731'
p8179
g23
sS'06730'
p8180
g23
sS'06733'
p8181
g23
sS'06734'
p8182
g23
sS'06736'
p8183
g23
sS'06739'
p8184
g23
sS'06738'
p8185
g23
sS'18651'
p8186
g54
sS'19894'
p8187
g11
sS'19895'
p8188
g11
sS'07930'
p8189
g565
sS'07931'
p8190
g565
sS'07932'
p8191
g565
sS'07933'
p8192
g565
sS'07934'
p8193
g565
sS'07935'
p8194
g565
sS'07936'
p8195
g565
sS'07937'
p8196
g565
sS'07938'
p8197
g565
sS'07939'
p8198
g565
sS'23178'
p8199
g116
sS'23179'
p8200
g116
sS'28331'
p8201
g54
sS'28330'
p8202
g54
sS'28333'
p8203
g54
sS'28332'
p8204
g54
sS'06084'
p8205
g23
sS'06082'
p8206
g23
sS'06081'
p8207
g23
sS'06080'
p8208
g23
sS'15170'
p8209
g491
sS'19114'
p8210
g11
sS'19898'
p8211
g11
sS'19899'
p8212
g11
sS'28159'
p8213
g54
sS'28158'
p8214
g54
sS'28151'
p8215
g54
sS'28150'
p8216
g54
sS'28153'
p8217
g54
sS'28152'
p8218
g54
sS'28155'
p8219
g54
sS'28154'
p8220
g54
sS'28157'
p8221
g54
sS'28156'
p8222
g54
sS'11508'
p8223
g16
sS'11506'
p8224
g16
sS'11507'
p8225
g16
sS'11504'
p8226
g16
sS'11505'
p8227
g16
sS'11502'
p8228
g16
sS'11503'
p8229
g16
sS'11501'
p8230
g16
sS'25028'
p8231
g32
sS'25026'
p8232
g32
sS'25027'
p8233
g32
sS'25024'
p8234
g32
sS'25025'
p8235
g32
sS'25022'
p8236
g32
sS'25023'
p8237
g32
sS'25020'
p8238
g32
sS'25021'
p8239
g32
sS'42256'
p8240
g252
sS'42258'
p8241
g94
sS'42259'
p8242
g32
sS'18406'
p8243
g54
sS'17214'
p8244
g70
sS'17215'
p8245
g70
sS'17216'
p8246
g70
sS'17217'
p8247
g70
sS'17210'
p8248
g70
sS'17211'
p8249
g70
sS'17212'
p8250
g70
sS'17213'
p8251
g70
sS'17218'
p8252
g70
sS'17219'
p8253
g70
sS'10071'
p8254
g170
sS'10070'
p8255
g170
sS'10073'
p8256
g170
sS'10072'
p8257
g170
sS'10075'
p8258
g170
sS'10074'
p8259
g170
sS'10077'
p8260
g170
sS'10076'
p8261
g170
sS'10079'
p8262
g170
sS'10078'
p8263
g170
sS'19334'
p8264
g11
sS'16055'
p8265
g43
sS'19336'
p8266
g11
sS'16054'
p8267
g43
sS'09367'
p8268
g254
sS'09362'
p8269
g254
sS'03048'
p8270
g152
sS'03049'
p8271
g152
sS'08549'
p8272
g118
sS'08018'
p8273
g118
sS'08019'
p8274
g118
sS'08544'
p8275
g118
sS'08017'
p8276
g118
sS'08014'
p8277
g118
sS'08015'
p8278
g118
sS'08012'
p8279
g118
sS'08013'
p8280
g118
sS'08542'
p8281
g118
sS'08543'
p8282
g118
sS'13019'
p8283
g116
sS'18079'
p8284
g54
sS'18078'
p8285
g54
sS'14599'
p8286
g106
sS'18071'
p8287
g54
sS'18070'
p8288
g54
sS'18073'
p8289
g54
sS'18075'
p8290
g54
sS'18077'
p8291
g54
sS'18076'
p8292
g54
sS'16052'
p8293
g43
sS'23099'
p8294
g116
sS'23098'
p8295
g116
sS'23549'
p8296
g116
sS'23091'
p8297
g116
sS'23090'
p8298
g116
sS'23093'
p8299
g116
sS'23092'
p8300
g116
sS'23095'
p8301
g116
sS'23094'
p8302
g116
sS'23097'
p8303
g116
sS'23096'
p8304
g116
sS'35166'
p8305
g2
sS'23327'
p8306
g116
sS'23326'
p8307
g116
sS'23325'
p8308
g116
sS'23324'
p8309
g116
sS'23323'
p8310
g116
sS'23322'
p8311
g116
sS'23321'
p8312
g116
sS'23320'
p8313
g116
sS'23329'
p8314
g116
sS'23328'
p8315
g116
sS'35167'
p8316
g2
sS'15241'
p8317
g491
sS'15240'
p8318
g491
sS'15243'
p8319
g491
sS'15242'
p8320
g491
sS'15245'
p8321
g491
sS'15244'
p8322
g491
sS'15247'
p8323
g491
sS'15246'
p8324
g491
sS'05724'
p8325
g84
sS'16532'
p8326
g43
sS'16533'
p8327
g43
sS'16531'
p8328
g43
sS'16536'
p8329
g43
sS'16534'
p8330
g43
sS'16535'
p8331
g43
sS'04027'
p8332
g252
sS'16538'
p8333
g43
sS'04026'
p8334
g252
sS'21022'
p8335
g13
sS'21023'
p8336
g13
sS'21020'
p8337
g13
sS'21021'
p8338
g13
sS'21026'
p8339
g13
sS'21024'
p8340
g13
sS'19524'
p8341
g32
sS'21028'
p8342
g13
sS'12198'
p8343
g63
sS'12193'
p8344
g63
sS'12195'
p8345
g63
sS'35049'
p8346
g2
sS'43398'
p8347
g94
sS'43396'
p8348
g94
sS'43390'
p8349
g84
sS'43391'
p8350
g84
sS'43392'
p8351
g16
sS'43393'
p8352
g118
sS'43541'
p8353
g11
sS'05079'
p8354
g84
sS'05078'
p8355
g84
sS'05073'
p8356
g84
sS'05072'
p8357
g84
sS'05071'
p8358
g84
sS'05070'
p8359
g84
sS'05077'
p8360
g84
sS'05076'
p8361
g84
sS'05075'
p8362
g84
sS'05074'
p8363
g84
sS'35048'
p8364
g2
sS'11713'
p8365
g16
sS'11712'
p8366
g16
sS'11711'
p8367
g16
sS'11710'
p8368
g16
sS'11717'
p8369
g16
sS'11716'
p8370
g16
sS'11715'
p8371
g16
sS'11714'
p8372
g16
sS'11719'
p8373
g16
sS'11718'
p8374
g16
sS'17009'
p8375
g70
sS'17008'
p8376
g70
sS'17001'
p8377
g70
sS'17000'
p8378
g70
sS'17003'
p8379
g70
sS'17002'
p8380
g70
sS'17005'
p8381
g70
sS'17004'
p8382
g70
sS'17007'
p8383
g70
sS'17006'
p8384
g70
sS'04654'
p8385
g252
sS'04655'
p8386
g252
sS'04656'
p8387
g252
sS'04657'
p8388
g252
sS'04650'
p8389
g252
sS'04651'
p8390
g252
sS'04652'
p8391
g252
sS'04653'
p8392
g252
sS'04658'
p8393
g252
sS'04659'
p8394
g252
sS'20510'
p8395
g462
sS'08711'
p8396
g118
sS'08710'
p8397
g118
sS'08712'
p8398
g118
sS'42117'
p8399
g94
sS'42116'
p8400
g252
sS'42119'
p8401
g152
sS'09006'
p8402
g254
sS'09007'
p8403
g254
sS'09004'
p8404
g254
sS'09005'
p8405
g254
sS'04034'
p8406
g252
sS'09003'
p8407
g254
sS'04037'
p8408
g252
sS'04038'
p8409
g252
sS'09008'
p8410
g254
sS'09009'
p8411
g254
sS'14291'
p8412
g106
sS'18243'
p8413
g54
sS'14293'
p8414
g106
sS'14292'
p8415
g106
sS'18246'
p8416
g54
sS'14294'
p8417
g106
sS'14297'
p8418
g106
sS'14296'
p8419
g106
sS'18248'
p8420
g54
sS'18249'
p8421
g54
sS'21097'
p8422
g13
sS'21096'
p8423
g13
sS'21095'
p8424
g13
sS'01235'
p8425
g94
sS'01237'
p8426
g94
sS'01236'
p8427
g94
sS'01231'
p8428
g94
sS'01230'
p8429
g94
sS'21093'
p8430
g13
sS'21456'
p8431
g13
sS'01239'
p8432
g94
sS'01238'
p8433
g94
sS'21092'
p8434
g13
sS'21090'
p8435
g13
sS'20086'
p8436
g462
sS'11154'
p8437
g16
sS'11157'
p8438
g16
sS'11156'
p8439
g16
sS'11151'
p8440
g16
sS'11150'
p8441
g16
sS'14433'
p8442
g106
sS'11152'
p8443
g16
sS'14439'
p8444
g106
sS'14438'
p8445
g106
sS'23158'
p8446
g116
sS'23159'
p8447
g116
sS'28319'
p8448
g54
sS'28318'
p8449
g54
sS'23150'
p8450
g116
sS'23151'
p8451
g116
sS'23152'
p8452
g116
sS'23153'
p8453
g116
sS'23154'
p8454
g116
sS'23155'
p8455
g116
sS'23156'
p8456
g116
sS'23157'
p8457
g116
sS'33866'
p8458
g152
sS'13809'
p8459
g116
sS'13808'
p8460
g116
sS'13805'
p8461
g116
sS'13804'
p8462
g116
sS'13807'
p8463
g116
sS'13806'
p8464
g116
sS'13800'
p8465
g116
sS'13803'
p8466
g116
sS'28177'
p8467
g54
sS'28176'
p8468
g54
sS'28175'
p8469
g54
sS'28174'
p8470
g54
sS'28173'
p8471
g54
sS'28172'
p8472
g54
sS'28171'
p8473
g54
sS'28170'
p8474
g54
sS'28179'
p8475
g54
sS'28178'
p8476
g54
sS'11525'
p8477
g16
sS'11526'
p8478
g16
sS'11527'
p8479
g16
sS'11520'
p8480
g16
sS'11521'
p8481
g16
sS'11522'
p8482
g16
sS'11523'
p8483
g16
sS'11529'
p8484
g16
sS'18425'
p8485
g54
sS'25004'
p8486
g32
sS'25005'
p8487
g32
sS'25006'
p8488
g32
sS'15093'
p8489
g491
sS'25000'
p8490
g32
sS'25001'
p8491
g32
sS'25003'
p8492
g32
sS'25008'
p8493
g32
sS'25009'
p8494
g32
sS'93600'
p8495
g491
sS'16275'
p8496
g43
sS'16274'
p8497
g43
sS'16277'
p8498
g43
sS'16276'
p8499
g43
sS'16271'
p8500
g43
sS'32030'
p8501
g140
sS'16273'
p8502
g43
sS'16272'
p8503
g43
sS'16279'
p8504
g43
sS'16278'
p8505
g43
sS'42278'
p8506
g152
sS'42279'
p8507
g152
sS'42270'
p8508
g106
sS'42272'
p8509
g32
sS'17272'
p8510
g70
sS'17273'
p8511
g70
sS'17270'
p8512
g70
sS'17271'
p8513
g70
sS'17276'
p8514
g70
sS'17277'
p8515
g70
sS'17274'
p8516
g70
sS'17275'
p8517
g70
sS'18316'
p8518
g54
sS'17278'
p8519
g70
sS'17279'
p8520
g70
sS'10059'
p8521
g170
sS'10058'
p8522
g170
sS'10057'
p8523
g170
sS'10056'
p8524
g170
sS'10055'
p8525
g170
sS'10054'
p8526
g170
sS'10053'
p8527
g170
sS'10052'
p8528
g170
sS'10051'
p8529
g170
sS'10050'
p8530
g170
sS'19015'
p8531
g32
sS'19016'
p8532
g32
sS'44260'
p8533
g11
sS'05718'
p8534
g84
sS'05719'
p8535
g84
sS'05716'
p8536
g84
sS'05717'
p8537
g84
sS'05714'
p8538
g84
sS'05715'
p8539
g84
sS'05712'
p8540
g84
sS'05713'
p8541
g84
sS'05710'
p8542
g84
sS'05711'
p8543
g84
sS'01008'
p8544
g94
sS'01009'
p8545
g94
sS'01006'
p8546
g94
sS'01007'
p8547
g94
sS'01004'
p8548
g94
sS'01005'
p8549
g94
sS'01002'
p8550
g94
sS'01003'
p8551
g94
sS'01001'
p8552
g94
sS'13386'
p8553
g116
sS'13387'
p8554
g116
sS'13384'
p8555
g116
sS'13382'
p8556
g116
sS'13383'
p8557
g116
sS'13380'
p8558
g116
sS'13381'
p8559
g116
sS'08045'
p8560
g118
sS'13388'
p8561
g116
sS'13389'
p8562
g116
sS'08047'
p8563
g118
sS'08046'
p8564
g118
sS'11898'
p8565
g16
sS'11899'
p8566
g16
sS'14608'
p8567
g106
sS'14609'
p8568
g106
sS'11894'
p8569
g16
sS'11895'
p8570
g16
sS'14604'
p8571
g106
sS'11897'
p8572
g16
sS'11890'
p8573
g16
sS'11891'
p8574
g16
sS'12643'
p8575
g63
sS'14601'
p8576
g106
sS'01218'
p8577
g94
sS'20014'
p8578
g462
sS'11094'
p8579
g16
sS'11095'
p8580
g16
sS'11096'
p8581
g16
sS'11097'
p8582
g16
sS'11090'
p8583
g16
sS'11091'
p8584
g16
sS'11092'
p8585
g16
sS'11093'
p8586
g16
sS'11098'
p8587
g16
sS'11099'
p8588
g16
sS'18059'
p8589
g54
sS'33878'
p8590
g152
sS'20015'
p8591
g462
sS'19013'
p8592
g11
sS'33870'
p8593
g152
sS'33871'
p8594
g152
sS'33876'
p8595
g152
sS'33877'
p8596
g152
sS'33874'
p8597
g152
sS'33875'
p8598
g152
sS'08034'
p8599
g118
sS'08035'
p8600
g118
sS'08037'
p8601
g118
sS'08030'
p8602
g118
sS'03711'
p8603
g152
sS'08032'
p8604
g118
sS'35183'
p8605
g2
sS'08038'
p8606
g118
sS'08039'
p8607
g118
sS'23521'
p8608
g116
sS'23523'
p8609
g116
sS'23525'
p8610
g116
sS'23528'
p8611
g116
sS'35184'
p8612
g2
sS'35185'
p8613
g2
sS'15267'
p8614
g491
sS'15266'
p8615
g491
sS'15265'
p8616
g491
sS'15264'
p8617
g491
sS'15262'
p8618
g491
sS'15261'
p8619
g491
sS'15260'
p8620
g491
sS'15269'
p8621
g491
sS'15268'
p8622
g491
sS'19018'
p8623
g11
sS'09304'
p8624
g254
sS'16518'
p8625
g43
sS'16519'
p8626
g43
sS'09306'
p8627
g254
sS'19098'
p8628
g11
sS'19099'
p8629
g11
sS'16048'
p8630
g43
sS'16049'
p8631
g43
sS'16510'
p8632
g43
sS'16511'
p8633
g43
sS'16512'
p8634
g43
sS'16513'
p8635
g43
sS'16514'
p8636
g43
sS'16515'
p8637
g43
sS'16516'
p8638
g43
sS'16517'
p8639
g43
sS'28372'
p8640
g54
sS'28375'
p8641
g54
sS'09302'
p8642
g254
sS'11176'
p8643
g16
sS'28377'
p8644
g54
sS'11174'
p8645
g16
sS'21008'
p8646
g13
sS'21009'
p8647
g13
sS'21002'
p8648
g13
sS'21003'
p8649
g13
sS'21004'
p8650
g13
sS'21005'
p8651
g13
sS'21006'
p8652
g13
sS'21007'
p8653
g13
sS'14066'
p8654
g106
sS'14067'
p8655
g106
sS'14064'
p8656
g106
sS'43404'
p8657
g106
sS'43405'
p8658
g94
sS'43406'
p8659
g16
sS'14065'
p8660
g106
sS'43401'
p8661
g106
sS'14062'
p8662
g106
sS'43408'
p8663
g152
sS'14063'
p8664
g106
sS'14060'
p8665
g106
sS'14061'
p8666
g106
sS'08659'
p8667
g118
sS'17399'
p8668
g70
sS'17398'
p8669
g70
sS'17391'
p8670
g70
sS'17390'
p8671
g70
sS'17393'
p8672
g70
sS'17392'
p8673
g70
sS'17395'
p8674
g70
sS'17394'
p8675
g70
sS'17397'
p8676
g70
sS'17396'
p8677
g70
sS'11779'
p8678
g16
sS'11778'
p8679
g16
sS'19896'
p8680
g11
sS'19897'
p8681
g11
sS'19890'
p8682
g11
sS'19891'
p8683
g11
sS'19892'
p8684
g11
sS'19893'
p8685
g11
sS'11771'
p8686
g16
sS'11770'
p8687
g16
sS'11773'
p8688
g16
sS'11772'
p8689
g16
sS'11775'
p8690
g16
sS'11774'
p8691
g16
sS'11777'
p8692
g16
sS'17027'
p8693
g70
sS'17026'
p8694
g70
sS'17025'
p8695
g70
sS'17024'
p8696
g70
sS'17023'
p8697
g70
sS'17022'
p8698
g70
sS'17021'
p8699
g70
sS'17020'
p8700
g70
sS'17029'
p8701
g70
sS'17028'
p8702
g70
sS'18069'
p8703
g54
sS'05011'
p8704
g84
sS'05010'
p8705
g84
sS'05013'
p8706
g84
sS'05012'
p8707
g84
sS'05015'
p8708
g84
sS'05014'
p8709
g84
sS'05017'
p8710
g84
sS'05016'
p8711
g84
sS'05019'
p8712
g84
sS'05018'
p8713
g84
sS'04633'
p8714
g252
sS'04630'
p8715
g252
sS'04631'
p8716
g252
sS'04636'
p8717
g252
sS'18419'
p8718
g54
sS'04634'
p8719
g252
sS'04635'
p8720
g252
sS'04638'
p8721
g252
sS'04639'
p8722
g252
sS'18414'
p8723
g54
sS'42131'
p8724
g11
sS'42137'
p8725
g252
sS'42136'
p8726
g94
sS'42135'
p8727
g94
sS'42139'
p8728
g32
sS'42138'
p8729
g252
sS'09028'
p8730
g254
sS'09029'
p8731
g254
sS'09024'
p8732
g254
sS'09025'
p8733
g254
sS'09026'
p8734
g254
sS'09027'
p8735
g254
sS'09020'
p8736
g254
sS'09021'
p8737
g254
sS'09022'
p8738
g254
sS'09023'
p8739
g254
sS'35092'
p8740
g2
sS'35093'
p8741
g2
sS'35091'
p8742
g2
sS'18268'
p8743
g54
sS'18269'
p8744
g54
sS'18260'
p8745
g54
sS'18261'
p8746
g54
sS'18262'
p8747
g54
sS'18263'
p8748
g54
sS'18264'
p8749
g54
sS'18265'
p8750
g54
sS'18266'
p8751
g54
sS'18267'
p8752
g54
sS'15098'
p8753
g491
sS'15099'
p8754
g491
sS'17339'
p8755
g70
sS'15090'
p8756
g491
sS'15091'
p8757
g491
sS'15092'
p8758
g491
sS'10911'
p8759
g170
sS'15094'
p8760
g491
sS'15095'
p8761
g491
sS'15096'
p8762
g491
sS'15097'
p8763
g491
sS'08192'
p8764
g118
sS'08191'
p8765
g118
sS'08194'
p8766
g118
sS'01212'
p8767
g94
sS'01211'
p8768
g94
sS'01210'
p8769
g94
sS'01217'
p8770
g94
sS'10918'
p8771
g170
sS'01215'
p8772
g94
sS'01214'
p8773
g94
sS'01219'
p8774
g94
sS'10919'
p8775
g170
sS'17441'
p8776
g70
sS'83110'
p8777
g491
sS'17440'
p8778
g70
sS'17443'
p8779
g70
sS'17442'
p8780
g70
sS'17445'
p8781
g70
sS'17444'
p8782
g70
sS'28371'
p8783
g54
sS'14412'
p8784
g106
sS'14411'
p8785
g106
sS'11170'
p8786
g16
sS'11177'
p8787
g16
sS'14416'
p8788
g106
sS'14415'
p8789
g106
sS'14414'
p8790
g106
sS'28379'
p8791
g54
sS'28378'
p8792
g54
sS'11179'
p8793
g16
sS'11178'
p8794
g16
sS'13829'
p8795
g116
sS'13828'
p8796
g116
sS'13823'
p8797
g116
sS'13822'
p8798
g116
sS'13821'
p8799
g116
sS'13820'
p8800
g116
sS'13827'
p8801
g116
sS'13826'
p8802
g116
sS'13825'
p8803
g116
sS'13824'
p8804
g116
sS'28199'
p8805
g54
sS'28198'
p8806
g54
sS'28195'
p8807
g54
sS'28194'
p8808
g54
sS'28197'
p8809
g54
sS'28196'
p8810
g54
sS'28191'
p8811
g54
sS'28190'
p8812
g54
sS'28193'
p8813
g54
sS'28192'
p8814
g54
s.